---
triple:          'arm64-apple-darwin'
binary-path:     '/Users/pio/Desktop/EDA_FINAL/output/0609'
relocations:
  - { offsetInCU: 0x3F, offset: 0x3F, size: 0x8, addend: 0x0, symName: _Alpha, symObjAddr: 0x1055D0, symBinAddr: 0x100020000, symSize: 0x0 }
  - { offsetInCU: 0x5B, offset: 0x5B, size: 0x8, addend: 0x0, symName: _Beta, symObjAddr: 0x1055D8, symBinAddr: 0x100020008, symSize: 0x0 }
  - { offsetInCU: 0x70, offset: 0x70, size: 0x8, addend: 0x0, symName: _Gamma, symObjAddr: 0x1055E0, symBinAddr: 0x100020010, symSize: 0x0 }
  - { offsetInCU: 0x85, offset: 0x85, size: 0x8, addend: 0x0, symName: _Lambda, symObjAddr: 0x1055E8, symBinAddr: 0x100020018, symSize: 0x0 }
  - { offsetInCU: 0x9B, offset: 0x9B, size: 0x8, addend: 0x0, symName: _fflib, symObjAddr: 0x1055F0, symBinAddr: 0x100020020, symSize: 0x0 }
  - { offsetInCU: 0x156A5, offset: 0x156A5, size: 0x8, addend: 0x0, symName: __ZNSt3__124__put_character_sequenceB8ue170006IcNS_11char_traitsIcEEEERNS_13basic_ostreamIT_T0_EES7_PKS4_m, symObjAddr: 0x91B0, symBinAddr: 0x10000AB08, symSize: 0x1F4 }
  - { offsetInCU: 0x186DE, offset: 0x186DE, size: 0x8, addend: 0x0, symName: __ZNSt3__17getlineB8ue170006IcNS_11char_traitsIcEENS_9allocatorIcEEEERNS_13basic_istreamIT_T0_EES9_RNS_12basic_stringIS6_S7_T1_EE, symObjAddr: 0x2014, symBinAddr: 0x10000396C, symSize: 0x5C }
  - { offsetInCU: 0x18AB2, offset: 0x18AB2, size: 0x8, addend: 0x0, symName: __ZNSt3__1rsB8ue170006IcNS_11char_traitsIcEENS_9allocatorIcEEEERNS_13basic_istreamIT_T0_EES9_RNS_12basic_stringIS6_S7_T1_EE, symObjAddr: 0x21C4, symBinAddr: 0x100003B1C, symSize: 0x314 }
  - { offsetInCU: 0x18B7F, offset: 0x18B7F, size: 0x8, addend: 0x0, symName: __ZNSt3__1eqB8ue170006IcNS_11char_traitsIcEENS_9allocatorIcEEEEbRKNS_12basic_stringIT_T0_T1_EEPKS6_, symObjAddr: 0x24D8, symBinAddr: 0x100003E30, symSize: 0xC0 }
  - { offsetInCU: 0x18BF1, offset: 0x18BF1, size: 0x8, addend: 0x0, symName: __ZNSt3__1neB8ue170006ERKNS_19__hash_map_iteratorINS_15__hash_iteratorIPNS_11__hash_nodeINS_17__hash_value_typeINS_12basic_stringIcNS_11char_traitsIcEENS_9allocatorIcEEEE8FlipFlopEEPvEEEEEESI_, symObjAddr: 0x2C20, symBinAddr: 0x100004578, symSize: 0x30 }
  - { offsetInCU: 0x18E05, offset: 0x18E05, size: 0x8, addend: 0x0, symName: __ZNSt3__17getlineB8ue170006IcNS_11char_traitsIcEENS_9allocatorIcEEEERNS_13basic_istreamIT_T0_EES9_RNS_12basic_stringIS6_S7_T1_EES6_, symObjAddr: 0x3108, symBinAddr: 0x100004A60, symSize: 0x234 }
  - { offsetInCU: 0x18EC3, offset: 0x18EC3, size: 0x8, addend: 0x0, symName: __ZNSt3__1neB8ue170006ERKNS_19__hash_map_iteratorINS_15__hash_iteratorIPNS_11__hash_nodeINS_17__hash_value_typeINS_12basic_stringIcNS_11char_traitsIcEENS_9allocatorIcEEEEP9InstanceFEEPvEEEEEESJ_, symObjAddr: 0x333C, symBinAddr: 0x100004C94, symSize: 0x30 }
  - { offsetInCU: 0x18F0B, offset: 0x18F0B, size: 0x8, addend: 0x0, symName: __ZNSt3__1neB8ue170006ERKNS_19__hash_map_iteratorINS_15__hash_iteratorIPNS_11__hash_nodeINS_17__hash_value_typeINS_12basic_stringIcNS_11char_traitsIcEENS_9allocatorIcEEEEP3PinEEPvEEEEEESJ_, symObjAddr: 0x357C, symBinAddr: 0x100004ED4, symSize: 0x30 }
  - { offsetInCU: 0x18F48, offset: 0x18F48, size: 0x8, addend: 0x0, symName: __ZNSt3__1lsB8ue170006INS_11char_traitsIcEEEERNS_13basic_ostreamIcT_EES6_PKc, symObjAddr: 0x3D70, symBinAddr: 0x1000056C8, symSize: 0x48 }
  - { offsetInCU: 0x18F8E, offset: 0x18F8E, size: 0x8, addend: 0x0, symName: __ZNSt3__14endlB8ue170006IcNS_11char_traitsIcEEEERNS_13basic_ostreamIT_T0_EES7_, symObjAddr: 0x3DE4, symBinAddr: 0x10000573C, symSize: 0x58 }
  - { offsetInCU: 0x18FCE, offset: 0x18FCE, size: 0x8, addend: 0x0, symName: __ZNSt3__130__libcpp_is_constant_evaluatedB8ue170006Ev, symObjAddr: 0x4BB0, symBinAddr: 0x100006508, symSize: 0xC }
  - { offsetInCU: 0x18FEB, offset: 0x18FEB, size: 0x8, addend: 0x0, symName: __ZNSt3__119__libcpp_deallocateB8ue170006EPvmm, symObjAddr: 0x4BBC, symBinAddr: 0x100006514, symSize: 0x30 }
  - { offsetInCU: 0x19033, offset: 0x19033, size: 0x8, addend: 0x0, symName: __ZNSt3__127__do_deallocate_handle_sizeB8ue170006IJEEEvPvmDpT_, symObjAddr: 0x4BEC, symBinAddr: 0x100006544, symSize: 0x28 }
  - { offsetInCU: 0x19071, offset: 0x19071, size: 0x8, addend: 0x0, symName: __ZNSt3__124__libcpp_operator_deleteB8ue170006IJPvEEEvDpT_, symObjAddr: 0x4C14, symBinAddr: 0x10000656C, symSize: 0x24 }
  - { offsetInCU: 0x190D9, offset: 0x190D9, size: 0x8, addend: 0x0, symName: __ZNSt3__1neB8ue170006ERKNS_25__hash_map_const_iteratorINS_21__hash_const_iteratorIPNS_11__hash_nodeINS_17__hash_value_typeINS_12basic_stringIcNS_11char_traitsIcEENS_9allocatorIcEEEEP3PinEEPvEEEEEESJ_, symObjAddr: 0x5AB4, symBinAddr: 0x10000740C, symSize: 0x30 }
  - { offsetInCU: 0x19116, offset: 0x19116, size: 0x8, addend: 0x0, symName: __ZNSt3__1neB8ue170006ERKNS_21__hash_const_iteratorIPNS_11__hash_nodeINS_17__hash_value_typeINS_12basic_stringIcNS_11char_traitsIcEENS_9allocatorIcEEEEP3PinEEPvEEEESH_, symObjAddr: 0x5B88, symBinAddr: 0x1000074E0, symSize: 0x34 }
  - { offsetInCU: 0x19153, offset: 0x19153, size: 0x8, addend: 0x0, symName: __ZNSt3__1eqB8ue170006ERKNS_21__hash_const_iteratorIPNS_11__hash_nodeINS_17__hash_value_typeINS_12basic_stringIcNS_11char_traitsIcEENS_9allocatorIcEEEEP3PinEEPvEEEESH_, symObjAddr: 0x5BBC, symBinAddr: 0x100007514, symSize: 0x30 }
  - { offsetInCU: 0x19190, offset: 0x19190, size: 0x8, addend: 0x0, symName: __ZNSt3__116__constrain_hashB8ue170006Emm, symObjAddr: 0x60EC, symBinAddr: 0x100007A44, symSize: 0x98 }
  - { offsetInCU: 0x191CA, offset: 0x191CA, size: 0x8, addend: 0x0, symName: __ZNSt3__13maxB8ue170006ImEERKT_S3_S3_, symObjAddr: 0x6358, symBinAddr: 0x100007CB0, symSize: 0x2C }
  - { offsetInCU: 0x1920D, offset: 0x1920D, size: 0x8, addend: 0x0, symName: __ZNSt3__116__is_hash_power2B8ue170006Em, symObjAddr: 0x6384, symBinAddr: 0x100007CDC, symSize: 0x50 }
  - { offsetInCU: 0x19239, offset: 0x19239, size: 0x8, addend: 0x0, symName: __ZNSt3__116__do_string_hashB8ue170006IPKcEEmT_S3_, symObjAddr: 0x65B8, symBinAddr: 0x100007F10, symSize: 0x3C }
  - { offsetInCU: 0x1927F, offset: 0x1927F, size: 0x8, addend: 0x0, symName: __ZNSt3__110__loadwordB8ue170006ImEET_PKv, symObjAddr: 0x7028, symBinAddr: 0x100008980, symSize: 0x20 }
  - { offsetInCU: 0x192C2, offset: 0x192C2, size: 0x8, addend: 0x0, symName: __ZNSt3__14swapB8ue170006ImEEvRT_S2_, symObjAddr: 0x71E4, symBinAddr: 0x100008B3C, symSize: 0x3C }
  - { offsetInCU: 0x19313, offset: 0x19313, size: 0x8, addend: 0x0, symName: __ZNSt3__110__loadwordB8ue170006IjEET_PKv, symObjAddr: 0x7274, symBinAddr: 0x100008BCC, symSize: 0x20 }
  - { offsetInCU: 0x19356, offset: 0x19356, size: 0x8, addend: 0x0, symName: __ZNSt3__112__to_addressB8ue170006IKcEEPT_S3_, symObjAddr: 0x73DC, symBinAddr: 0x100008D34, symSize: 0x14 }
  - { offsetInCU: 0x193BE, offset: 0x193BE, size: 0x8, addend: 0x0, symName: __ZNSt3__1eqB8ue170006INS_9allocatorIcEEEEbRKNS_12basic_stringIcNS_11char_traitsIcEET_EES9_, symObjAddr: 0x75F8, symBinAddr: 0x100008F50, symSize: 0x148 }
  - { offsetInCU: 0x1944F, offset: 0x1944F, size: 0x8, addend: 0x0, symName: __ZNSt3__117__libcpp_allocateB8ue170006Emm, symObjAddr: 0x7990, symBinAddr: 0x1000092E8, symSize: 0x28 }
  - { offsetInCU: 0x1948C, offset: 0x1948C, size: 0x8, addend: 0x0, symName: __ZNSt3__121__libcpp_operator_newB8ue170006IJmEEEPvDpT_, symObjAddr: 0x79D0, symBinAddr: 0x100009328, symSize: 0x24 }
  - { offsetInCU: 0x194C5, offset: 0x194C5, size: 0x8, addend: 0x0, symName: __ZNSt3__116__next_hash_pow2B8ue170006Em, symObjAddr: 0x8064, symBinAddr: 0x1000099BC, symSize: 0x6C }
  - { offsetInCU: 0x1950D, offset: 0x1950D, size: 0x8, addend: 0x0, symName: __ZNSt3__112__libcpp_clzB8ue170006Em, symObjAddr: 0x8254, symBinAddr: 0x100009BAC, symSize: 0x1C }
  - { offsetInCU: 0x19539, offset: 0x19539, size: 0x8, addend: 0x0, symName: __ZNSt3__13maxB8ue170006ImNS_6__lessIvvEEEERKT_S5_S5_T0_, symObjAddr: 0x8270, symBinAddr: 0x100009BC8, symSize: 0x54 }
  - { offsetInCU: 0x19671, offset: 0x19671, size: 0x8, addend: 0x0, symName: __ZNSt3__1lsB8ue170006IcNS_11char_traitsIcEENS_9allocatorIcEEEERNS_13basic_ostreamIT_T0_EES9_RKNS_12basic_stringIS6_S7_T1_EE, symObjAddr: 0x9164, symBinAddr: 0x10000AABC, symSize: 0x4C }
  - { offsetInCU: 0x196C9, offset: 0x196C9, size: 0x8, addend: 0x0, symName: __ZNSt3__116__pad_and_outputB8ue170006IcNS_11char_traitsIcEEEENS_19ostreambuf_iteratorIT_T0_EES6_PKS4_S8_S8_RNS_8ios_baseES4_, symObjAddr: 0x93C0, symBinAddr: 0x10000AD18, symSize: 0x248 }
  - { offsetInCU: 0x19798, offset: 0x19798, size: 0x8, addend: 0x0, symName: __ZNSt3__19use_facetB8ue170006INS_5ctypeIcEEEERKT_RKNS_6localeE, symObjAddr: 0x9A68, symBinAddr: 0x10000B3C0, symSize: 0x2C }
  - { offsetInCU: 0x19B76, offset: 0x19B76, size: 0x8, addend: 0x0, symName: __ZNSt3__118__constexpr_strlenB8ue170006EPKc, symObjAddr: 0x9F5C, symBinAddr: 0x10000B8B4, symSize: 0x24 }
  - { offsetInCU: 0x19BC0, offset: 0x19BC0, size: 0x8, addend: 0x0, symName: __ZNSt3__1neB8ue170006ERKNS_15__hash_iteratorIPNS_11__hash_nodeINS_17__hash_value_typeINS_12basic_stringIcNS_11char_traitsIcEENS_9allocatorIcEEEEP3PinEEPvEEEESH_, symObjAddr: 0xAC24, symBinAddr: 0x10000C57C, symSize: 0x34 }
  - { offsetInCU: 0x19BFD, offset: 0x19BFD, size: 0x8, addend: 0x0, symName: __ZNSt3__1eqB8ue170006ERKNS_15__hash_iteratorIPNS_11__hash_nodeINS_17__hash_value_typeINS_12basic_stringIcNS_11char_traitsIcEENS_9allocatorIcEEEEP3PinEEPvEEEESH_, symObjAddr: 0xAC58, symBinAddr: 0x10000C5B0, symSize: 0x30 }
  - { offsetInCU: 0x19D24, offset: 0x19D24, size: 0x8, addend: 0x0, symName: __ZNSt3__1neB8ue170006ERKNS_19__hash_map_iteratorINS_15__hash_iteratorIPNS_11__hash_nodeINS_17__hash_value_typeINS_12basic_stringIcNS_11char_traitsIcEENS_9allocatorIcEEEE4GateEEPvEEEEEESI_, symObjAddr: 0xDEB0, symBinAddr: 0x10000F808, symSize: 0x30 }
  - { offsetInCU: 0x19D61, offset: 0x19D61, size: 0x8, addend: 0x0, symName: __ZNSt3__1neB8ue170006ERKNS_15__hash_iteratorIPNS_11__hash_nodeINS_17__hash_value_typeINS_12basic_stringIcNS_11char_traitsIcEENS_9allocatorIcEEEE4GateEEPvEEEESG_, symObjAddr: 0xE73C, symBinAddr: 0x100010094, symSize: 0x34 }
  - { offsetInCU: 0x19D9E, offset: 0x19D9E, size: 0x8, addend: 0x0, symName: __ZNSt3__1eqB8ue170006ERKNS_15__hash_iteratorIPNS_11__hash_nodeINS_17__hash_value_typeINS_12basic_stringIcNS_11char_traitsIcEENS_9allocatorIcEEEE4GateEEPvEEEESG_, symObjAddr: 0xE770, symBinAddr: 0x1000100C8, symSize: 0x30 }
  - { offsetInCU: 0x1A12C, offset: 0x1A12C, size: 0x8, addend: 0x0, symName: __ZNSt3__1neB8ue170006ERKNS_15__hash_iteratorIPNS_11__hash_nodeINS_17__hash_value_typeINS_12basic_stringIcNS_11char_traitsIcEENS_9allocatorIcEEEE8FlipFlopEEPvEEEESG_, symObjAddr: 0x12B90, symBinAddr: 0x1000144E8, symSize: 0x34 }
  - { offsetInCU: 0x1A169, offset: 0x1A169, size: 0x8, addend: 0x0, symName: __ZNSt3__1eqB8ue170006ERKNS_15__hash_iteratorIPNS_11__hash_nodeINS_17__hash_value_typeINS_12basic_stringIcNS_11char_traitsIcEENS_9allocatorIcEEEE8FlipFlopEEPvEEEESG_, symObjAddr: 0x12BC4, symBinAddr: 0x10001451C, symSize: 0x30 }
  - { offsetInCU: 0x1A22A, offset: 0x1A22A, size: 0x8, addend: 0x0, symName: __ZNSt3__1neB8ue170006ERKNS_19__hash_map_iteratorINS_15__hash_iteratorIPNS_11__hash_nodeINS_17__hash_value_typeINS_12basic_stringIcNS_11char_traitsIcEENS_9allocatorIcEEEEP9InstanceGEEPvEEEEEESJ_, symObjAddr: 0x14454, symBinAddr: 0x100015DAC, symSize: 0x30 }
  - { offsetInCU: 0x1A267, offset: 0x1A267, size: 0x8, addend: 0x0, symName: __ZNSt3__1neB8ue170006ERKNS_15__hash_iteratorIPNS_11__hash_nodeINS_17__hash_value_typeINS_12basic_stringIcNS_11char_traitsIcEENS_9allocatorIcEEEEP9InstanceGEEPvEEEESH_, symObjAddr: 0x14CE0, symBinAddr: 0x100016638, symSize: 0x34 }
  - { offsetInCU: 0x1A2A4, offset: 0x1A2A4, size: 0x8, addend: 0x0, symName: __ZNSt3__1eqB8ue170006ERKNS_15__hash_iteratorIPNS_11__hash_nodeINS_17__hash_value_typeINS_12basic_stringIcNS_11char_traitsIcEENS_9allocatorIcEEEEP9InstanceGEEPvEEEESH_, symObjAddr: 0x14D14, symBinAddr: 0x10001666C, symSize: 0x30 }
  - { offsetInCU: 0x1A365, offset: 0x1A365, size: 0x8, addend: 0x0, symName: __ZNSt3__1neB8ue170006ERKNS_15__hash_iteratorIPNS_11__hash_nodeINS_17__hash_value_typeINS_12basic_stringIcNS_11char_traitsIcEENS_9allocatorIcEEEEP9InstanceFEEPvEEEESH_, symObjAddr: 0x162F0, symBinAddr: 0x100017C48, symSize: 0x34 }
  - { offsetInCU: 0x1A3A2, offset: 0x1A3A2, size: 0x8, addend: 0x0, symName: __ZNSt3__1eqB8ue170006ERKNS_15__hash_iteratorIPNS_11__hash_nodeINS_17__hash_value_typeINS_12basic_stringIcNS_11char_traitsIcEENS_9allocatorIcEEEEP9InstanceFEEPvEEEESH_, symObjAddr: 0x16324, symBinAddr: 0x100017C7C, symSize: 0x30 }
  - { offsetInCU: 0x1A3DF, offset: 0x1A3DF, size: 0x8, addend: 0x0, symName: __ZNSt3__1neB8ue170006ERKNS_19__hash_map_iteratorINS_15__hash_iteratorIPNS_11__hash_nodeINS_17__hash_value_typeINS_12basic_stringIcNS_11char_traitsIcEENS_9allocatorIcEEEEP3NetEEPvEEEEEESJ_, symObjAddr: 0x16544, symBinAddr: 0x100017E9C, symSize: 0x30 }
  - { offsetInCU: 0x1A41C, offset: 0x1A41C, size: 0x8, addend: 0x0, symName: __ZNSt3__1neB8ue170006ERKNS_15__hash_iteratorIPNS_11__hash_nodeINS_17__hash_value_typeINS_12basic_stringIcNS_11char_traitsIcEENS_9allocatorIcEEEEP3NetEEPvEEEESH_, symObjAddr: 0x16DD0, symBinAddr: 0x100018728, symSize: 0x34 }
  - { offsetInCU: 0x1A459, offset: 0x1A459, size: 0x8, addend: 0x0, symName: __ZNSt3__1eqB8ue170006ERKNS_15__hash_iteratorIPNS_11__hash_nodeINS_17__hash_value_typeINS_12basic_stringIcNS_11char_traitsIcEENS_9allocatorIcEEEEP3NetEEPvEEEESH_, symObjAddr: 0x16E04, symBinAddr: 0x10001875C, symSize: 0x30 }
  - { offsetInCU: 0x1A5CD, offset: 0x1A5CD, size: 0x8, addend: 0x0, symName: __ZSt28__throw_bad_array_new_lengthB8ue170006v, symObjAddr: 0x795C, symBinAddr: 0x1000092B4, symSize: 0x34 }
  - { offsetInCU: 0x1B42E, offset: 0x1B42E, size: 0x8, addend: 0x0, symName: _gatelib, symObjAddr: 0x105618, symBinAddr: 0x100020048, symSize: 0x0 }
  - { offsetInCU: 0x1BA12, offset: 0x1BA12, size: 0x8, addend: 0x0, symName: _die, symObjAddr: 0x105640, symBinAddr: 0x100020070, symSize: 0x0 }
  - { offsetInCU: 0x1BB36, offset: 0x1BB36, size: 0x8, addend: 0x0, symName: _InstanceF_map, symObjAddr: 0x1056B0, symBinAddr: 0x1000200E0, symSize: 0x0 }
  - { offsetInCU: 0x1C0EF, offset: 0x1C0EF, size: 0x8, addend: 0x0, symName: _InstanceG_map, symObjAddr: 0x1056D8, symBinAddr: 0x100020108, symSize: 0x0 }
  - { offsetInCU: 0x1C69A, offset: 0x1C69A, size: 0x8, addend: 0x0, symName: _Net_map, symObjAddr: 0x105700, symBinAddr: 0x100020130, symSize: 0x0 }
  - { offsetInCU: 0x1F159, offset: 0x1F159, size: 0x8, addend: 0x0, symName: __ZNSt3__113unordered_mapINS_12basic_stringIcNS_11char_traitsIcEENS_9allocatorIcEEEE8FlipFlopNS_4hashIS6_EENS_8equal_toIS6_EENS4_INS_4pairIKS6_S7_EEEEEC1B8ue170006Ev, symObjAddr: 0x0, symBinAddr: 0x100001958, symSize: 0x2C }
  - { offsetInCU: 0x1F183, offset: 0x1F183, size: 0x8, addend: 0x0, symName: __ZNSt3__113unordered_mapINS_12basic_stringIcNS_11char_traitsIcEENS_9allocatorIcEEEE8FlipFlopNS_4hashIS6_EENS_8equal_toIS6_EENS4_INS_4pairIKS6_S7_EEEEED1B8ue170006Ev, symObjAddr: 0x2C, symBinAddr: 0x100001984, symSize: 0x2C }
  - { offsetInCU: 0x1F1AD, offset: 0x1F1AD, size: 0x8, addend: 0x0, symName: __ZNSt3__113unordered_mapINS_12basic_stringIcNS_11char_traitsIcEENS_9allocatorIcEEEE4GateNS_4hashIS6_EENS_8equal_toIS6_EENS4_INS_4pairIKS6_S7_EEEEEC1B8ue170006Ev, symObjAddr: 0x58, symBinAddr: 0x1000019B0, symSize: 0x2C }
  - { offsetInCU: 0x1F1D7, offset: 0x1F1D7, size: 0x8, addend: 0x0, symName: __ZNSt3__113unordered_mapINS_12basic_stringIcNS_11char_traitsIcEENS_9allocatorIcEEEE4GateNS_4hashIS6_EENS_8equal_toIS6_EENS4_INS_4pairIKS6_S7_EEEEED1B8ue170006Ev, symObjAddr: 0x84, symBinAddr: 0x1000019DC, symSize: 0x2C }
  - { offsetInCU: 0x1F201, offset: 0x1F201, size: 0x8, addend: 0x0, symName: __ZN3DieC1Eiiii, symObjAddr: 0xB0, symBinAddr: 0x100001A08, symSize: 0x4C }
  - { offsetInCU: 0x1F263, offset: 0x1F263, size: 0x8, addend: 0x0, symName: __ZN3DieD1Ev, symObjAddr: 0xFC, symBinAddr: 0x100001A54, symSize: 0x2C }
  - { offsetInCU: 0x1F28F, offset: 0x1F28F, size: 0x8, addend: 0x0, symName: __ZNSt3__113unordered_mapINS_12basic_stringIcNS_11char_traitsIcEENS_9allocatorIcEEEEP9InstanceFNS_4hashIS6_EENS_8equal_toIS6_EENS4_INS_4pairIKS6_S8_EEEEEC1B8ue170006Ev, symObjAddr: 0x128, symBinAddr: 0x100001A80, symSize: 0x2C }
  - { offsetInCU: 0x1F2B9, offset: 0x1F2B9, size: 0x8, addend: 0x0, symName: __ZNSt3__113unordered_mapINS_12basic_stringIcNS_11char_traitsIcEENS_9allocatorIcEEEEP9InstanceFNS_4hashIS6_EENS_8equal_toIS6_EENS4_INS_4pairIKS6_S8_EEEEED1B8ue170006Ev, symObjAddr: 0x154, symBinAddr: 0x100001AAC, symSize: 0x2C }
  - { offsetInCU: 0x1F2E3, offset: 0x1F2E3, size: 0x8, addend: 0x0, symName: __ZNSt3__113unordered_mapINS_12basic_stringIcNS_11char_traitsIcEENS_9allocatorIcEEEEP9InstanceGNS_4hashIS6_EENS_8equal_toIS6_EENS4_INS_4pairIKS6_S8_EEEEEC1B8ue170006Ev, symObjAddr: 0x180, symBinAddr: 0x100001AD8, symSize: 0x2C }
  - { offsetInCU: 0x1F30D, offset: 0x1F30D, size: 0x8, addend: 0x0, symName: __ZNSt3__113unordered_mapINS_12basic_stringIcNS_11char_traitsIcEENS_9allocatorIcEEEEP9InstanceGNS_4hashIS6_EENS_8equal_toIS6_EENS4_INS_4pairIKS6_S8_EEEEED1B8ue170006Ev, symObjAddr: 0x1AC, symBinAddr: 0x100001B04, symSize: 0x2C }
  - { offsetInCU: 0x1F337, offset: 0x1F337, size: 0x8, addend: 0x0, symName: __ZNSt3__113unordered_mapINS_12basic_stringIcNS_11char_traitsIcEENS_9allocatorIcEEEEP3NetNS_4hashIS6_EENS_8equal_toIS6_EENS4_INS_4pairIKS6_S8_EEEEEC1B8ue170006Ev, symObjAddr: 0x1D8, symBinAddr: 0x100001B30, symSize: 0x2C }
  - { offsetInCU: 0x1F361, offset: 0x1F361, size: 0x8, addend: 0x0, symName: __ZNSt3__113unordered_mapINS_12basic_stringIcNS_11char_traitsIcEENS_9allocatorIcEEEEP3NetNS_4hashIS6_EENS_8equal_toIS6_EENS4_INS_4pairIKS6_S8_EEEEED1B8ue170006Ev, symObjAddr: 0x204, symBinAddr: 0x100001B5C, symSize: 0x2C }
  - { offsetInCU: 0x1F38A, offset: 0x1F38A, size: 0x8, addend: 0x0, symName: __Z8openFileRKNSt3__112basic_stringIcNS_11char_traitsIcEENS_9allocatorIcEEEE, symObjAddr: 0x230, symBinAddr: 0x100001B88, symSize: 0x178 }
  - { offsetInCU: 0x1F4E0, offset: 0x1F4E0, size: 0x8, addend: 0x0, symName: __ZNSt3__114basic_ifstreamIcNS_11char_traitsIcEEEC1ERKNS_12basic_stringIcS2_NS_9allocatorIcEEEEj, symObjAddr: 0x3A8, symBinAddr: 0x100001D00, symSize: 0x17C }
  - { offsetInCU: 0x1F52A, offset: 0x1F52A, size: 0x8, addend: 0x0, symName: __ZNKSt3__114basic_ifstreamIcNS_11char_traitsIcEEE7is_openEv, symObjAddr: 0x524, symBinAddr: 0x100001E7C, symSize: 0x2C }
  - { offsetInCU: 0x1F557, offset: 0x1F557, size: 0x8, addend: 0x0, symName: __ZNSt3__114basic_ifstreamIcNS_11char_traitsIcEEED1Ev, symObjAddr: 0x55C, symBinAddr: 0x100001EB4, symSize: 0x70 }
  - { offsetInCU: 0x1F583, offset: 0x1F583, size: 0x8, addend: 0x0, symName: __Z9readLinesRNSt3__114basic_ifstreamIcNS_11char_traitsIcEEEE, symObjAddr: 0x5CC, symBinAddr: 0x100001F24, symSize: 0x1A1C }
  - { offsetInCU: 0x1FAC8, offset: 0x1FAC8, size: 0x8, addend: 0x0, symName: __ZNSt3__112basic_stringIcNS_11char_traitsIcEENS_9allocatorIcEEEC1B8ue170006Ev, symObjAddr: 0x1FE8, symBinAddr: 0x100003940, symSize: 0x2C }
  - { offsetInCU: 0x1FAF2, offset: 0x1FAF2, size: 0x8, addend: 0x0, symName: __ZNKSt3__19basic_iosIcNS_11char_traitsIcEEEcvPvB8ue170006Ev, symObjAddr: 0x2070, symBinAddr: 0x1000039C8, symSize: 0x4C }
  - { offsetInCU: 0x1FB68, offset: 0x1FB68, size: 0x8, addend: 0x0, symName: __ZNSt3__119basic_istringstreamIcNS_11char_traitsIcEENS_9allocatorIcEEEC1B8ue170006ERKNS_12basic_stringIcS2_S4_EEj, symObjAddr: 0x20BC, symBinAddr: 0x100003A14, symSize: 0x108 }
  - { offsetInCU: 0x1FBB0, offset: 0x1FBB0, size: 0x8, addend: 0x0, symName: __ZN3Die6updateEiiii, symObjAddr: 0x2598, symBinAddr: 0x100003EF0, symSize: 0x64 }
  - { offsetInCU: 0x1FC0E, offset: 0x1FC0E, size: 0x8, addend: 0x0, symName: __ZNSt3__119basic_istringstreamIcNS_11char_traitsIcEENS_9allocatorIcEEE3strB8ue170006ERKNS_12basic_stringIcS2_S4_EE, symObjAddr: 0x25FC, symBinAddr: 0x100003F54, symSize: 0x30 }
  - { offsetInCU: 0x1FC43, offset: 0x1FC43, size: 0x8, addend: 0x0, symName: __ZNSt3__19basic_iosIcNS_11char_traitsIcEEE5clearB8ue170006Ej, symObjAddr: 0x262C, symBinAddr: 0x100003F84, symSize: 0x2C }
  - { offsetInCU: 0x1FC78, offset: 0x1FC78, size: 0x8, addend: 0x0, symName: __ZN3PinC1ENSt3__112basic_stringIcNS0_11char_traitsIcEENS0_9allocatorIcEEEEii, symObjAddr: 0x2658, symBinAddr: 0x100003FB0, symSize: 0x44 }
  - { offsetInCU: 0x1FCCD, offset: 0x1FCCD, size: 0x8, addend: 0x0, symName: __ZN3Die8AddInputENSt3__112basic_stringIcNS0_11char_traitsIcEENS0_9allocatorIcEEEEP3Pin, symObjAddr: 0x269C, symBinAddr: 0x100003FF4, symSize: 0x44 }
  - { offsetInCU: 0x1FD15, offset: 0x1FD15, size: 0x8, addend: 0x0, symName: __ZNSt3__119basic_istringstreamIcNS_11char_traitsIcEENS_9allocatorIcEEED1Ev, symObjAddr: 0x26E0, symBinAddr: 0x100004038, symSize: 0x70 }
  - { offsetInCU: 0x1FD42, offset: 0x1FD42, size: 0x8, addend: 0x0, symName: __ZN3Die9AddOutputENSt3__112basic_stringIcNS0_11char_traitsIcEENS0_9allocatorIcEEEEP3Pin, symObjAddr: 0x2750, symBinAddr: 0x1000040A8, symSize: 0x44 }
  - { offsetInCU: 0x1FD85, offset: 0x1FD85, size: 0x8, addend: 0x0, symName: __ZN8FlipFlopC1ERNSt3__112basic_stringIcNS0_11char_traitsIcEENS0_9allocatorIcEEEEiiii, symObjAddr: 0x2794, symBinAddr: 0x1000040EC, symSize: 0x54 }
  - { offsetInCU: 0x1FDF5, offset: 0x1FDF5, size: 0x8, addend: 0x0, symName: __ZN8FlipFlop6AddPinENSt3__112basic_stringIcNS0_11char_traitsIcEENS0_9allocatorIcEEEEP3Pin, symObjAddr: 0x27E8, symBinAddr: 0x100004140, symSize: 0x44 }
  - { offsetInCU: 0x1FE38, offset: 0x1FE38, size: 0x8, addend: 0x0, symName: __ZNSt3__113unordered_mapINS_12basic_stringIcNS_11char_traitsIcEENS_9allocatorIcEEEE8FlipFlopNS_4hashIS6_EENS_8equal_toIS6_EENS4_INS_4pairIKS6_S7_EEEEEixERSD_, symObjAddr: 0x282C, symBinAddr: 0x100004184, symSize: 0x128 }
  - { offsetInCU: 0x1FEA2, offset: 0x1FEA2, size: 0x8, addend: 0x0, symName: __ZN8FlipFlopaSERKS_, symObjAddr: 0x2954, symBinAddr: 0x1000042AC, symSize: 0x60 }
  - { offsetInCU: 0x1FED3, offset: 0x1FED3, size: 0x8, addend: 0x0, symName: __ZN8FlipFlopD1Ev, symObjAddr: 0x29B4, symBinAddr: 0x10000430C, symSize: 0x2C }
  - { offsetInCU: 0x1FEFF, offset: 0x1FEFF, size: 0x8, addend: 0x0, symName: __ZN4GateC1ERNSt3__112basic_stringIcNS0_11char_traitsIcEENS0_9allocatorIcEEEEiii, symObjAddr: 0x29E0, symBinAddr: 0x100004338, symSize: 0x4C }
  - { offsetInCU: 0x1FF61, offset: 0x1FF61, size: 0x8, addend: 0x0, symName: __ZN4Gate6AddPinENSt3__112basic_stringIcNS0_11char_traitsIcEENS0_9allocatorIcEEEEP3Pin, symObjAddr: 0x2A2C, symBinAddr: 0x100004384, symSize: 0x44 }
  - { offsetInCU: 0x1FFA4, offset: 0x1FFA4, size: 0x8, addend: 0x0, symName: __ZNSt3__113unordered_mapINS_12basic_stringIcNS_11char_traitsIcEENS_9allocatorIcEEEE4GateNS_4hashIS6_EENS_8equal_toIS6_EENS4_INS_4pairIKS6_S7_EEEEEixERSD_, symObjAddr: 0x2A70, symBinAddr: 0x1000043C8, symSize: 0x128 }
  - { offsetInCU: 0x2000E, offset: 0x2000E, size: 0x8, addend: 0x0, symName: __ZN4GateaSERKS_, symObjAddr: 0x2B98, symBinAddr: 0x1000044F0, symSize: 0x5C }
  - { offsetInCU: 0x2003F, offset: 0x2003F, size: 0x8, addend: 0x0, symName: __ZN4GateD1Ev, symObjAddr: 0x2BF4, symBinAddr: 0x10000454C, symSize: 0x2C }
  - { offsetInCU: 0x2006B, offset: 0x2006B, size: 0x8, addend: 0x0, symName: __ZNSt3__113unordered_mapINS_12basic_stringIcNS_11char_traitsIcEENS_9allocatorIcEEEE8FlipFlopNS_4hashIS6_EENS_8equal_toIS6_EENS4_INS_4pairIKS6_S7_EEEEE4findB8ue170006ERSD_, symObjAddr: 0x2C50, symBinAddr: 0x1000045A8, symSize: 0x40 }
  - { offsetInCU: 0x200A0, offset: 0x200A0, size: 0x8, addend: 0x0, symName: __ZNSt3__113unordered_mapINS_12basic_stringIcNS_11char_traitsIcEENS_9allocatorIcEEEE8FlipFlopNS_4hashIS6_EENS_8equal_toIS6_EENS4_INS_4pairIKS6_S7_EEEEE3endB8ue170006Ev, symObjAddr: 0x2C90, symBinAddr: 0x1000045E8, symSize: 0x38 }
  - { offsetInCU: 0x200C6, offset: 0x200C6, size: 0x8, addend: 0x0, symName: __ZN9InstanceFC1ENSt3__112basic_stringIcNS0_11char_traitsIcEENS0_9allocatorIcEEEES6_ii, symObjAddr: 0x2CC8, symBinAddr: 0x100004620, symSize: 0x4C }
  - { offsetInCU: 0x2012E, offset: 0x2012E, size: 0x8, addend: 0x0, symName: __ZNSt3__113unordered_mapINS_12basic_stringIcNS_11char_traitsIcEENS_9allocatorIcEEEEP9InstanceFNS_4hashIS6_EENS_8equal_toIS6_EENS4_INS_4pairIKS6_S8_EEEEEixERSE_, symObjAddr: 0x2D14, symBinAddr: 0x10000466C, symSize: 0x128 }
  - { offsetInCU: 0x20193, offset: 0x20193, size: 0x8, addend: 0x0, symName: __ZN9InstanceGC1ENSt3__112basic_stringIcNS0_11char_traitsIcEENS0_9allocatorIcEEEES6_ii, symObjAddr: 0x2E3C, symBinAddr: 0x100004794, symSize: 0x4C }
  - { offsetInCU: 0x201FB, offset: 0x201FB, size: 0x8, addend: 0x0, symName: __ZNSt3__113unordered_mapINS_12basic_stringIcNS_11char_traitsIcEENS_9allocatorIcEEEEP9InstanceGNS_4hashIS6_EENS_8equal_toIS6_EENS4_INS_4pairIKS6_S8_EEEEEixERSE_, symObjAddr: 0x2E88, symBinAddr: 0x1000047E0, symSize: 0x128 }
  - { offsetInCU: 0x20260, offset: 0x20260, size: 0x8, addend: 0x0, symName: __ZN3NetC1ENSt3__112basic_stringIcNS0_11char_traitsIcEENS0_9allocatorIcEEEEi, symObjAddr: 0x2FB0, symBinAddr: 0x100004908, symSize: 0x3C }
  - { offsetInCU: 0x202DB, offset: 0x202DB, size: 0x8, addend: 0x0, symName: __ZNSt3__118basic_stringstreamIcNS_11char_traitsIcEENS_9allocatorIcEEEC1B8ue170006ERKNS_12basic_stringIcS2_S4_EEj, symObjAddr: 0x2FEC, symBinAddr: 0x100004944, symSize: 0x11C }
  - { offsetInCU: 0x20323, offset: 0x20323, size: 0x8, addend: 0x0, symName: __ZNSt3__113unordered_mapINS_12basic_stringIcNS_11char_traitsIcEENS_9allocatorIcEEEEP9InstanceFNS_4hashIS6_EENS_8equal_toIS6_EENS4_INS_4pairIKS6_S8_EEEEE4findB8ue170006ERSE_, symObjAddr: 0x336C, symBinAddr: 0x100004CC4, symSize: 0x40 }
  - { offsetInCU: 0x20358, offset: 0x20358, size: 0x8, addend: 0x0, symName: __ZNSt3__113unordered_mapINS_12basic_stringIcNS_11char_traitsIcEENS_9allocatorIcEEEEP9InstanceFNS_4hashIS6_EENS_8equal_toIS6_EENS4_INS_4pairIKS6_S8_EEEEE3endB8ue170006Ev, symObjAddr: 0x33AC, symBinAddr: 0x100004D04, symSize: 0x38 }
  - { offsetInCU: 0x2037E, offset: 0x2037E, size: 0x8, addend: 0x0, symName: __ZNSt3__113unordered_mapINS_12basic_stringIcNS_11char_traitsIcEENS_9allocatorIcEEEEP3PinNS_4hashIS6_EENS_8equal_toIS6_EENS4_INS_4pairIKS6_S8_EEEEEixERSE_, symObjAddr: 0x33E4, symBinAddr: 0x100004D3C, symSize: 0x128 }
  - { offsetInCU: 0x203E8, offset: 0x203E8, size: 0x8, addend: 0x0, symName: __ZNSt3__118basic_stringstreamIcNS_11char_traitsIcEENS_9allocatorIcEEED1Ev, symObjAddr: 0x350C, symBinAddr: 0x100004E64, symSize: 0x70 }
  - { offsetInCU: 0x20415, offset: 0x20415, size: 0x8, addend: 0x0, symName: __ZNSt3__113unordered_mapINS_12basic_stringIcNS_11char_traitsIcEENS_9allocatorIcEEEEP3PinNS_4hashIS6_EENS_8equal_toIS6_EENS4_INS_4pairIKS6_S8_EEEEE4findB8ue170006ERSE_, symObjAddr: 0x35AC, symBinAddr: 0x100004F04, symSize: 0x40 }
  - { offsetInCU: 0x2044A, offset: 0x2044A, size: 0x8, addend: 0x0, symName: __ZNSt3__113unordered_mapINS_12basic_stringIcNS_11char_traitsIcEENS_9allocatorIcEEEEP3PinNS_4hashIS6_EENS_8equal_toIS6_EENS4_INS_4pairIKS6_S8_EEEEE3endB8ue170006Ev, symObjAddr: 0x35EC, symBinAddr: 0x100004F44, symSize: 0x38 }
  - { offsetInCU: 0x20470, offset: 0x20470, size: 0x8, addend: 0x0, symName: __ZN3Net6AddPinENSt3__112basic_stringIcNS0_11char_traitsIcEENS0_9allocatorIcEEEEP3Pin, symObjAddr: 0x3624, symBinAddr: 0x100004F7C, symSize: 0xA0 }
  - { offsetInCU: 0x204B5, offset: 0x204B5, size: 0x8, addend: 0x0, symName: __ZNSt3__113unordered_mapINS_12basic_stringIcNS_11char_traitsIcEENS_9allocatorIcEEEEP3NetNS_4hashIS6_EENS_8equal_toIS6_EENS4_INS_4pairIKS6_S8_EEEEEixERSE_, symObjAddr: 0x36C4, symBinAddr: 0x10000501C, symSize: 0x128 }
  - { offsetInCU: 0x20519, offset: 0x20519, size: 0x8, addend: 0x0, symName: __Z9closeFileRNSt3__114basic_ifstreamIcNS_11char_traitsIcEEEE, symObjAddr: 0x37EC, symBinAddr: 0x100005144, symSize: 0x38 }
  - { offsetInCU: 0x20544, offset: 0x20544, size: 0x8, addend: 0x0, symName: __ZNSt3__114basic_ifstreamIcNS_11char_traitsIcEEE5closeEv, symObjAddr: 0x3824, symBinAddr: 0x10000517C, symSize: 0x58 }
  - { offsetInCU: 0x2056C, offset: 0x2056C, size: 0x8, addend: 0x0, symName: _main, symObjAddr: 0x387C, symBinAddr: 0x1000051D4, symSize: 0x4C0 }
  - { offsetInCU: 0x205AD, offset: 0x205AD, size: 0x8, addend: 0x0, symName: __ZNSt3__112basic_stringIcNS_11char_traitsIcEENS_9allocatorIcEEEC1B8ue170006ILi0EEEPKc, symObjAddr: 0x3D3C, symBinAddr: 0x100005694, symSize: 0x34 }
  - { offsetInCU: 0x205EC, offset: 0x205EC, size: 0x8, addend: 0x0, symName: __ZNSt3__113basic_ostreamIcNS_11char_traitsIcEEElsB8ue170006EPFRS3_S4_E, symObjAddr: 0x3DB8, symBinAddr: 0x100005710, symSize: 0x2C }
  - { offsetInCU: 0x20620, offset: 0x20620, size: 0x8, addend: 0x0, symName: __ZN3Pin5printEv, symObjAddr: 0x3E3C, symBinAddr: 0x100005794, symSize: 0x94 }
  - { offsetInCU: 0x20646, offset: 0x20646, size: 0x8, addend: 0x0, symName: __ZN8FlipFlop5printEv, symObjAddr: 0x3ED0, symBinAddr: 0x100005828, symSize: 0x1BC }
  - { offsetInCU: 0x20689, offset: 0x20689, size: 0x8, addend: 0x0, symName: __ZN9InstanceF5printEv, symObjAddr: 0x408C, symBinAddr: 0x1000059E4, symSize: 0x58 }
  - { offsetInCU: 0x206AF, offset: 0x206AF, size: 0x8, addend: 0x0, symName: __ZN3Net5printEv, symObjAddr: 0x40E4, symBinAddr: 0x100005A3C, symSize: 0xB4 }
  - { offsetInCU: 0x206F3, offset: 0x206F3, size: 0x8, addend: 0x0, symName: __ZN3DieC2Eiiii, symObjAddr: 0x4198, symBinAddr: 0x100005AF0, symSize: 0xC0 }
  - { offsetInCU: 0x20755, offset: 0x20755, size: 0x8, addend: 0x0, symName: __ZNSt3__113unordered_mapINS_12basic_stringIcNS_11char_traitsIcEENS_9allocatorIcEEEEP3PinNS_4hashIS6_EENS_8equal_toIS6_EENS4_INS_4pairIKS6_S8_EEEEEC1B8ue170006Ev, symObjAddr: 0x4258, symBinAddr: 0x100005BB0, symSize: 0x2C }
  - { offsetInCU: 0x2077F, offset: 0x2077F, size: 0x8, addend: 0x0, symName: __ZNSt3__113unordered_mapINS_12basic_stringIcNS_11char_traitsIcEENS_9allocatorIcEEEEP3PinNS_4hashIS6_EENS_8equal_toIS6_EENS4_INS_4pairIKS6_S8_EEEEED1B8ue170006Ev, symObjAddr: 0x4284, symBinAddr: 0x100005BDC, symSize: 0x2C }
  - { offsetInCU: 0x207A9, offset: 0x207A9, size: 0x8, addend: 0x0, symName: __ZNSt3__113unordered_mapINS_12basic_stringIcNS_11char_traitsIcEENS_9allocatorIcEEEEP3PinNS_4hashIS6_EENS_8equal_toIS6_EENS4_INS_4pairIKS6_S8_EEEEEC2B8ue170006Ev, symObjAddr: 0x42B0, symBinAddr: 0x100005C08, symSize: 0x2C }
  - { offsetInCU: 0x207D3, offset: 0x207D3, size: 0x8, addend: 0x0, symName: __ZNSt3__112__hash_tableINS_17__hash_value_typeINS_12basic_stringIcNS_11char_traitsIcEENS_9allocatorIcEEEEP3PinEENS_22__unordered_map_hasherIS7_SA_NS_4hashIS7_EENS_8equal_toIS7_EELb1EEENS_21__unordered_map_equalIS7_SA_SF_SD_Lb1EEENS5_ISA_EEEC1Ev, symObjAddr: 0x42DC, symBinAddr: 0x100005C34, symSize: 0x2C }
  - { offsetInCU: 0x207FF, offset: 0x207FF, size: 0x8, addend: 0x0, symName: __ZNSt3__112__hash_tableINS_17__hash_value_typeINS_12basic_stringIcNS_11char_traitsIcEENS_9allocatorIcEEEEP3PinEENS_22__unordered_map_hasherIS7_SA_NS_4hashIS7_EENS_8equal_toIS7_EELb1EEENS_21__unordered_map_equalIS7_SA_SF_SD_Lb1EEENS5_ISA_EEEC2Ev, symObjAddr: 0x4308, symBinAddr: 0x100005C60, symSize: 0xA4 }
  - { offsetInCU: 0x2082B, offset: 0x2082B, size: 0x8, addend: 0x0, symName: __ZNSt3__110unique_ptrIA_PNS_16__hash_node_baseIPNS_11__hash_nodeINS_17__hash_value_typeINS_12basic_stringIcNS_11char_traitsIcEENS_9allocatorIcEEEEP3PinEEPvEEEENS_25__bucket_list_deallocatorINS7_ISH_EEEEEC1B8ue170006ILb1EvEEv, symObjAddr: 0x43AC, symBinAddr: 0x100005D04, symSize: 0x2C }
  - { offsetInCU: 0x20860, offset: 0x20860, size: 0x8, addend: 0x0, symName: __ZNSt3__117__compressed_pairINS_16__hash_node_baseIPNS_11__hash_nodeINS_17__hash_value_typeINS_12basic_stringIcNS_11char_traitsIcEENS_9allocatorIcEEEEP3PinEEPvEEEENS7_ISE_EEEC1B8ue170006ILb1EvEEv, symObjAddr: 0x43D8, symBinAddr: 0x100005D30, symSize: 0x2C }
  - { offsetInCU: 0x2089F, offset: 0x2089F, size: 0x8, addend: 0x0, symName: __ZNSt3__117__compressed_pairImNS_22__unordered_map_hasherINS_12basic_stringIcNS_11char_traitsIcEENS_9allocatorIcEEEENS_17__hash_value_typeIS7_P3PinEENS_4hashIS7_EENS_8equal_toIS7_EELb1EEEEC1B8ue170006IiNS_18__default_init_tagEEEOT_OT0_, symObjAddr: 0x4404, symBinAddr: 0x100005D5C, symSize: 0x3C }
  - { offsetInCU: 0x208FC, offset: 0x208FC, size: 0x8, addend: 0x0, symName: __ZNSt3__117__compressed_pairIfNS_21__unordered_map_equalINS_12basic_stringIcNS_11char_traitsIcEENS_9allocatorIcEEEENS_17__hash_value_typeIS7_P3PinEENS_8equal_toIS7_EENS_4hashIS7_EELb1EEEEC1B8ue170006IfNS_18__default_init_tagEEEOT_OT0_, symObjAddr: 0x4440, symBinAddr: 0x100005D98, symSize: 0x3C }
  - { offsetInCU: 0x20954, offset: 0x20954, size: 0x8, addend: 0x0, symName: __ZNSt3__110unique_ptrIA_PNS_16__hash_node_baseIPNS_11__hash_nodeINS_17__hash_value_typeINS_12basic_stringIcNS_11char_traitsIcEENS_9allocatorIcEEEEP3PinEEPvEEEENS_25__bucket_list_deallocatorINS7_ISH_EEEEED1B8ue170006Ev, symObjAddr: 0x447C, symBinAddr: 0x100005DD4, symSize: 0x2C }
  - { offsetInCU: 0x2097E, offset: 0x2097E, size: 0x8, addend: 0x0, symName: __ZNSt3__110unique_ptrIA_PNS_16__hash_node_baseIPNS_11__hash_nodeINS_17__hash_value_typeINS_12basic_stringIcNS_11char_traitsIcEENS_9allocatorIcEEEEP3PinEEPvEEEENS_25__bucket_list_deallocatorINS7_ISH_EEEEEC2B8ue170006ILb1EvEEv, symObjAddr: 0x44A8, symBinAddr: 0x100005E00, symSize: 0x50 }
  - { offsetInCU: 0x209B8, offset: 0x209B8, size: 0x8, addend: 0x0, symName: __ZNSt3__117__compressed_pairIPPNS_16__hash_node_baseIPNS_11__hash_nodeINS_17__hash_value_typeINS_12basic_stringIcNS_11char_traitsIcEENS_9allocatorIcEEEEP3PinEEPvEEEENS_25__bucket_list_deallocatorINS7_ISH_EEEEEC1B8ue170006INS_16__value_init_tagESO_EEOT_OT0_, symObjAddr: 0x44F8, symBinAddr: 0x100005E50, symSize: 0x3C }
  - { offsetInCU: 0x20A10, offset: 0x20A10, size: 0x8, addend: 0x0, symName: __ZNSt3__117__compressed_pairIPPNS_16__hash_node_baseIPNS_11__hash_nodeINS_17__hash_value_typeINS_12basic_stringIcNS_11char_traitsIcEENS_9allocatorIcEEEEP3PinEEPvEEEENS_25__bucket_list_deallocatorINS7_ISH_EEEEEC2B8ue170006INS_16__value_init_tagESO_EEOT_OT0_, symObjAddr: 0x4534, symBinAddr: 0x100005E8C, symSize: 0x40 }
  - { offsetInCU: 0x20A68, offset: 0x20A68, size: 0x8, addend: 0x0, symName: __ZNSt3__122__compressed_pair_elemIPPNS_16__hash_node_baseIPNS_11__hash_nodeINS_17__hash_value_typeINS_12basic_stringIcNS_11char_traitsIcEENS_9allocatorIcEEEEP3PinEEPvEEEELi0ELb0EEC2B8ue170006ENS_16__value_init_tagE, symObjAddr: 0x4574, symBinAddr: 0x100005ECC, symSize: 0x18 }
  - { offsetInCU: 0x20A9D, offset: 0x20A9D, size: 0x8, addend: 0x0, symName: __ZNSt3__122__compressed_pair_elemINS_25__bucket_list_deallocatorINS_9allocatorIPNS_16__hash_node_baseIPNS_11__hash_nodeINS_17__hash_value_typeINS_12basic_stringIcNS_11char_traitsIcEENS2_IcEEEEP3PinEEPvEEEEEEEELi1ELb0EEC2B8ue170006ENS_16__value_init_tagE, symObjAddr: 0x458C, symBinAddr: 0x100005EE4, symSize: 0x2C }
  - { offsetInCU: 0x20AD2, offset: 0x20AD2, size: 0x8, addend: 0x0, symName: __ZNSt3__125__bucket_list_deallocatorINS_9allocatorIPNS_16__hash_node_baseIPNS_11__hash_nodeINS_17__hash_value_typeINS_12basic_stringIcNS_11char_traitsIcEENS1_IcEEEEP3PinEEPvEEEEEEEC1B8ue170006Ev, symObjAddr: 0x45B8, symBinAddr: 0x100005F10, symSize: 0x2C }
  - { offsetInCU: 0x20AFC, offset: 0x20AFC, size: 0x8, addend: 0x0, symName: __ZNSt3__125__bucket_list_deallocatorINS_9allocatorIPNS_16__hash_node_baseIPNS_11__hash_nodeINS_17__hash_value_typeINS_12basic_stringIcNS_11char_traitsIcEENS1_IcEEEEP3PinEEPvEEEEEEEC2B8ue170006Ev, symObjAddr: 0x45E4, symBinAddr: 0x100005F3C, symSize: 0x38 }
  - { offsetInCU: 0x20B26, offset: 0x20B26, size: 0x8, addend: 0x0, symName: __ZNSt3__117__compressed_pairImNS_9allocatorIPNS_16__hash_node_baseIPNS_11__hash_nodeINS_17__hash_value_typeINS_12basic_stringIcNS_11char_traitsIcEENS1_IcEEEEP3PinEEPvEEEEEEEC1B8ue170006IiNS_18__default_init_tagEEEOT_OT0_, symObjAddr: 0x461C, symBinAddr: 0x100005F74, symSize: 0x3C }
  - { offsetInCU: 0x20B7E, offset: 0x20B7E, size: 0x8, addend: 0x0, symName: __ZNSt3__117__compressed_pairImNS_9allocatorIPNS_16__hash_node_baseIPNS_11__hash_nodeINS_17__hash_value_typeINS_12basic_stringIcNS_11char_traitsIcEENS1_IcEEEEP3PinEEPvEEEEEEEC2B8ue170006IiNS_18__default_init_tagEEEOT_OT0_, symObjAddr: 0x4658, symBinAddr: 0x100005FB0, symSize: 0x40 }
  - { offsetInCU: 0x20BD6, offset: 0x20BD6, size: 0x8, addend: 0x0, symName: __ZNSt3__122__compressed_pair_elemImLi0ELb0EEC2B8ue170006IivEEOT_, symObjAddr: 0x4698, symBinAddr: 0x100005FF0, symSize: 0x24 }
  - { offsetInCU: 0x20C18, offset: 0x20C18, size: 0x8, addend: 0x0, symName: __ZNSt3__122__compressed_pair_elemINS_9allocatorIPNS_16__hash_node_baseIPNS_11__hash_nodeINS_17__hash_value_typeINS_12basic_stringIcNS_11char_traitsIcEENS1_IcEEEEP3PinEEPvEEEEEELi1ELb1EEC2B8ue170006ENS_18__default_init_tagE, symObjAddr: 0x46BC, symBinAddr: 0x100006014, symSize: 0x2C }
  - { offsetInCU: 0x20C4D, offset: 0x20C4D, size: 0x8, addend: 0x0, symName: __ZNSt3__19allocatorIPNS_16__hash_node_baseIPNS_11__hash_nodeINS_17__hash_value_typeINS_12basic_stringIcNS_11char_traitsIcEENS0_IcEEEEP3PinEEPvEEEEEC2B8ue170006Ev, symObjAddr: 0x46E8, symBinAddr: 0x100006040, symSize: 0x2C }
  - { offsetInCU: 0x20C77, offset: 0x20C77, size: 0x8, addend: 0x0, symName: __ZNSt3__116__non_trivial_ifILb1ENS_9allocatorIPNS_16__hash_node_baseIPNS_11__hash_nodeINS_17__hash_value_typeINS_12basic_stringIcNS_11char_traitsIcEENS1_IcEEEEP3PinEEPvEEEEEEEC2B8ue170006Ev, symObjAddr: 0x4714, symBinAddr: 0x10000606C, symSize: 0x14 }
  - { offsetInCU: 0x20CA1, offset: 0x20CA1, size: 0x8, addend: 0x0, symName: __ZNSt3__117__compressed_pairINS_16__hash_node_baseIPNS_11__hash_nodeINS_17__hash_value_typeINS_12basic_stringIcNS_11char_traitsIcEENS_9allocatorIcEEEEP3PinEEPvEEEENS7_ISE_EEEC2B8ue170006ILb1EvEEv, symObjAddr: 0x4728, symBinAddr: 0x100006080, symSize: 0x34 }
  - { offsetInCU: 0x20CD6, offset: 0x20CD6, size: 0x8, addend: 0x0, symName: __ZNSt3__122__compressed_pair_elemINS_16__hash_node_baseIPNS_11__hash_nodeINS_17__hash_value_typeINS_12basic_stringIcNS_11char_traitsIcEENS_9allocatorIcEEEEP3PinEEPvEEEELi0ELb0EEC2B8ue170006ENS_16__value_init_tagE, symObjAddr: 0x475C, symBinAddr: 0x1000060B4, symSize: 0x2C }
  - { offsetInCU: 0x20D0B, offset: 0x20D0B, size: 0x8, addend: 0x0, symName: __ZNSt3__122__compressed_pair_elemINS_9allocatorINS_11__hash_nodeINS_17__hash_value_typeINS_12basic_stringIcNS_11char_traitsIcEENS1_IcEEEEP3PinEEPvEEEELi1ELb1EEC2B8ue170006ENS_16__value_init_tagE, symObjAddr: 0x4788, symBinAddr: 0x1000060E0, symSize: 0x2C }
  - { offsetInCU: 0x20D40, offset: 0x20D40, size: 0x8, addend: 0x0, symName: __ZNSt3__116__hash_node_baseIPNS_11__hash_nodeINS_17__hash_value_typeINS_12basic_stringIcNS_11char_traitsIcEENS_9allocatorIcEEEEP3PinEEPvEEEC1B8ue170006Ev, symObjAddr: 0x47B4, symBinAddr: 0x10000610C, symSize: 0x2C }
  - { offsetInCU: 0x20D6A, offset: 0x20D6A, size: 0x8, addend: 0x0, symName: __ZNSt3__116__hash_node_baseIPNS_11__hash_nodeINS_17__hash_value_typeINS_12basic_stringIcNS_11char_traitsIcEENS_9allocatorIcEEEEP3PinEEPvEEEC2B8ue170006Ev, symObjAddr: 0x47E0, symBinAddr: 0x100006138, symSize: 0x18 }
  - { offsetInCU: 0x20D94, offset: 0x20D94, size: 0x8, addend: 0x0, symName: __ZNSt3__19allocatorINS_11__hash_nodeINS_17__hash_value_typeINS_12basic_stringIcNS_11char_traitsIcEENS0_IcEEEEP3PinEEPvEEEC2B8ue170006Ev, symObjAddr: 0x47F8, symBinAddr: 0x100006150, symSize: 0x2C }
  - { offsetInCU: 0x20DBE, offset: 0x20DBE, size: 0x8, addend: 0x0, symName: __ZNSt3__116__non_trivial_ifILb1ENS_9allocatorINS_11__hash_nodeINS_17__hash_value_typeINS_12basic_stringIcNS_11char_traitsIcEENS1_IcEEEEP3PinEEPvEEEEEC2B8ue170006Ev, symObjAddr: 0x4824, symBinAddr: 0x10000617C, symSize: 0x14 }
  - { offsetInCU: 0x20DE8, offset: 0x20DE8, size: 0x8, addend: 0x0, symName: __ZNSt3__117__compressed_pairImNS_22__unordered_map_hasherINS_12basic_stringIcNS_11char_traitsIcEENS_9allocatorIcEEEENS_17__hash_value_typeIS7_P3PinEENS_4hashIS7_EENS_8equal_toIS7_EELb1EEEEC2B8ue170006IiNS_18__default_init_tagEEEOT_OT0_, symObjAddr: 0x4838, symBinAddr: 0x100006190, symSize: 0x40 }
  - { offsetInCU: 0x20E40, offset: 0x20E40, size: 0x8, addend: 0x0, symName: __ZNSt3__122__compressed_pair_elemINS_22__unordered_map_hasherINS_12basic_stringIcNS_11char_traitsIcEENS_9allocatorIcEEEENS_17__hash_value_typeIS7_P3PinEENS_4hashIS7_EENS_8equal_toIS7_EELb1EEELi1ELb1EEC2B8ue170006ENS_18__default_init_tagE, symObjAddr: 0x4878, symBinAddr: 0x1000061D0, symSize: 0x2C }
  - { offsetInCU: 0x20E75, offset: 0x20E75, size: 0x8, addend: 0x0, symName: __ZNSt3__122__unordered_map_hasherINS_12basic_stringIcNS_11char_traitsIcEENS_9allocatorIcEEEENS_17__hash_value_typeIS6_P3PinEENS_4hashIS6_EENS_8equal_toIS6_EELb1EEC2B8ue170006Ev, symObjAddr: 0x48A4, symBinAddr: 0x1000061FC, symSize: 0x14 }
  - { offsetInCU: 0x20E9F, offset: 0x20E9F, size: 0x8, addend: 0x0, symName: __ZNSt3__117__compressed_pairIfNS_21__unordered_map_equalINS_12basic_stringIcNS_11char_traitsIcEENS_9allocatorIcEEEENS_17__hash_value_typeIS7_P3PinEENS_8equal_toIS7_EENS_4hashIS7_EELb1EEEEC2B8ue170006IfNS_18__default_init_tagEEEOT_OT0_, symObjAddr: 0x48B8, symBinAddr: 0x100006210, symSize: 0x40 }
  - { offsetInCU: 0x20EF7, offset: 0x20EF7, size: 0x8, addend: 0x0, symName: __ZNSt3__122__compressed_pair_elemIfLi0ELb0EEC2B8ue170006IfvEEOT_, symObjAddr: 0x48F8, symBinAddr: 0x100006250, symSize: 0x24 }
  - { offsetInCU: 0x20F39, offset: 0x20F39, size: 0x8, addend: 0x0, symName: __ZNSt3__122__compressed_pair_elemINS_21__unordered_map_equalINS_12basic_stringIcNS_11char_traitsIcEENS_9allocatorIcEEEENS_17__hash_value_typeIS7_P3PinEENS_8equal_toIS7_EENS_4hashIS7_EELb1EEELi1ELb1EEC2B8ue170006ENS_18__default_init_tagE, symObjAddr: 0x491C, symBinAddr: 0x100006274, symSize: 0x2C }
  - { offsetInCU: 0x20F6E, offset: 0x20F6E, size: 0x8, addend: 0x0, symName: __ZNSt3__121__unordered_map_equalINS_12basic_stringIcNS_11char_traitsIcEENS_9allocatorIcEEEENS_17__hash_value_typeIS6_P3PinEENS_8equal_toIS6_EENS_4hashIS6_EELb1EEC2B8ue170006Ev, symObjAddr: 0x4948, symBinAddr: 0x1000062A0, symSize: 0x14 }
  - { offsetInCU: 0x20F98, offset: 0x20F98, size: 0x8, addend: 0x0, symName: __ZNSt3__110unique_ptrIA_PNS_16__hash_node_baseIPNS_11__hash_nodeINS_17__hash_value_typeINS_12basic_stringIcNS_11char_traitsIcEENS_9allocatorIcEEEEP3PinEEPvEEEENS_25__bucket_list_deallocatorINS7_ISH_EEEEED2B8ue170006Ev, symObjAddr: 0x495C, symBinAddr: 0x1000062B4, symSize: 0x30 }
  - { offsetInCU: 0x20FC2, offset: 0x20FC2, size: 0x8, addend: 0x0, symName: __ZNSt3__110unique_ptrIA_PNS_16__hash_node_baseIPNS_11__hash_nodeINS_17__hash_value_typeINS_12basic_stringIcNS_11char_traitsIcEENS_9allocatorIcEEEEP3PinEEPvEEEENS_25__bucket_list_deallocatorINS7_ISH_EEEEE5resetB8ue170006EDn, symObjAddr: 0x498C, symBinAddr: 0x1000062E4, symSize: 0x6C }
  - { offsetInCU: 0x21003, offset: 0x21003, size: 0x8, addend: 0x0, symName: __ZNSt3__117__compressed_pairIPPNS_16__hash_node_baseIPNS_11__hash_nodeINS_17__hash_value_typeINS_12basic_stringIcNS_11char_traitsIcEENS_9allocatorIcEEEEP3PinEEPvEEEENS_25__bucket_list_deallocatorINS7_ISH_EEEEE5firstB8ue170006Ev, symObjAddr: 0x49F8, symBinAddr: 0x100006350, symSize: 0x24 }
  - { offsetInCU: 0x21029, offset: 0x21029, size: 0x8, addend: 0x0, symName: __ZNSt3__117__compressed_pairIPPNS_16__hash_node_baseIPNS_11__hash_nodeINS_17__hash_value_typeINS_12basic_stringIcNS_11char_traitsIcEENS_9allocatorIcEEEEP3PinEEPvEEEENS_25__bucket_list_deallocatorINS7_ISH_EEEEE6secondB8ue170006Ev, symObjAddr: 0x4A1C, symBinAddr: 0x100006374, symSize: 0x28 }
  - { offsetInCU: 0x2104F, offset: 0x2104F, size: 0x8, addend: 0x0, symName: __ZNSt3__125__bucket_list_deallocatorINS_9allocatorIPNS_16__hash_node_baseIPNS_11__hash_nodeINS_17__hash_value_typeINS_12basic_stringIcNS_11char_traitsIcEENS1_IcEEEEP3PinEEPvEEEEEEEclB8ue170006EPSH_, symObjAddr: 0x4A44, symBinAddr: 0x10000639C, symSize: 0x58 }
  - { offsetInCU: 0x21084, offset: 0x21084, size: 0x8, addend: 0x0, symName: __ZNSt3__122__compressed_pair_elemIPPNS_16__hash_node_baseIPNS_11__hash_nodeINS_17__hash_value_typeINS_12basic_stringIcNS_11char_traitsIcEENS_9allocatorIcEEEEP3PinEEPvEEEELi0ELb0EE5__getB8ue170006Ev, symObjAddr: 0x4A9C, symBinAddr: 0x1000063F4, symSize: 0x14 }
  - { offsetInCU: 0x210AA, offset: 0x210AA, size: 0x8, addend: 0x0, symName: __ZNSt3__122__compressed_pair_elemINS_25__bucket_list_deallocatorINS_9allocatorIPNS_16__hash_node_baseIPNS_11__hash_nodeINS_17__hash_value_typeINS_12basic_stringIcNS_11char_traitsIcEENS2_IcEEEEP3PinEEPvEEEEEEEELi1ELb0EE5__getB8ue170006Ev, symObjAddr: 0x4AB0, symBinAddr: 0x100006408, symSize: 0x14 }
  - { offsetInCU: 0x210D0, offset: 0x210D0, size: 0x8, addend: 0x0, symName: __ZNSt3__116allocator_traitsINS_9allocatorIPNS_16__hash_node_baseIPNS_11__hash_nodeINS_17__hash_value_typeINS_12basic_stringIcNS_11char_traitsIcEENS1_IcEEEEP3PinEEPvEEEEEEE10deallocateB8ue170006ERSI_PSH_m, symObjAddr: 0x4AC4, symBinAddr: 0x10000641C, symSize: 0x34 }
  - { offsetInCU: 0x21112, offset: 0x21112, size: 0x8, addend: 0x0, symName: __ZNSt3__125__bucket_list_deallocatorINS_9allocatorIPNS_16__hash_node_baseIPNS_11__hash_nodeINS_17__hash_value_typeINS_12basic_stringIcNS_11char_traitsIcEENS1_IcEEEEP3PinEEPvEEEEEEE7__allocB8ue170006Ev, symObjAddr: 0x4AF8, symBinAddr: 0x100006450, symSize: 0x24 }
  - { offsetInCU: 0x21138, offset: 0x21138, size: 0x8, addend: 0x0, symName: __ZNSt3__125__bucket_list_deallocatorINS_9allocatorIPNS_16__hash_node_baseIPNS_11__hash_nodeINS_17__hash_value_typeINS_12basic_stringIcNS_11char_traitsIcEENS1_IcEEEEP3PinEEPvEEEEEEE4sizeB8ue170006Ev, symObjAddr: 0x4B1C, symBinAddr: 0x100006474, symSize: 0x24 }
  - { offsetInCU: 0x2115E, offset: 0x2115E, size: 0x8, addend: 0x0, symName: __ZNSt3__19allocatorIPNS_16__hash_node_baseIPNS_11__hash_nodeINS_17__hash_value_typeINS_12basic_stringIcNS_11char_traitsIcEENS0_IcEEEEP3PinEEPvEEEEE10deallocateB8ue170006EPSG_m, symObjAddr: 0x4B40, symBinAddr: 0x100006498, symSize: 0x70 }
  - { offsetInCU: 0x211A0, offset: 0x211A0, size: 0x8, addend: 0x0, symName: __ZNSt3__117__compressed_pairImNS_9allocatorIPNS_16__hash_node_baseIPNS_11__hash_nodeINS_17__hash_value_typeINS_12basic_stringIcNS_11char_traitsIcEENS1_IcEEEEP3PinEEPvEEEEEEE6secondB8ue170006Ev, symObjAddr: 0x4C38, symBinAddr: 0x100006590, symSize: 0x24 }
  - { offsetInCU: 0x211C6, offset: 0x211C6, size: 0x8, addend: 0x0, symName: __ZNSt3__122__compressed_pair_elemINS_9allocatorIPNS_16__hash_node_baseIPNS_11__hash_nodeINS_17__hash_value_typeINS_12basic_stringIcNS_11char_traitsIcEENS1_IcEEEEP3PinEEPvEEEEEELi1ELb1EE5__getB8ue170006Ev, symObjAddr: 0x4C5C, symBinAddr: 0x1000065B4, symSize: 0x14 }
  - { offsetInCU: 0x211EC, offset: 0x211EC, size: 0x8, addend: 0x0, symName: __ZNSt3__117__compressed_pairImNS_9allocatorIPNS_16__hash_node_baseIPNS_11__hash_nodeINS_17__hash_value_typeINS_12basic_stringIcNS_11char_traitsIcEENS1_IcEEEEP3PinEEPvEEEEEEE5firstB8ue170006Ev, symObjAddr: 0x4C70, symBinAddr: 0x1000065C8, symSize: 0x24 }
  - { offsetInCU: 0x21212, offset: 0x21212, size: 0x8, addend: 0x0, symName: __ZNSt3__122__compressed_pair_elemImLi0ELb0EE5__getB8ue170006Ev, symObjAddr: 0x4C94, symBinAddr: 0x1000065EC, symSize: 0x14 }
  - { offsetInCU: 0x21238, offset: 0x21238, size: 0x8, addend: 0x0, symName: __ZNSt3__113unordered_mapINS_12basic_stringIcNS_11char_traitsIcEENS_9allocatorIcEEEEP3PinNS_4hashIS6_EENS_8equal_toIS6_EENS4_INS_4pairIKS6_S8_EEEEED2B8ue170006Ev, symObjAddr: 0x4CA8, symBinAddr: 0x100006600, symSize: 0x2C }
  - { offsetInCU: 0x21262, offset: 0x21262, size: 0x8, addend: 0x0, symName: __ZNSt3__112__hash_tableINS_17__hash_value_typeINS_12basic_stringIcNS_11char_traitsIcEENS_9allocatorIcEEEEP3PinEENS_22__unordered_map_hasherIS7_SA_NS_4hashIS7_EENS_8equal_toIS7_EELb1EEENS_21__unordered_map_equalIS7_SA_SF_SD_Lb1EEENS5_ISA_EEED1Ev, symObjAddr: 0x4CD4, symBinAddr: 0x10000662C, symSize: 0x2C }
  - { offsetInCU: 0x2128E, offset: 0x2128E, size: 0x8, addend: 0x0, symName: __ZNSt3__112__hash_tableINS_17__hash_value_typeINS_12basic_stringIcNS_11char_traitsIcEENS_9allocatorIcEEEEP3PinEENS_22__unordered_map_hasherIS7_SA_NS_4hashIS7_EENS_8equal_toIS7_EELb1EEENS_21__unordered_map_equalIS7_SA_SF_SD_Lb1EEENS5_ISA_EEED2Ev, symObjAddr: 0x4D00, symBinAddr: 0x100006658, symSize: 0x48 }
  - { offsetInCU: 0x212BA, offset: 0x212BA, size: 0x8, addend: 0x0, symName: __ZNSt3__112__hash_tableINS_17__hash_value_typeINS_12basic_stringIcNS_11char_traitsIcEENS_9allocatorIcEEEEP3PinEENS_22__unordered_map_hasherIS7_SA_NS_4hashIS7_EENS_8equal_toIS7_EELb1EEENS_21__unordered_map_equalIS7_SA_SF_SD_Lb1EEENS5_ISA_EEE17__deallocate_nodeEPNS_16__hash_node_baseIPNS_11__hash_nodeISA_PvEEEE, symObjAddr: 0x4D48, symBinAddr: 0x1000066A0, symSize: 0xBC }
  - { offsetInCU: 0x21324, offset: 0x21324, size: 0x8, addend: 0x0, symName: __ZNSt3__117__compressed_pairINS_16__hash_node_baseIPNS_11__hash_nodeINS_17__hash_value_typeINS_12basic_stringIcNS_11char_traitsIcEENS_9allocatorIcEEEEP3PinEEPvEEEENS7_ISE_EEE5firstB8ue170006Ev, symObjAddr: 0x4E04, symBinAddr: 0x10000675C, symSize: 0x24 }
  - { offsetInCU: 0x2134A, offset: 0x2134A, size: 0x8, addend: 0x0, symName: __ZNSt3__112__hash_tableINS_17__hash_value_typeINS_12basic_stringIcNS_11char_traitsIcEENS_9allocatorIcEEEEP3PinEENS_22__unordered_map_hasherIS7_SA_NS_4hashIS7_EENS_8equal_toIS7_EELb1EEENS_21__unordered_map_equalIS7_SA_SF_SD_Lb1EEENS5_ISA_EEE12__node_allocB8ue170006Ev, symObjAddr: 0x4E28, symBinAddr: 0x100006780, symSize: 0x28 }
  - { offsetInCU: 0x21370, offset: 0x21370, size: 0x8, addend: 0x0, symName: __ZNSt3__116__hash_node_baseIPNS_11__hash_nodeINS_17__hash_value_typeINS_12basic_stringIcNS_11char_traitsIcEENS_9allocatorIcEEEEP3PinEEPvEEE8__upcastB8ue170006Ev, symObjAddr: 0x4E50, symBinAddr: 0x1000067A8, symSize: 0x24 }
  - { offsetInCU: 0x21396, offset: 0x21396, size: 0x8, addend: 0x0, symName: __ZNSt3__116allocator_traitsINS_9allocatorINS_11__hash_nodeINS_17__hash_value_typeINS_12basic_stringIcNS_11char_traitsIcEENS1_IcEEEEP3PinEEPvEEEEE7destroyB8ue170006INS_4pairIKS8_SA_EEvvEEvRSE_PT_, symObjAddr: 0x4E74, symBinAddr: 0x1000067CC, symSize: 0x28 }
  - { offsetInCU: 0x213D1, offset: 0x213D1, size: 0x8, addend: 0x0, symName: __ZNSt3__122__hash_key_value_typesINS_17__hash_value_typeINS_12basic_stringIcNS_11char_traitsIcEENS_9allocatorIcEEEEP3PinEEE9__get_ptrB8ue170006ERSA_, symObjAddr: 0x4E9C, symBinAddr: 0x1000067F4, symSize: 0x24 }
  - { offsetInCU: 0x213F4, offset: 0x213F4, size: 0x8, addend: 0x0, symName: __ZNSt3__116allocator_traitsINS_9allocatorINS_11__hash_nodeINS_17__hash_value_typeINS_12basic_stringIcNS_11char_traitsIcEENS1_IcEEEEP3PinEEPvEEEEE10deallocateB8ue170006ERSE_PSD_m, symObjAddr: 0x4EC0, symBinAddr: 0x100006818, symSize: 0x34 }
  - { offsetInCU: 0x21436, offset: 0x21436, size: 0x8, addend: 0x0, symName: __ZNSt3__117__compressed_pairINS_16__hash_node_baseIPNS_11__hash_nodeINS_17__hash_value_typeINS_12basic_stringIcNS_11char_traitsIcEENS_9allocatorIcEEEEP3PinEEPvEEEENS7_ISE_EEE6secondB8ue170006Ev, symObjAddr: 0x4EF4, symBinAddr: 0x10000684C, symSize: 0x24 }
  - { offsetInCU: 0x2145C, offset: 0x2145C, size: 0x8, addend: 0x0, symName: __ZNSt3__122__compressed_pair_elemINS_9allocatorINS_11__hash_nodeINS_17__hash_value_typeINS_12basic_stringIcNS_11char_traitsIcEENS1_IcEEEEP3PinEEPvEEEELi1ELb1EE5__getB8ue170006Ev, symObjAddr: 0x4F18, symBinAddr: 0x100006870, symSize: 0x14 }
  - { offsetInCU: 0x21482, offset: 0x21482, size: 0x8, addend: 0x0, symName: __ZNSt3__114pointer_traitsIPNS_16__hash_node_baseIPNS_11__hash_nodeINS_17__hash_value_typeINS_12basic_stringIcNS_11char_traitsIcEENS_9allocatorIcEEEEP3PinEEPvEEEEE10pointer_toB8ue170006ERSG_, symObjAddr: 0x4F2C, symBinAddr: 0x100006884, symSize: 0x14 }
  - { offsetInCU: 0x214A5, offset: 0x214A5, size: 0x8, addend: 0x0, symName: __ZNSt3__14pairIKNS_12basic_stringIcNS_11char_traitsIcEENS_9allocatorIcEEEEP3PinED1Ev, symObjAddr: 0x4F40, symBinAddr: 0x100006898, symSize: 0x2C }
  - { offsetInCU: 0x214D1, offset: 0x214D1, size: 0x8, addend: 0x0, symName: __ZNSt3__14pairIKNS_12basic_stringIcNS_11char_traitsIcEENS_9allocatorIcEEEEP3PinED2Ev, symObjAddr: 0x4F6C, symBinAddr: 0x1000068C4, symSize: 0x2C }
  - { offsetInCU: 0x214FD, offset: 0x214FD, size: 0x8, addend: 0x0, symName: __ZNSt3__117__hash_value_typeINS_12basic_stringIcNS_11char_traitsIcEENS_9allocatorIcEEEEP3PinE11__get_valueB8ue170006Ev, symObjAddr: 0x4F98, symBinAddr: 0x1000068F0, symSize: 0x14 }
  - { offsetInCU: 0x21523, offset: 0x21523, size: 0x8, addend: 0x0, symName: __ZNSt3__19allocatorINS_11__hash_nodeINS_17__hash_value_typeINS_12basic_stringIcNS_11char_traitsIcEENS0_IcEEEEP3PinEEPvEEE10deallocateB8ue170006EPSC_m, symObjAddr: 0x4FAC, symBinAddr: 0x100006904, symSize: 0x74 }
  - { offsetInCU: 0x21565, offset: 0x21565, size: 0x8, addend: 0x0, symName: __ZNSt3__122__compressed_pair_elemINS_16__hash_node_baseIPNS_11__hash_nodeINS_17__hash_value_typeINS_12basic_stringIcNS_11char_traitsIcEENS_9allocatorIcEEEEP3PinEEPvEEEELi0ELb0EE5__getB8ue170006Ev, symObjAddr: 0x5020, symBinAddr: 0x100006978, symSize: 0x14 }
  - { offsetInCU: 0x2158B, offset: 0x2158B, size: 0x8, addend: 0x0, symName: __ZN3DieD2Ev, symObjAddr: 0x5034, symBinAddr: 0x10000698C, symSize: 0x6C }
  - { offsetInCU: 0x215B7, offset: 0x215B7, size: 0x8, addend: 0x0, symName: __ZNSt3__114basic_ifstreamIcNS_11char_traitsIcEEED2Ev, symObjAddr: 0x50A0, symBinAddr: 0x1000069F8, symSize: 0x9C }
  - { offsetInCU: 0x215F1, offset: 0x215F1, size: 0x8, addend: 0x0, symName: __ZTv0_n24_NSt3__114basic_ifstreamIcNS_11char_traitsIcEEED1Ev, symObjAddr: 0x513C, symBinAddr: 0x100006A94, symSize: 0x28 }
  - { offsetInCU: 0x21608, offset: 0x21608, size: 0x8, addend: 0x0, symName: __ZN3PinC2ENSt3__112basic_stringIcNS0_11char_traitsIcEENS0_9allocatorIcEEEEii, symObjAddr: 0x5164, symBinAddr: 0x100006ABC, symSize: 0x88 }
  - { offsetInCU: 0x2165D, offset: 0x2165D, size: 0x8, addend: 0x0, symName: __ZNSt3__119basic_istringstreamIcNS_11char_traitsIcEENS_9allocatorIcEEED2Ev, symObjAddr: 0x51EC, symBinAddr: 0x100006B44, symSize: 0x9C }
  - { offsetInCU: 0x21697, offset: 0x21697, size: 0x8, addend: 0x0, symName: __ZTv0_n24_NSt3__119basic_istringstreamIcNS_11char_traitsIcEENS_9allocatorIcEEED1Ev, symObjAddr: 0x5288, symBinAddr: 0x100006BE0, symSize: 0x28 }
  - { offsetInCU: 0x216B3, offset: 0x216B3, size: 0x8, addend: 0x0, symName: __ZNSt3__115basic_stringbufIcNS_11char_traitsIcEENS_9allocatorIcEEED1Ev, symObjAddr: 0x52B0, symBinAddr: 0x100006C08, symSize: 0x2C }
  - { offsetInCU: 0x216E0, offset: 0x216E0, size: 0x8, addend: 0x0, symName: __ZNSt3__115basic_stringbufIcNS_11char_traitsIcEENS_9allocatorIcEEED2Ev, symObjAddr: 0x52DC, symBinAddr: 0x100006C34, symSize: 0x78 }
  - { offsetInCU: 0x2170D, offset: 0x2170D, size: 0x8, addend: 0x0, symName: __ZN8FlipFlopC2ERNSt3__112basic_stringIcNS0_11char_traitsIcEENS0_9allocatorIcEEEEiiii, symObjAddr: 0x5354, symBinAddr: 0x100006CAC, symSize: 0xA8 }
  - { offsetInCU: 0x2177D, offset: 0x2177D, size: 0x8, addend: 0x0, symName: __ZNSt3__113unordered_mapINS_12basic_stringIcNS_11char_traitsIcEENS_9allocatorIcEEEEP3PinNS_4hashIS6_EENS_8equal_toIS6_EENS4_INS_4pairIKS6_S8_EEEEEaSB8ue170006ERKSH_, symObjAddr: 0x53FC, symBinAddr: 0x100006D54, symSize: 0xC4 }
  - { offsetInCU: 0x217B2, offset: 0x217B2, size: 0x8, addend: 0x0, symName: __ZNSt3__112__hash_tableINS_17__hash_value_typeINS_12basic_stringIcNS_11char_traitsIcEENS_9allocatorIcEEEEP3PinEENS_22__unordered_map_hasherIS7_SA_NS_4hashIS7_EENS_8equal_toIS7_EELb1EEENS_21__unordered_map_equalIS7_SA_SF_SD_Lb1EEENS5_ISA_EEE5clearEv, symObjAddr: 0x54C0, symBinAddr: 0x100006E18, symSize: 0xF0 }
  - { offsetInCU: 0x2180D, offset: 0x2180D, size: 0x8, addend: 0x0, symName: __ZNKSt3__112__hash_tableINS_17__hash_value_typeINS_12basic_stringIcNS_11char_traitsIcEENS_9allocatorIcEEEEP3PinEENS_22__unordered_map_hasherIS7_SA_NS_4hashIS7_EENS_8equal_toIS7_EELb1EEENS_21__unordered_map_equalIS7_SA_SF_SD_Lb1EEENS5_ISA_EEE13hash_functionB8ue170006Ev, symObjAddr: 0x55B0, symBinAddr: 0x100006F08, symSize: 0x28 }
  - { offsetInCU: 0x21833, offset: 0x21833, size: 0x8, addend: 0x0, symName: __ZNSt3__112__hash_tableINS_17__hash_value_typeINS_12basic_stringIcNS_11char_traitsIcEENS_9allocatorIcEEEEP3PinEENS_22__unordered_map_hasherIS7_SA_NS_4hashIS7_EENS_8equal_toIS7_EELb1EEENS_21__unordered_map_equalIS7_SA_SF_SD_Lb1EEENS5_ISA_EEE13hash_functionB8ue170006Ev, symObjAddr: 0x55D8, symBinAddr: 0x100006F30, symSize: 0x28 }
  - { offsetInCU: 0x21859, offset: 0x21859, size: 0x8, addend: 0x0, symName: __ZNKSt3__112__hash_tableINS_17__hash_value_typeINS_12basic_stringIcNS_11char_traitsIcEENS_9allocatorIcEEEEP3PinEENS_22__unordered_map_hasherIS7_SA_NS_4hashIS7_EENS_8equal_toIS7_EELb1EEENS_21__unordered_map_equalIS7_SA_SF_SD_Lb1EEENS5_ISA_EEE6key_eqB8ue170006Ev, symObjAddr: 0x5600, symBinAddr: 0x100006F58, symSize: 0x28 }
  - { offsetInCU: 0x2187F, offset: 0x2187F, size: 0x8, addend: 0x0, symName: __ZNSt3__112__hash_tableINS_17__hash_value_typeINS_12basic_stringIcNS_11char_traitsIcEENS_9allocatorIcEEEEP3PinEENS_22__unordered_map_hasherIS7_SA_NS_4hashIS7_EENS_8equal_toIS7_EELb1EEENS_21__unordered_map_equalIS7_SA_SF_SD_Lb1EEENS5_ISA_EEE6key_eqB8ue170006Ev, symObjAddr: 0x5628, symBinAddr: 0x100006F80, symSize: 0x28 }
  - { offsetInCU: 0x218A5, offset: 0x218A5, size: 0x8, addend: 0x0, symName: __ZNKSt3__112__hash_tableINS_17__hash_value_typeINS_12basic_stringIcNS_11char_traitsIcEENS_9allocatorIcEEEEP3PinEENS_22__unordered_map_hasherIS7_SA_NS_4hashIS7_EENS_8equal_toIS7_EELb1EEENS_21__unordered_map_equalIS7_SA_SF_SD_Lb1EEENS5_ISA_EEE15max_load_factorB8ue170006Ev, symObjAddr: 0x5650, symBinAddr: 0x100006FA8, symSize: 0x2C }
  - { offsetInCU: 0x218CB, offset: 0x218CB, size: 0x8, addend: 0x0, symName: __ZNSt3__112__hash_tableINS_17__hash_value_typeINS_12basic_stringIcNS_11char_traitsIcEENS_9allocatorIcEEEEP3PinEENS_22__unordered_map_hasherIS7_SA_NS_4hashIS7_EENS_8equal_toIS7_EELb1EEENS_21__unordered_map_equalIS7_SA_SF_SD_Lb1EEENS5_ISA_EEE15max_load_factorB8ue170006Ev, symObjAddr: 0x567C, symBinAddr: 0x100006FD4, symSize: 0x28 }
  - { offsetInCU: 0x218F1, offset: 0x218F1, size: 0x8, addend: 0x0, symName: __ZNSt3__112__hash_tableINS_17__hash_value_typeINS_12basic_stringIcNS_11char_traitsIcEENS_9allocatorIcEEEEP3PinEENS_22__unordered_map_hasherIS7_SA_NS_4hashIS7_EENS_8equal_toIS7_EELb1EEENS_21__unordered_map_equalIS7_SA_SF_SD_Lb1EEENS5_ISA_EEE19__copy_assign_allocB8ue170006ERKSK_, symObjAddr: 0x56A4, symBinAddr: 0x100006FFC, symSize: 0x2C }
  - { offsetInCU: 0x21926, offset: 0x21926, size: 0x8, addend: 0x0, symName: __ZNSt3__113unordered_mapINS_12basic_stringIcNS_11char_traitsIcEENS_9allocatorIcEEEEP3PinNS_4hashIS6_EENS_8equal_toIS6_EENS4_INS_4pairIKS6_S8_EEEEE6insertINS_25__hash_map_const_iteratorINS_21__hash_const_iteratorIPNS_11__hash_nodeINS_17__hash_value_typeIS6_S8_EEPvEEEEEEEEvT_ST_, symObjAddr: 0x56D0, symBinAddr: 0x100007028, symSize: 0x70 }
  - { offsetInCU: 0x21975, offset: 0x21975, size: 0x8, addend: 0x0, symName: __ZNKSt3__113unordered_mapINS_12basic_stringIcNS_11char_traitsIcEENS_9allocatorIcEEEEP3PinNS_4hashIS6_EENS_8equal_toIS6_EENS4_INS_4pairIKS6_S8_EEEEE5beginB8ue170006Ev, symObjAddr: 0x5740, symBinAddr: 0x100007098, symSize: 0x38 }
  - { offsetInCU: 0x2199B, offset: 0x2199B, size: 0x8, addend: 0x0, symName: __ZNKSt3__113unordered_mapINS_12basic_stringIcNS_11char_traitsIcEENS_9allocatorIcEEEEP3PinNS_4hashIS6_EENS_8equal_toIS6_EENS4_INS_4pairIKS6_S8_EEEEE3endB8ue170006Ev, symObjAddr: 0x5778, symBinAddr: 0x1000070D0, symSize: 0x38 }
  - { offsetInCU: 0x219C1, offset: 0x219C1, size: 0x8, addend: 0x0, symName: __ZNSt3__112__hash_tableINS_17__hash_value_typeINS_12basic_stringIcNS_11char_traitsIcEENS_9allocatorIcEEEEP3PinEENS_22__unordered_map_hasherIS7_SA_NS_4hashIS7_EENS_8equal_toIS7_EELb1EEENS_21__unordered_map_equalIS7_SA_SF_SD_Lb1EEENS5_ISA_EEE4sizeB8ue170006Ev, symObjAddr: 0x57B0, symBinAddr: 0x100007108, symSize: 0x28 }
  - { offsetInCU: 0x219E7, offset: 0x219E7, size: 0x8, addend: 0x0, symName: __ZNKSt3__112__hash_tableINS_17__hash_value_typeINS_12basic_stringIcNS_11char_traitsIcEENS_9allocatorIcEEEEP3PinEENS_22__unordered_map_hasherIS7_SA_NS_4hashIS7_EENS_8equal_toIS7_EELb1EEENS_21__unordered_map_equalIS7_SA_SF_SD_Lb1EEENS5_ISA_EEE12bucket_countB8ue170006Ev, symObjAddr: 0x57D8, symBinAddr: 0x100007130, symSize: 0x28 }
  - { offsetInCU: 0x21A0D, offset: 0x21A0D, size: 0x8, addend: 0x0, symName: __ZNKSt3__110unique_ptrIA_PNS_16__hash_node_baseIPNS_11__hash_nodeINS_17__hash_value_typeINS_12basic_stringIcNS_11char_traitsIcEENS_9allocatorIcEEEEP3PinEEPvEEEENS_25__bucket_list_deallocatorINS7_ISH_EEEEEixB8ue170006Em, symObjAddr: 0x5800, symBinAddr: 0x100007158, symSize: 0x34 }
  - { offsetInCU: 0x21A42, offset: 0x21A42, size: 0x8, addend: 0x0, symName: __ZNSt3__117__compressed_pairImNS_22__unordered_map_hasherINS_12basic_stringIcNS_11char_traitsIcEENS_9allocatorIcEEEENS_17__hash_value_typeIS7_P3PinEENS_4hashIS7_EENS_8equal_toIS7_EELb1EEEE5firstB8ue170006Ev, symObjAddr: 0x5834, symBinAddr: 0x10000718C, symSize: 0x24 }
  - { offsetInCU: 0x21A68, offset: 0x21A68, size: 0x8, addend: 0x0, symName: __ZNKSt3__110unique_ptrIA_PNS_16__hash_node_baseIPNS_11__hash_nodeINS_17__hash_value_typeINS_12basic_stringIcNS_11char_traitsIcEENS_9allocatorIcEEEEP3PinEEPvEEEENS_25__bucket_list_deallocatorINS7_ISH_EEEEE11get_deleterB8ue170006Ev, symObjAddr: 0x5858, symBinAddr: 0x1000071B0, symSize: 0x24 }
  - { offsetInCU: 0x21A8E, offset: 0x21A8E, size: 0x8, addend: 0x0, symName: __ZNKSt3__125__bucket_list_deallocatorINS_9allocatorIPNS_16__hash_node_baseIPNS_11__hash_nodeINS_17__hash_value_typeINS_12basic_stringIcNS_11char_traitsIcEENS1_IcEEEEP3PinEEPvEEEEEEE4sizeB8ue170006Ev, symObjAddr: 0x587C, symBinAddr: 0x1000071D4, symSize: 0x28 }
  - { offsetInCU: 0x21AB4, offset: 0x21AB4, size: 0x8, addend: 0x0, symName: __ZNKSt3__117__compressed_pairIPPNS_16__hash_node_baseIPNS_11__hash_nodeINS_17__hash_value_typeINS_12basic_stringIcNS_11char_traitsIcEENS_9allocatorIcEEEEP3PinEEPvEEEENS_25__bucket_list_deallocatorINS7_ISH_EEEEE6secondB8ue170006Ev, symObjAddr: 0x58A4, symBinAddr: 0x1000071FC, symSize: 0x28 }
  - { offsetInCU: 0x21ADA, offset: 0x21ADA, size: 0x8, addend: 0x0, symName: __ZNKSt3__122__compressed_pair_elemINS_25__bucket_list_deallocatorINS_9allocatorIPNS_16__hash_node_baseIPNS_11__hash_nodeINS_17__hash_value_typeINS_12basic_stringIcNS_11char_traitsIcEENS2_IcEEEEP3PinEEPvEEEEEEEELi1ELb0EE5__getB8ue170006Ev, symObjAddr: 0x58CC, symBinAddr: 0x100007224, symSize: 0x14 }
  - { offsetInCU: 0x21B00, offset: 0x21B00, size: 0x8, addend: 0x0, symName: __ZNKSt3__117__compressed_pairImNS_9allocatorIPNS_16__hash_node_baseIPNS_11__hash_nodeINS_17__hash_value_typeINS_12basic_stringIcNS_11char_traitsIcEENS1_IcEEEEP3PinEEPvEEEEEEE5firstB8ue170006Ev, symObjAddr: 0x58E0, symBinAddr: 0x100007238, symSize: 0x24 }
  - { offsetInCU: 0x21B26, offset: 0x21B26, size: 0x8, addend: 0x0, symName: __ZNKSt3__122__compressed_pair_elemImLi0ELb0EE5__getB8ue170006Ev, symObjAddr: 0x5904, symBinAddr: 0x10000725C, symSize: 0x14 }
  - { offsetInCU: 0x21B4C, offset: 0x21B4C, size: 0x8, addend: 0x0, symName: __ZNKSt3__117__compressed_pairIPPNS_16__hash_node_baseIPNS_11__hash_nodeINS_17__hash_value_typeINS_12basic_stringIcNS_11char_traitsIcEENS_9allocatorIcEEEEP3PinEEPvEEEENS_25__bucket_list_deallocatorINS7_ISH_EEEEE5firstB8ue170006Ev, symObjAddr: 0x5918, symBinAddr: 0x100007270, symSize: 0x24 }
  - { offsetInCU: 0x21B72, offset: 0x21B72, size: 0x8, addend: 0x0, symName: __ZNKSt3__122__compressed_pair_elemIPPNS_16__hash_node_baseIPNS_11__hash_nodeINS_17__hash_value_typeINS_12basic_stringIcNS_11char_traitsIcEENS_9allocatorIcEEEEP3PinEEPvEEEELi0ELb0EE5__getB8ue170006Ev, symObjAddr: 0x593C, symBinAddr: 0x100007294, symSize: 0x14 }
  - { offsetInCU: 0x21B98, offset: 0x21B98, size: 0x8, addend: 0x0, symName: __ZNKSt3__117__compressed_pairImNS_22__unordered_map_hasherINS_12basic_stringIcNS_11char_traitsIcEENS_9allocatorIcEEEENS_17__hash_value_typeIS7_P3PinEENS_4hashIS7_EENS_8equal_toIS7_EELb1EEEE6secondB8ue170006Ev, symObjAddr: 0x5950, symBinAddr: 0x1000072A8, symSize: 0x24 }
  - { offsetInCU: 0x21BBE, offset: 0x21BBE, size: 0x8, addend: 0x0, symName: __ZNKSt3__122__compressed_pair_elemINS_22__unordered_map_hasherINS_12basic_stringIcNS_11char_traitsIcEENS_9allocatorIcEEEENS_17__hash_value_typeIS7_P3PinEENS_4hashIS7_EENS_8equal_toIS7_EELb1EEELi1ELb1EE5__getB8ue170006Ev, symObjAddr: 0x5974, symBinAddr: 0x1000072CC, symSize: 0x14 }
  - { offsetInCU: 0x21BE4, offset: 0x21BE4, size: 0x8, addend: 0x0, symName: __ZNSt3__117__compressed_pairImNS_22__unordered_map_hasherINS_12basic_stringIcNS_11char_traitsIcEENS_9allocatorIcEEEENS_17__hash_value_typeIS7_P3PinEENS_4hashIS7_EENS_8equal_toIS7_EELb1EEEE6secondB8ue170006Ev, symObjAddr: 0x5988, symBinAddr: 0x1000072E0, symSize: 0x24 }
  - { offsetInCU: 0x21C0A, offset: 0x21C0A, size: 0x8, addend: 0x0, symName: __ZNSt3__122__compressed_pair_elemINS_22__unordered_map_hasherINS_12basic_stringIcNS_11char_traitsIcEENS_9allocatorIcEEEENS_17__hash_value_typeIS7_P3PinEENS_4hashIS7_EENS_8equal_toIS7_EELb1EEELi1ELb1EE5__getB8ue170006Ev, symObjAddr: 0x59AC, symBinAddr: 0x100007304, symSize: 0x14 }
  - { offsetInCU: 0x21C30, offset: 0x21C30, size: 0x8, addend: 0x0, symName: __ZNKSt3__117__compressed_pairIfNS_21__unordered_map_equalINS_12basic_stringIcNS_11char_traitsIcEENS_9allocatorIcEEEENS_17__hash_value_typeIS7_P3PinEENS_8equal_toIS7_EENS_4hashIS7_EELb1EEEE6secondB8ue170006Ev, symObjAddr: 0x59C0, symBinAddr: 0x100007318, symSize: 0x24 }
  - { offsetInCU: 0x21C56, offset: 0x21C56, size: 0x8, addend: 0x0, symName: __ZNKSt3__122__compressed_pair_elemINS_21__unordered_map_equalINS_12basic_stringIcNS_11char_traitsIcEENS_9allocatorIcEEEENS_17__hash_value_typeIS7_P3PinEENS_8equal_toIS7_EENS_4hashIS7_EELb1EEELi1ELb1EE5__getB8ue170006Ev, symObjAddr: 0x59E4, symBinAddr: 0x10000733C, symSize: 0x14 }
  - { offsetInCU: 0x21C7C, offset: 0x21C7C, size: 0x8, addend: 0x0, symName: __ZNSt3__117__compressed_pairIfNS_21__unordered_map_equalINS_12basic_stringIcNS_11char_traitsIcEENS_9allocatorIcEEEENS_17__hash_value_typeIS7_P3PinEENS_8equal_toIS7_EENS_4hashIS7_EELb1EEEE6secondB8ue170006Ev, symObjAddr: 0x59F8, symBinAddr: 0x100007350, symSize: 0x24 }
  - { offsetInCU: 0x21CA2, offset: 0x21CA2, size: 0x8, addend: 0x0, symName: __ZNSt3__122__compressed_pair_elemINS_21__unordered_map_equalINS_12basic_stringIcNS_11char_traitsIcEENS_9allocatorIcEEEENS_17__hash_value_typeIS7_P3PinEENS_8equal_toIS7_EENS_4hashIS7_EELb1EEELi1ELb1EE5__getB8ue170006Ev, symObjAddr: 0x5A1C, symBinAddr: 0x100007374, symSize: 0x14 }
  - { offsetInCU: 0x21CC8, offset: 0x21CC8, size: 0x8, addend: 0x0, symName: __ZNKSt3__117__compressed_pairIfNS_21__unordered_map_equalINS_12basic_stringIcNS_11char_traitsIcEENS_9allocatorIcEEEENS_17__hash_value_typeIS7_P3PinEENS_8equal_toIS7_EENS_4hashIS7_EELb1EEEE5firstB8ue170006Ev, symObjAddr: 0x5A30, symBinAddr: 0x100007388, symSize: 0x24 }
  - { offsetInCU: 0x21CEE, offset: 0x21CEE, size: 0x8, addend: 0x0, symName: __ZNKSt3__122__compressed_pair_elemIfLi0ELb0EE5__getB8ue170006Ev, symObjAddr: 0x5A54, symBinAddr: 0x1000073AC, symSize: 0x14 }
  - { offsetInCU: 0x21D14, offset: 0x21D14, size: 0x8, addend: 0x0, symName: __ZNSt3__117__compressed_pairIfNS_21__unordered_map_equalINS_12basic_stringIcNS_11char_traitsIcEENS_9allocatorIcEEEENS_17__hash_value_typeIS7_P3PinEENS_8equal_toIS7_EENS_4hashIS7_EELb1EEEE5firstB8ue170006Ev, symObjAddr: 0x5A68, symBinAddr: 0x1000073C0, symSize: 0x24 }
  - { offsetInCU: 0x21D3A, offset: 0x21D3A, size: 0x8, addend: 0x0, symName: __ZNSt3__122__compressed_pair_elemIfLi0ELb0EE5__getB8ue170006Ev, symObjAddr: 0x5A8C, symBinAddr: 0x1000073E4, symSize: 0x14 }
  - { offsetInCU: 0x21D60, offset: 0x21D60, size: 0x8, addend: 0x0, symName: __ZNSt3__112__hash_tableINS_17__hash_value_typeINS_12basic_stringIcNS_11char_traitsIcEENS_9allocatorIcEEEEP3PinEENS_22__unordered_map_hasherIS7_SA_NS_4hashIS7_EENS_8equal_toIS7_EELb1EEENS_21__unordered_map_equalIS7_SA_SF_SD_Lb1EEENS5_ISA_EEE19__copy_assign_allocB8ue170006ERKSK_NS_17integral_constantIbLb0EEE, symObjAddr: 0x5AA0, symBinAddr: 0x1000073F8, symSize: 0x14 }
  - { offsetInCU: 0x21D9E, offset: 0x21D9E, size: 0x8, addend: 0x0, symName: __ZNSt3__112__hash_tableINS_17__hash_value_typeINS_12basic_stringIcNS_11char_traitsIcEENS_9allocatorIcEEEEP3PinEENS_22__unordered_map_hasherIS7_SA_NS_4hashIS7_EENS_8equal_toIS7_EELb1EEENS_21__unordered_map_equalIS7_SA_SF_SD_Lb1EEENS5_ISA_EEE15__insert_uniqueB8ue170006ERKNS_4pairIKS7_S9_EE, symObjAddr: 0x5AE4, symBinAddr: 0x10000743C, symSize: 0x50 }
  - { offsetInCU: 0x21DD3, offset: 0x21DD3, size: 0x8, addend: 0x0, symName: __ZNKSt3__125__hash_map_const_iteratorINS_21__hash_const_iteratorIPNS_11__hash_nodeINS_17__hash_value_typeINS_12basic_stringIcNS_11char_traitsIcEENS_9allocatorIcEEEEP3PinEEPvEEEEEdeB8ue170006Ev, symObjAddr: 0x5B34, symBinAddr: 0x10000748C, symSize: 0x28 }
  - { offsetInCU: 0x21DF9, offset: 0x21DF9, size: 0x8, addend: 0x0, symName: __ZNSt3__125__hash_map_const_iteratorINS_21__hash_const_iteratorIPNS_11__hash_nodeINS_17__hash_value_typeINS_12basic_stringIcNS_11char_traitsIcEENS_9allocatorIcEEEEP3PinEEPvEEEEEppB8ue170006Ev, symObjAddr: 0x5B5C, symBinAddr: 0x1000074B4, symSize: 0x2C }
  - { offsetInCU: 0x21E1F, offset: 0x21E1F, size: 0x8, addend: 0x0, symName: __ZNSt3__112__hash_tableINS_17__hash_value_typeINS_12basic_stringIcNS_11char_traitsIcEENS_9allocatorIcEEEEP3PinEENS_22__unordered_map_hasherIS7_SA_NS_4hashIS7_EENS_8equal_toIS7_EELb1EEENS_21__unordered_map_equalIS7_SA_SF_SD_Lb1EEENS5_ISA_EEE25__emplace_unique_key_argsIS7_JRKNS_4pairIKS7_S9_EEEEENSM_INS_15__hash_iteratorIPNS_11__hash_nodeISA_PvEEEEbEERKT_DpOT0_, symObjAddr: 0x5BEC, symBinAddr: 0x100007544, symSize: 0x4C0 }
  - { offsetInCU: 0x21EFF, offset: 0x21EFF, size: 0x8, addend: 0x0, symName: __ZNSt3__122__hash_key_value_typesINS_17__hash_value_typeINS_12basic_stringIcNS_11char_traitsIcEENS_9allocatorIcEEEEP3PinEEE9__get_keyB8ue170006ERKNS_4pairIKS7_S9_EE, symObjAddr: 0x60AC, symBinAddr: 0x100007A04, symSize: 0x14 }
  - { offsetInCU: 0x21F22, offset: 0x21F22, size: 0x8, addend: 0x0, symName: __ZNKSt3__122__unordered_map_hasherINS_12basic_stringIcNS_11char_traitsIcEENS_9allocatorIcEEEENS_17__hash_value_typeIS6_P3PinEENS_4hashIS6_EENS_8equal_toIS6_EELb1EEclB8ue170006ERKS6_, symObjAddr: 0x60C0, symBinAddr: 0x100007A18, symSize: 0x2C }
  - { offsetInCU: 0x21F57, offset: 0x21F57, size: 0x8, addend: 0x0, symName: __ZNKSt3__116__hash_node_baseIPNS_11__hash_nodeINS_17__hash_value_typeINS_12basic_stringIcNS_11char_traitsIcEENS_9allocatorIcEEEEP3PinEEPvEEE6__hashB8ue170006Ev, symObjAddr: 0x6184, symBinAddr: 0x100007ADC, symSize: 0x18 }
  - { offsetInCU: 0x21F7D, offset: 0x21F7D, size: 0x8, addend: 0x0, symName: __ZNKSt3__121__unordered_map_equalINS_12basic_stringIcNS_11char_traitsIcEENS_9allocatorIcEEEENS_17__hash_value_typeIS6_P3PinEENS_8equal_toIS6_EENS_4hashIS6_EELb1EEclB8ue170006ERKSA_RKS6_, symObjAddr: 0x619C, symBinAddr: 0x100007AF4, symSize: 0x48 }
  - { offsetInCU: 0x21FC1, offset: 0x21FC1, size: 0x8, addend: 0x0, symName: __ZNSt3__112__hash_tableINS_17__hash_value_typeINS_12basic_stringIcNS_11char_traitsIcEENS_9allocatorIcEEEEP3PinEENS_22__unordered_map_hasherIS7_SA_NS_4hashIS7_EENS_8equal_toIS7_EELb1EEENS_21__unordered_map_equalIS7_SA_SF_SD_Lb1EEENS5_ISA_EEE21__construct_node_hashIRKNS_4pairIKS7_S9_EEJEEENS_10unique_ptrINS_11__hash_nodeISA_PvEENS_22__hash_node_destructorINS5_ISU_EEEEEEmOT_DpOT0_, symObjAddr: 0x61E4, symBinAddr: 0x100007B3C, symSize: 0x148 }
  - { offsetInCU: 0x22034, offset: 0x22034, size: 0x8, addend: 0x0, symName: __ZNSt3__112__hash_tableINS_17__hash_value_typeINS_12basic_stringIcNS_11char_traitsIcEENS_9allocatorIcEEEEP3PinEENS_22__unordered_map_hasherIS7_SA_NS_4hashIS7_EENS_8equal_toIS7_EELb1EEENS_21__unordered_map_equalIS7_SA_SF_SD_Lb1EEENS5_ISA_EEE15__rehash_uniqueB8ue170006Em, symObjAddr: 0x632C, symBinAddr: 0x100007C84, symSize: 0x2C }
  - { offsetInCU: 0x22068, offset: 0x22068, size: 0x8, addend: 0x0, symName: __Z4ceilB8ue170006f, symObjAddr: 0x63D4, symBinAddr: 0x100007D2C, symSize: 0x18 }
  - { offsetInCU: 0x22097, offset: 0x22097, size: 0x8, addend: 0x0, symName: __ZNSt3__116__hash_node_baseIPNS_11__hash_nodeINS_17__hash_value_typeINS_12basic_stringIcNS_11char_traitsIcEENS_9allocatorIcEEEEP3PinEEPvEEE5__ptrB8ue170006Ev, symObjAddr: 0x63EC, symBinAddr: 0x100007D44, symSize: 0x24 }
  - { offsetInCU: 0x220BD, offset: 0x220BD, size: 0x8, addend: 0x0, symName: __ZNKSt3__110unique_ptrINS_11__hash_nodeINS_17__hash_value_typeINS_12basic_stringIcNS_11char_traitsIcEENS_9allocatorIcEEEEP3PinEEPvEENS_22__hash_node_destructorINS6_ISD_EEEEEptB8ue170006Ev, symObjAddr: 0x6410, symBinAddr: 0x100007D68, symSize: 0x28 }
  - { offsetInCU: 0x220E3, offset: 0x220E3, size: 0x8, addend: 0x0, symName: __ZNKSt3__110unique_ptrINS_11__hash_nodeINS_17__hash_value_typeINS_12basic_stringIcNS_11char_traitsIcEENS_9allocatorIcEEEEP3PinEEPvEENS_22__hash_node_destructorINS6_ISD_EEEEE3getB8ue170006Ev, symObjAddr: 0x6438, symBinAddr: 0x100007D90, symSize: 0x28 }
  - { offsetInCU: 0x22109, offset: 0x22109, size: 0x8, addend: 0x0, symName: __ZNSt3__110unique_ptrINS_11__hash_nodeINS_17__hash_value_typeINS_12basic_stringIcNS_11char_traitsIcEENS_9allocatorIcEEEEP3PinEEPvEENS_22__hash_node_destructorINS6_ISD_EEEEE7releaseB8ue170006Ev, symObjAddr: 0x6460, symBinAddr: 0x100007DB8, symSize: 0x44 }
  - { offsetInCU: 0x2213E, offset: 0x2213E, size: 0x8, addend: 0x0, symName: __ZNSt3__110unique_ptrINS_11__hash_nodeINS_17__hash_value_typeINS_12basic_stringIcNS_11char_traitsIcEENS_9allocatorIcEEEEP3PinEEPvEENS_22__hash_node_destructorINS6_ISD_EEEEED1B8ue170006Ev, symObjAddr: 0x64A4, symBinAddr: 0x100007DFC, symSize: 0x2C }
  - { offsetInCU: 0x22168, offset: 0x22168, size: 0x8, addend: 0x0, symName: __ZNSt3__115__hash_iteratorIPNS_11__hash_nodeINS_17__hash_value_typeINS_12basic_stringIcNS_11char_traitsIcEENS_9allocatorIcEEEEP3PinEEPvEEEC1B8ue170006EPNS_16__hash_node_baseISE_EE, symObjAddr: 0x64D0, symBinAddr: 0x100007E28, symSize: 0x34 }
  - { offsetInCU: 0x221A1, offset: 0x221A1, size: 0x8, addend: 0x0, symName: __ZNSt3__14pairINS_15__hash_iteratorIPNS_11__hash_nodeINS_17__hash_value_typeINS_12basic_stringIcNS_11char_traitsIcEENS_9allocatorIcEEEEP3PinEEPvEEEEbEC1B8ue170006ERKSG_RKb, symObjAddr: 0x6504, symBinAddr: 0x100007E5C, symSize: 0x3C }
  - { offsetInCU: 0x221E7, offset: 0x221E7, size: 0x8, addend: 0x0, symName: __ZNKSt3__113__string_hashIcNS_9allocatorIcEEEclB8ue170006ERKNS_12basic_stringIcNS_11char_traitsIcEES2_EE, symObjAddr: 0x6540, symBinAddr: 0x100007E98, symSize: 0x78 }
  - { offsetInCU: 0x2221C, offset: 0x2221C, size: 0x8, addend: 0x0, symName: __ZNKSt3__112basic_stringIcNS_11char_traitsIcEENS_9allocatorIcEEE4dataB8ue170006Ev, symObjAddr: 0x65F4, symBinAddr: 0x100007F4C, symSize: 0x28 }
  - { offsetInCU: 0x22242, offset: 0x22242, size: 0x8, addend: 0x0, symName: __ZNKSt3__112basic_stringIcNS_11char_traitsIcEENS_9allocatorIcEEE4sizeB8ue170006Ev, symObjAddr: 0x661C, symBinAddr: 0x100007F74, symSize: 0x54 }
  - { offsetInCU: 0x22268, offset: 0x22268, size: 0x8, addend: 0x0, symName: __ZNKSt3__121__murmur2_or_cityhashImLm64EEclB8ue170006EPKvm, symObjAddr: 0x6670, symBinAddr: 0x100007FC8, symSize: 0x410 }
  - { offsetInCU: 0x22302, offset: 0x22302, size: 0x8, addend: 0x0, symName: __ZNSt3__121__murmur2_or_cityhashImLm64EE18__hash_len_0_to_16B8ue170006EPKcm, symObjAddr: 0x6A80, symBinAddr: 0x1000083D8, symSize: 0x1C0 }
  - { offsetInCU: 0x223DE, offset: 0x223DE, size: 0x8, addend: 0x0, symName: __ZNSt3__121__murmur2_or_cityhashImLm64EE19__hash_len_17_to_32B8ue170006EPKcm, symObjAddr: 0x6C40, symBinAddr: 0x100008598, symSize: 0x130 }
  - { offsetInCU: 0x22447, offset: 0x22447, size: 0x8, addend: 0x0, symName: __ZNSt3__121__murmur2_or_cityhashImLm64EE19__hash_len_33_to_64B8ue170006EPKcm, symObjAddr: 0x6D70, symBinAddr: 0x1000086C8, symSize: 0x2B8 }
  - { offsetInCU: 0x224FC, offset: 0x224FC, size: 0x8, addend: 0x0, symName: __ZNSt3__121__murmur2_or_cityhashImLm64EE13__hash_len_16B8ue170006Emm, symObjAddr: 0x7048, symBinAddr: 0x1000089A0, symSize: 0x80 }
  - { offsetInCU: 0x22557, offset: 0x22557, size: 0x8, addend: 0x0, symName: __ZNSt3__121__murmur2_or_cityhashImLm64EE29__weak_hash_len_32_with_seedsB8ue170006EPKcmm, symObjAddr: 0x70C8, symBinAddr: 0x100008A20, symSize: 0x88 }
  - { offsetInCU: 0x22596, offset: 0x22596, size: 0x8, addend: 0x0, symName: __ZNSt3__121__murmur2_or_cityhashImLm64EE8__rotateB8ue170006Emi, symObjAddr: 0x7150, symBinAddr: 0x100008AA8, symSize: 0x64 }
  - { offsetInCU: 0x225C7, offset: 0x225C7, size: 0x8, addend: 0x0, symName: __ZNSt3__14pairImmEaSB8ue170006ERKS1_, symObjAddr: 0x71B4, symBinAddr: 0x100008B0C, symSize: 0x30 }
  - { offsetInCU: 0x225FB, offset: 0x225FB, size: 0x8, addend: 0x0, symName: __ZNSt3__121__murmur2_or_cityhashImLm64EE11__shift_mixB8ue170006Em, symObjAddr: 0x7220, symBinAddr: 0x100008B78, symSize: 0x1C }
  - { offsetInCU: 0x2261E, offset: 0x2261E, size: 0x8, addend: 0x0, symName: __ZNSt3__121__murmur2_or_cityhashImLm64EE22__rotate_by_at_least_1B8ue170006Emi, symObjAddr: 0x723C, symBinAddr: 0x100008B94, symSize: 0x38 }
  - { offsetInCU: 0x2264F, offset: 0x2264F, size: 0x8, addend: 0x0, symName: __ZNSt3__121__murmur2_or_cityhashImLm64EE29__weak_hash_len_32_with_seedsB8ue170006Emmmmmm, symObjAddr: 0x7294, symBinAddr: 0x100008BEC, symSize: 0xD8 }
  - { offsetInCU: 0x226C6, offset: 0x226C6, size: 0x8, addend: 0x0, symName: __ZNSt3__14pairImmEC1B8ue170006ERKmS3_, symObjAddr: 0x736C, symBinAddr: 0x100008CC4, symSize: 0x3C }
  - { offsetInCU: 0x2270C, offset: 0x2270C, size: 0x8, addend: 0x0, symName: __ZNSt3__14pairImmEC2B8ue170006ERKmS3_, symObjAddr: 0x73A8, symBinAddr: 0x100008D00, symSize: 0x34 }
  - { offsetInCU: 0x22752, offset: 0x22752, size: 0x8, addend: 0x0, symName: __ZNKSt3__112basic_stringIcNS_11char_traitsIcEENS_9allocatorIcEEE13__get_pointerB8ue170006Ev, symObjAddr: 0x73F0, symBinAddr: 0x100008D48, symSize: 0x54 }
  - { offsetInCU: 0x22778, offset: 0x22778, size: 0x8, addend: 0x0, symName: __ZNKSt3__112basic_stringIcNS_11char_traitsIcEENS_9allocatorIcEEE9__is_longB8ue170006Ev, symObjAddr: 0x7444, symBinAddr: 0x100008D9C, symSize: 0x74 }
  - { offsetInCU: 0x2279E, offset: 0x2279E, size: 0x8, addend: 0x0, symName: __ZNKSt3__112basic_stringIcNS_11char_traitsIcEENS_9allocatorIcEEE18__get_long_pointerB8ue170006Ev, symObjAddr: 0x74B8, symBinAddr: 0x100008E10, symSize: 0x28 }
  - { offsetInCU: 0x227C4, offset: 0x227C4, size: 0x8, addend: 0x0, symName: __ZNKSt3__112basic_stringIcNS_11char_traitsIcEENS_9allocatorIcEEE19__get_short_pointerB8ue170006Ev, symObjAddr: 0x74E0, symBinAddr: 0x100008E38, symSize: 0x28 }
  - { offsetInCU: 0x227EA, offset: 0x227EA, size: 0x8, addend: 0x0, symName: __ZNKSt3__117__compressed_pairINS_12basic_stringIcNS_11char_traitsIcEENS_9allocatorIcEEE5__repES5_E5firstB8ue170006Ev, symObjAddr: 0x7508, symBinAddr: 0x100008E60, symSize: 0x24 }
  - { offsetInCU: 0x22810, offset: 0x22810, size: 0x8, addend: 0x0, symName: __ZNKSt3__122__compressed_pair_elemINS_12basic_stringIcNS_11char_traitsIcEENS_9allocatorIcEEE5__repELi0ELb0EE5__getB8ue170006Ev, symObjAddr: 0x752C, symBinAddr: 0x100008E84, symSize: 0x14 }
  - { offsetInCU: 0x22836, offset: 0x22836, size: 0x8, addend: 0x0, symName: __ZNSt3__114pointer_traitsIPKcE10pointer_toB8ue170006ERS1_, symObjAddr: 0x7540, symBinAddr: 0x100008E98, symSize: 0x14 }
  - { offsetInCU: 0x22859, offset: 0x22859, size: 0x8, addend: 0x0, symName: __ZNKSt3__112basic_stringIcNS_11char_traitsIcEENS_9allocatorIcEEE15__get_long_sizeB8ue170006Ev, symObjAddr: 0x7554, symBinAddr: 0x100008EAC, symSize: 0x28 }
  - { offsetInCU: 0x2287F, offset: 0x2287F, size: 0x8, addend: 0x0, symName: __ZNKSt3__112basic_stringIcNS_11char_traitsIcEENS_9allocatorIcEEE16__get_short_sizeB8ue170006Ev, symObjAddr: 0x757C, symBinAddr: 0x100008ED4, symSize: 0x34 }
  - { offsetInCU: 0x228A5, offset: 0x228A5, size: 0x8, addend: 0x0, symName: __ZNKSt3__18equal_toINS_12basic_stringIcNS_11char_traitsIcEENS_9allocatorIcEEEEEclB8ue170006ERKS6_S9_, symObjAddr: 0x75B0, symBinAddr: 0x100008F08, symSize: 0x34 }
  - { offsetInCU: 0x228E9, offset: 0x228E9, size: 0x8, addend: 0x0, symName: __ZNKSt3__117__hash_value_typeINS_12basic_stringIcNS_11char_traitsIcEENS_9allocatorIcEEEEP3PinE11__get_valueB8ue170006Ev, symObjAddr: 0x75E4, symBinAddr: 0x100008F3C, symSize: 0x14 }
  - { offsetInCU: 0x2290F, offset: 0x2290F, size: 0x8, addend: 0x0, symName: __ZNSt3__111char_traitsIcE7compareB8ue170006EPKcS3_m, symObjAddr: 0x7740, symBinAddr: 0x100009098, symSize: 0x64 }
  - { offsetInCU: 0x2294E, offset: 0x2294E, size: 0x8, addend: 0x0, symName: __ZNSt3__116allocator_traitsINS_9allocatorINS_11__hash_nodeINS_17__hash_value_typeINS_12basic_stringIcNS_11char_traitsIcEENS1_IcEEEEP3PinEEPvEEEEE8allocateB8ue170006ERSE_m, symObjAddr: 0x77A4, symBinAddr: 0x1000090FC, symSize: 0x2C }
  - { offsetInCU: 0x22981, offset: 0x22981, size: 0x8, addend: 0x0, symName: __ZNSt3__122__hash_node_destructorINS_9allocatorINS_11__hash_nodeINS_17__hash_value_typeINS_12basic_stringIcNS_11char_traitsIcEENS1_IcEEEEP3PinEEPvEEEEEC1B8ue170006ERSE_b, symObjAddr: 0x77D0, symBinAddr: 0x100009128, symSize: 0x48 }
  - { offsetInCU: 0x229CE, offset: 0x229CE, size: 0x8, addend: 0x0, symName: __ZNSt3__110unique_ptrINS_11__hash_nodeINS_17__hash_value_typeINS_12basic_stringIcNS_11char_traitsIcEENS_9allocatorIcEEEEP3PinEEPvEENS_22__hash_node_destructorINS6_ISD_EEEEEC1B8ue170006ILb1EvEEPSD_NS_16__dependent_typeINS_27__unique_ptr_deleter_sfinaeISG_EEXT_EE20__good_rval_ref_typeE, symObjAddr: 0x7818, symBinAddr: 0x100009170, symSize: 0x3C }
  - { offsetInCU: 0x22A1F, offset: 0x22A1F, size: 0x8, addend: 0x0, symName: __ZNSt3__116allocator_traitsINS_9allocatorINS_11__hash_nodeINS_17__hash_value_typeINS_12basic_stringIcNS_11char_traitsIcEENS1_IcEEEEP3PinEEPvEEEEE9constructB8ue170006INS_4pairIKS8_SA_EEJRKSJ_EvEEvRSE_PT_DpOT0_, symObjAddr: 0x7854, symBinAddr: 0x1000091AC, symSize: 0x34 }
  - { offsetInCU: 0x22A76, offset: 0x22A76, size: 0x8, addend: 0x0, symName: __ZNSt3__110unique_ptrINS_11__hash_nodeINS_17__hash_value_typeINS_12basic_stringIcNS_11char_traitsIcEENS_9allocatorIcEEEEP3PinEEPvEENS_22__hash_node_destructorINS6_ISD_EEEEE11get_deleterB8ue170006Ev, symObjAddr: 0x7888, symBinAddr: 0x1000091E0, symSize: 0x24 }
  - { offsetInCU: 0x22A9C, offset: 0x22A9C, size: 0x8, addend: 0x0, symName: __ZNSt3__19allocatorINS_11__hash_nodeINS_17__hash_value_typeINS_12basic_stringIcNS_11char_traitsIcEENS0_IcEEEEP3PinEEPvEEE8allocateB8ue170006Em, symObjAddr: 0x78AC, symBinAddr: 0x100009204, symSize: 0x8C }
  - { offsetInCU: 0x22ADA, offset: 0x22ADA, size: 0x8, addend: 0x0, symName: __ZNSt3__116allocator_traitsINS_9allocatorINS_11__hash_nodeINS_17__hash_value_typeINS_12basic_stringIcNS_11char_traitsIcEENS1_IcEEEEP3PinEEPvEEEEE8max_sizeB8ue170006ISE_vEEmRKSE_, symObjAddr: 0x7938, symBinAddr: 0x100009290, symSize: 0x24 }
  - { offsetInCU: 0x22B08, offset: 0x22B08, size: 0x8, addend: 0x0, symName: __ZNKSt3__19allocatorINS_11__hash_nodeINS_17__hash_value_typeINS_12basic_stringIcNS_11char_traitsIcEENS0_IcEEEEP3PinEEPvEEE8max_sizeB8ue170006Ev, symObjAddr: 0x79B8, symBinAddr: 0x100009310, symSize: 0x18 }
  - { offsetInCU: 0x22B2E, offset: 0x22B2E, size: 0x8, addend: 0x0, symName: __ZNSt3__122__hash_node_destructorINS_9allocatorINS_11__hash_nodeINS_17__hash_value_typeINS_12basic_stringIcNS_11char_traitsIcEENS1_IcEEEEP3PinEEPvEEEEEC2B8ue170006ERSE_b, symObjAddr: 0x79F4, symBinAddr: 0x10000934C, symSize: 0x38 }
  - { offsetInCU: 0x22B76, offset: 0x22B76, size: 0x8, addend: 0x0, symName: __ZNSt3__110unique_ptrINS_11__hash_nodeINS_17__hash_value_typeINS_12basic_stringIcNS_11char_traitsIcEENS_9allocatorIcEEEEP3PinEEPvEENS_22__hash_node_destructorINS6_ISD_EEEEEC2B8ue170006ILb1EvEEPSD_NS_16__dependent_typeINS_27__unique_ptr_deleter_sfinaeISG_EEXT_EE20__good_rval_ref_typeE, symObjAddr: 0x7A2C, symBinAddr: 0x100009384, symSize: 0x5C }
  - { offsetInCU: 0x22BC7, offset: 0x22BC7, size: 0x8, addend: 0x0, symName: __ZNSt3__117__compressed_pairIPNS_11__hash_nodeINS_17__hash_value_typeINS_12basic_stringIcNS_11char_traitsIcEENS_9allocatorIcEEEEP3PinEEPvEENS_22__hash_node_destructorINS6_ISD_EEEEEC1B8ue170006IRSE_SH_EEOT_OT0_, symObjAddr: 0x7A88, symBinAddr: 0x1000093E0, symSize: 0x3C }
  - { offsetInCU: 0x22C1F, offset: 0x22C1F, size: 0x8, addend: 0x0, symName: __ZNSt3__117__compressed_pairIPNS_11__hash_nodeINS_17__hash_value_typeINS_12basic_stringIcNS_11char_traitsIcEENS_9allocatorIcEEEEP3PinEEPvEENS_22__hash_node_destructorINS6_ISD_EEEEEC2B8ue170006IRSE_SH_EEOT_OT0_, symObjAddr: 0x7AC4, symBinAddr: 0x10000941C, symSize: 0x48 }
  - { offsetInCU: 0x22C77, offset: 0x22C77, size: 0x8, addend: 0x0, symName: __ZNSt3__122__compressed_pair_elemIPNS_11__hash_nodeINS_17__hash_value_typeINS_12basic_stringIcNS_11char_traitsIcEENS_9allocatorIcEEEEP3PinEEPvEELi0ELb0EEC2B8ue170006IRSE_vEEOT_, symObjAddr: 0x7B0C, symBinAddr: 0x100009464, symSize: 0x24 }
  - { offsetInCU: 0x22CB9, offset: 0x22CB9, size: 0x8, addend: 0x0, symName: __ZNSt3__122__compressed_pair_elemINS_22__hash_node_destructorINS_9allocatorINS_11__hash_nodeINS_17__hash_value_typeINS_12basic_stringIcNS_11char_traitsIcEENS2_IcEEEEP3PinEEPvEEEEEELi1ELb0EEC2B8ue170006ISG_vEEOT_, symObjAddr: 0x7B30, symBinAddr: 0x100009488, symSize: 0x24 }
  - { offsetInCU: 0x22CFB, offset: 0x22CFB, size: 0x8, addend: 0x0, symName: __ZNSt3__19allocatorINS_11__hash_nodeINS_17__hash_value_typeINS_12basic_stringIcNS_11char_traitsIcEENS0_IcEEEEP3PinEEPvEEE9constructB8ue170006INS_4pairIKS7_S9_EEJRKSH_EEEvPT_DpOT0_, symObjAddr: 0x7B54, symBinAddr: 0x1000094AC, symSize: 0x30 }
  - { offsetInCU: 0x22D51, offset: 0x22D51, size: 0x8, addend: 0x0, symName: __ZNSt3__14pairIKNS_12basic_stringIcNS_11char_traitsIcEENS_9allocatorIcEEEEP3PinEC1B8ue170006ERKSA_, symObjAddr: 0x7B84, symBinAddr: 0x1000094DC, symSize: 0x34 }
  - { offsetInCU: 0x22D86, offset: 0x22D86, size: 0x8, addend: 0x0, symName: __ZNSt3__14pairIKNS_12basic_stringIcNS_11char_traitsIcEENS_9allocatorIcEEEEP3PinEC2B8ue170006ERKSA_, symObjAddr: 0x7BB8, symBinAddr: 0x100009510, symSize: 0x40 }
  - { offsetInCU: 0x22DBB, offset: 0x22DBB, size: 0x8, addend: 0x0, symName: __ZNSt3__117__compressed_pairIPNS_11__hash_nodeINS_17__hash_value_typeINS_12basic_stringIcNS_11char_traitsIcEENS_9allocatorIcEEEEP3PinEEPvEENS_22__hash_node_destructorINS6_ISD_EEEEE6secondB8ue170006Ev, symObjAddr: 0x7BF8, symBinAddr: 0x100009550, symSize: 0x28 }
  - { offsetInCU: 0x22DE1, offset: 0x22DE1, size: 0x8, addend: 0x0, symName: __ZNSt3__122__compressed_pair_elemINS_22__hash_node_destructorINS_9allocatorINS_11__hash_nodeINS_17__hash_value_typeINS_12basic_stringIcNS_11char_traitsIcEENS2_IcEEEEP3PinEEPvEEEEEELi1ELb0EE5__getB8ue170006Ev, symObjAddr: 0x7C20, symBinAddr: 0x100009578, symSize: 0x14 }
  - { offsetInCU: 0x22E07, offset: 0x22E07, size: 0x8, addend: 0x0, symName: __ZNSt3__112__hash_tableINS_17__hash_value_typeINS_12basic_stringIcNS_11char_traitsIcEENS_9allocatorIcEEEEP3PinEENS_22__unordered_map_hasherIS7_SA_NS_4hashIS7_EENS_8equal_toIS7_EELb1EEENS_21__unordered_map_equalIS7_SA_SF_SD_Lb1EEENS5_ISA_EEE8__rehashILb1EEEvm, symObjAddr: 0x7C34, symBinAddr: 0x10000958C, symSize: 0x1A8 }
  - { offsetInCU: 0x22E57, offset: 0x22E57, size: 0x8, addend: 0x0, symName: __ZNSt3__112__hash_tableINS_17__hash_value_typeINS_12basic_stringIcNS_11char_traitsIcEENS_9allocatorIcEEEEP3PinEENS_22__unordered_map_hasherIS7_SA_NS_4hashIS7_EENS_8equal_toIS7_EELb1EEENS_21__unordered_map_equalIS7_SA_SF_SD_Lb1EEENS5_ISA_EEE11__do_rehashILb1EEEvm, symObjAddr: 0x7DDC, symBinAddr: 0x100009734, symSize: 0x288 }
  - { offsetInCU: 0x22F3E, offset: 0x22F3E, size: 0x8, addend: 0x0, symName: __ZNSt3__110unique_ptrIA_PNS_16__hash_node_baseIPNS_11__hash_nodeINS_17__hash_value_typeINS_12basic_stringIcNS_11char_traitsIcEENS_9allocatorIcEEEEP3PinEEPvEEEENS_25__bucket_list_deallocatorINS7_ISH_EEEEE11get_deleterB8ue170006Ev, symObjAddr: 0x80D0, symBinAddr: 0x100009A28, symSize: 0x24 }
  - { offsetInCU: 0x22F64, offset: 0x22F64, size: 0x8, addend: 0x0, symName: __ZNSt3__110unique_ptrIA_PNS_16__hash_node_baseIPNS_11__hash_nodeINS_17__hash_value_typeINS_12basic_stringIcNS_11char_traitsIcEENS_9allocatorIcEEEEP3PinEEPvEEEENS_25__bucket_list_deallocatorINS7_ISH_EEEEE5resetB8ue170006IPSH_EENS_9enable_ifIXsr28_CheckArrayPointerConversionIT_EE5valueEvE4typeESQ_, symObjAddr: 0x80F4, symBinAddr: 0x100009A4C, symSize: 0x78 }
  - { offsetInCU: 0x22FB1, offset: 0x22FB1, size: 0x8, addend: 0x0, symName: __ZNSt3__116allocator_traitsINS_9allocatorIPNS_16__hash_node_baseIPNS_11__hash_nodeINS_17__hash_value_typeINS_12basic_stringIcNS_11char_traitsIcEENS1_IcEEEEP3PinEEPvEEEEEEE8allocateB8ue170006ERSI_m, symObjAddr: 0x816C, symBinAddr: 0x100009AC4, symSize: 0x2C }
  - { offsetInCU: 0x22FE4, offset: 0x22FE4, size: 0x8, addend: 0x0, symName: __ZNSt3__19allocatorIPNS_16__hash_node_baseIPNS_11__hash_nodeINS_17__hash_value_typeINS_12basic_stringIcNS_11char_traitsIcEENS0_IcEEEEP3PinEEPvEEEEE8allocateB8ue170006Em, symObjAddr: 0x8198, symBinAddr: 0x100009AF0, symSize: 0x84 }
  - { offsetInCU: 0x23022, offset: 0x23022, size: 0x8, addend: 0x0, symName: __ZNSt3__116allocator_traitsINS_9allocatorIPNS_16__hash_node_baseIPNS_11__hash_nodeINS_17__hash_value_typeINS_12basic_stringIcNS_11char_traitsIcEENS1_IcEEEEP3PinEEPvEEEEEEE8max_sizeB8ue170006ISI_vEEmRKSI_, symObjAddr: 0x821C, symBinAddr: 0x100009B74, symSize: 0x24 }
  - { offsetInCU: 0x23050, offset: 0x23050, size: 0x8, addend: 0x0, symName: __ZNKSt3__19allocatorIPNS_16__hash_node_baseIPNS_11__hash_nodeINS_17__hash_value_typeINS_12basic_stringIcNS_11char_traitsIcEENS0_IcEEEEP3PinEEPvEEEEE8max_sizeB8ue170006Ev, symObjAddr: 0x8240, symBinAddr: 0x100009B98, symSize: 0x14 }
  - { offsetInCU: 0x23080, offset: 0x23080, size: 0x8, addend: 0x0, symName: __ZNKSt3__16__lessIvvEclB8ue170006ImmEEbRKT_RKT0_, symObjAddr: 0x82C4, symBinAddr: 0x100009C1C, symSize: 0x34 }
  - { offsetInCU: 0x230D4, offset: 0x230D4, size: 0x8, addend: 0x0, symName: __ZNKSt3__117__compressed_pairIPNS_11__hash_nodeINS_17__hash_value_typeINS_12basic_stringIcNS_11char_traitsIcEENS_9allocatorIcEEEEP3PinEEPvEENS_22__hash_node_destructorINS6_ISD_EEEEE5firstB8ue170006Ev, symObjAddr: 0x82F8, symBinAddr: 0x100009C50, symSize: 0x24 }
  - { offsetInCU: 0x230FA, offset: 0x230FA, size: 0x8, addend: 0x0, symName: __ZNKSt3__122__compressed_pair_elemIPNS_11__hash_nodeINS_17__hash_value_typeINS_12basic_stringIcNS_11char_traitsIcEENS_9allocatorIcEEEEP3PinEEPvEELi0ELb0EE5__getB8ue170006Ev, symObjAddr: 0x831C, symBinAddr: 0x100009C74, symSize: 0x14 }
  - { offsetInCU: 0x23120, offset: 0x23120, size: 0x8, addend: 0x0, symName: __ZNSt3__117__compressed_pairIPNS_11__hash_nodeINS_17__hash_value_typeINS_12basic_stringIcNS_11char_traitsIcEENS_9allocatorIcEEEEP3PinEEPvEENS_22__hash_node_destructorINS6_ISD_EEEEE5firstB8ue170006Ev, symObjAddr: 0x8330, symBinAddr: 0x100009C88, symSize: 0x24 }
  - { offsetInCU: 0x23146, offset: 0x23146, size: 0x8, addend: 0x0, symName: __ZNSt3__122__compressed_pair_elemIPNS_11__hash_nodeINS_17__hash_value_typeINS_12basic_stringIcNS_11char_traitsIcEENS_9allocatorIcEEEEP3PinEEPvEELi0ELb0EE5__getB8ue170006Ev, symObjAddr: 0x8354, symBinAddr: 0x100009CAC, symSize: 0x14 }
  - { offsetInCU: 0x2316C, offset: 0x2316C, size: 0x8, addend: 0x0, symName: __ZNSt3__110unique_ptrINS_11__hash_nodeINS_17__hash_value_typeINS_12basic_stringIcNS_11char_traitsIcEENS_9allocatorIcEEEEP3PinEEPvEENS_22__hash_node_destructorINS6_ISD_EEEEED2B8ue170006Ev, symObjAddr: 0x8368, symBinAddr: 0x100009CC0, symSize: 0x30 }
  - { offsetInCU: 0x23196, offset: 0x23196, size: 0x8, addend: 0x0, symName: __ZNSt3__110unique_ptrINS_11__hash_nodeINS_17__hash_value_typeINS_12basic_stringIcNS_11char_traitsIcEENS_9allocatorIcEEEEP3PinEEPvEENS_22__hash_node_destructorINS6_ISD_EEEEE5resetB8ue170006EPSD_, symObjAddr: 0x8398, symBinAddr: 0x100009CF0, symSize: 0x78 }
  - { offsetInCU: 0x231DA, offset: 0x231DA, size: 0x8, addend: 0x0, symName: __ZNSt3__122__hash_node_destructorINS_9allocatorINS_11__hash_nodeINS_17__hash_value_typeINS_12basic_stringIcNS_11char_traitsIcEENS1_IcEEEEP3PinEEPvEEEEEclB8ue170006EPSD_, symObjAddr: 0x8410, symBinAddr: 0x100009D68, symSize: 0xAC }
  - { offsetInCU: 0x2320F, offset: 0x2320F, size: 0x8, addend: 0x0, symName: __ZNSt3__115__hash_iteratorIPNS_11__hash_nodeINS_17__hash_value_typeINS_12basic_stringIcNS_11char_traitsIcEENS_9allocatorIcEEEEP3PinEEPvEEEC2B8ue170006EPNS_16__hash_node_baseISE_EE, symObjAddr: 0x84BC, symBinAddr: 0x100009E14, symSize: 0x20 }
  - { offsetInCU: 0x23248, offset: 0x23248, size: 0x8, addend: 0x0, symName: __ZNSt3__14pairINS_15__hash_iteratorIPNS_11__hash_nodeINS_17__hash_value_typeINS_12basic_stringIcNS_11char_traitsIcEENS_9allocatorIcEEEEP3PinEEPvEEEEbEC2B8ue170006ERKSG_RKb, symObjAddr: 0x84DC, symBinAddr: 0x100009E34, symSize: 0x38 }
  - { offsetInCU: 0x2328E, offset: 0x2328E, size: 0x8, addend: 0x0, symName: __ZNKSt3__121__hash_const_iteratorIPNS_11__hash_nodeINS_17__hash_value_typeINS_12basic_stringIcNS_11char_traitsIcEENS_9allocatorIcEEEEP3PinEEPvEEEptB8ue170006Ev, symObjAddr: 0x8514, symBinAddr: 0x100009E6C, symSize: 0x30 }
  - { offsetInCU: 0x232B4, offset: 0x232B4, size: 0x8, addend: 0x0, symName: __ZNSt3__114pointer_traitsIPKNS_17__hash_value_typeINS_12basic_stringIcNS_11char_traitsIcEENS_9allocatorIcEEEEP3PinEEE10pointer_toB8ue170006ERSB_, symObjAddr: 0x8544, symBinAddr: 0x100009E9C, symSize: 0x14 }
  - { offsetInCU: 0x232D7, offset: 0x232D7, size: 0x8, addend: 0x0, symName: __ZNSt3__121__hash_const_iteratorIPNS_11__hash_nodeINS_17__hash_value_typeINS_12basic_stringIcNS_11char_traitsIcEENS_9allocatorIcEEEEP3PinEEPvEEEppB8ue170006Ev, symObjAddr: 0x8558, symBinAddr: 0x100009EB0, symSize: 0x20 }
  - { offsetInCU: 0x232FD, offset: 0x232FD, size: 0x8, addend: 0x0, symName: __ZNKSt3__112__hash_tableINS_17__hash_value_typeINS_12basic_stringIcNS_11char_traitsIcEENS_9allocatorIcEEEEP3PinEENS_22__unordered_map_hasherIS7_SA_NS_4hashIS7_EENS_8equal_toIS7_EELb1EEENS_21__unordered_map_equalIS7_SA_SF_SD_Lb1EEENS5_ISA_EEE5beginEv, symObjAddr: 0x8578, symBinAddr: 0x100009ED0, symSize: 0x38 }
  - { offsetInCU: 0x23325, offset: 0x23325, size: 0x8, addend: 0x0, symName: __ZNSt3__125__hash_map_const_iteratorINS_21__hash_const_iteratorIPNS_11__hash_nodeINS_17__hash_value_typeINS_12basic_stringIcNS_11char_traitsIcEENS_9allocatorIcEEEEP3PinEEPvEEEEEC1B8ue170006ESG_, symObjAddr: 0x85B0, symBinAddr: 0x100009F08, symSize: 0x34 }
  - { offsetInCU: 0x2335E, offset: 0x2335E, size: 0x8, addend: 0x0, symName: __ZNKSt3__117__compressed_pairINS_16__hash_node_baseIPNS_11__hash_nodeINS_17__hash_value_typeINS_12basic_stringIcNS_11char_traitsIcEENS_9allocatorIcEEEEP3PinEEPvEEEENS7_ISE_EEE5firstB8ue170006Ev, symObjAddr: 0x85E4, symBinAddr: 0x100009F3C, symSize: 0x24 }
  - { offsetInCU: 0x23384, offset: 0x23384, size: 0x8, addend: 0x0, symName: __ZNSt3__121__hash_const_iteratorIPNS_11__hash_nodeINS_17__hash_value_typeINS_12basic_stringIcNS_11char_traitsIcEENS_9allocatorIcEEEEP3PinEEPvEEEC1B8ue170006EPNS_16__hash_node_baseISE_EE, symObjAddr: 0x8608, symBinAddr: 0x100009F60, symSize: 0x34 }
  - { offsetInCU: 0x233BD, offset: 0x233BD, size: 0x8, addend: 0x0, symName: __ZNKSt3__122__compressed_pair_elemINS_16__hash_node_baseIPNS_11__hash_nodeINS_17__hash_value_typeINS_12basic_stringIcNS_11char_traitsIcEENS_9allocatorIcEEEEP3PinEEPvEEEELi0ELb0EE5__getB8ue170006Ev, symObjAddr: 0x863C, symBinAddr: 0x100009F94, symSize: 0x14 }
  - { offsetInCU: 0x233E3, offset: 0x233E3, size: 0x8, addend: 0x0, symName: __ZNSt3__121__hash_const_iteratorIPNS_11__hash_nodeINS_17__hash_value_typeINS_12basic_stringIcNS_11char_traitsIcEENS_9allocatorIcEEEEP3PinEEPvEEEC2B8ue170006EPNS_16__hash_node_baseISE_EE, symObjAddr: 0x8650, symBinAddr: 0x100009FA8, symSize: 0x20 }
  - { offsetInCU: 0x2341C, offset: 0x2341C, size: 0x8, addend: 0x0, symName: __ZNSt3__125__hash_map_const_iteratorINS_21__hash_const_iteratorIPNS_11__hash_nodeINS_17__hash_value_typeINS_12basic_stringIcNS_11char_traitsIcEENS_9allocatorIcEEEEP3PinEEPvEEEEEC2B8ue170006ESG_, symObjAddr: 0x8670, symBinAddr: 0x100009FC8, symSize: 0x20 }
  - { offsetInCU: 0x23455, offset: 0x23455, size: 0x8, addend: 0x0, symName: __ZNKSt3__112__hash_tableINS_17__hash_value_typeINS_12basic_stringIcNS_11char_traitsIcEENS_9allocatorIcEEEEP3PinEENS_22__unordered_map_hasherIS7_SA_NS_4hashIS7_EENS_8equal_toIS7_EELb1EEENS_21__unordered_map_equalIS7_SA_SF_SD_Lb1EEENS5_ISA_EEE3endEv, symObjAddr: 0x8690, symBinAddr: 0x100009FE8, symSize: 0x2C }
  - { offsetInCU: 0x2347D, offset: 0x2347D, size: 0x8, addend: 0x0, symName: __ZN8FlipFlopD2Ev, symObjAddr: 0x86BC, symBinAddr: 0x10000A014, symSize: 0x68 }
  - { offsetInCU: 0x234A9, offset: 0x234A9, size: 0x8, addend: 0x0, symName: __ZN4GateC2ERNSt3__112basic_stringIcNS0_11char_traitsIcEENS0_9allocatorIcEEEEiii, symObjAddr: 0x8724, symBinAddr: 0x10000A07C, symSize: 0x94 }
  - { offsetInCU: 0x2350B, offset: 0x2350B, size: 0x8, addend: 0x0, symName: __ZN4GateD2Ev, symObjAddr: 0x87B8, symBinAddr: 0x10000A110, symSize: 0x68 }
  - { offsetInCU: 0x23537, offset: 0x23537, size: 0x8, addend: 0x0, symName: __ZN9InstanceFC2ENSt3__112basic_stringIcNS0_11char_traitsIcEENS0_9allocatorIcEEEES6_ii, symObjAddr: 0x8820, symBinAddr: 0x10000A178, symSize: 0x1F0 }
  - { offsetInCU: 0x235BD, offset: 0x235BD, size: 0x8, addend: 0x0, symName: __ZN8FlipFlopC1Ev, symObjAddr: 0x8A10, symBinAddr: 0x10000A368, symSize: 0x2C }
  - { offsetInCU: 0x235E7, offset: 0x235E7, size: 0x8, addend: 0x0, symName: __ZNSt3__113unordered_mapINS_12basic_stringIcNS_11char_traitsIcEENS_9allocatorIcEEEEP3PinNS_4hashIS6_EENS_8equal_toIS6_EENS4_INS_4pairIKS6_S8_EEEEE5beginB8ue170006Ev, symObjAddr: 0x8A3C, symBinAddr: 0x10000A394, symSize: 0x38 }
  - { offsetInCU: 0x2360D, offset: 0x2360D, size: 0x8, addend: 0x0, symName: __ZNKSt3__119__hash_map_iteratorINS_15__hash_iteratorIPNS_11__hash_nodeINS_17__hash_value_typeINS_12basic_stringIcNS_11char_traitsIcEENS_9allocatorIcEEEEP3PinEEPvEEEEEptB8ue170006Ev, symObjAddr: 0x8A74, symBinAddr: 0x10000A3CC, symSize: 0x2C }
  - { offsetInCU: 0x23633, offset: 0x23633, size: 0x8, addend: 0x0, symName: __ZNSt3__119__hash_map_iteratorINS_15__hash_iteratorIPNS_11__hash_nodeINS_17__hash_value_typeINS_12basic_stringIcNS_11char_traitsIcEENS_9allocatorIcEEEEP3PinEEPvEEEEEppB8ue170006Ei, symObjAddr: 0x8AA0, symBinAddr: 0x10000A3F8, symSize: 0x34 }
  - { offsetInCU: 0x23674, offset: 0x23674, size: 0x8, addend: 0x0, symName: __ZN8FlipFlopC2Ev, symObjAddr: 0x8AD4, symBinAddr: 0x10000A42C, symSize: 0xBC }
  - { offsetInCU: 0x2369E, offset: 0x2369E, size: 0x8, addend: 0x0, symName: __ZNSt3__112__hash_tableINS_17__hash_value_typeINS_12basic_stringIcNS_11char_traitsIcEENS_9allocatorIcEEEEP3PinEENS_22__unordered_map_hasherIS7_SA_NS_4hashIS7_EENS_8equal_toIS7_EELb1EEENS_21__unordered_map_equalIS7_SA_SF_SD_Lb1EEENS5_ISA_EEE5beginEv, symObjAddr: 0x8B90, symBinAddr: 0x10000A4E8, symSize: 0x38 }
  - { offsetInCU: 0x236C6, offset: 0x236C6, size: 0x8, addend: 0x0, symName: __ZNSt3__119__hash_map_iteratorINS_15__hash_iteratorIPNS_11__hash_nodeINS_17__hash_value_typeINS_12basic_stringIcNS_11char_traitsIcEENS_9allocatorIcEEEEP3PinEEPvEEEEEC1B8ue170006ESG_, symObjAddr: 0x8BC8, symBinAddr: 0x10000A520, symSize: 0x34 }
  - { offsetInCU: 0x236FF, offset: 0x236FF, size: 0x8, addend: 0x0, symName: __ZNSt3__119__hash_map_iteratorINS_15__hash_iteratorIPNS_11__hash_nodeINS_17__hash_value_typeINS_12basic_stringIcNS_11char_traitsIcEENS_9allocatorIcEEEEP3PinEEPvEEEEEC2B8ue170006ESG_, symObjAddr: 0x8BFC, symBinAddr: 0x10000A554, symSize: 0x20 }
  - { offsetInCU: 0x23738, offset: 0x23738, size: 0x8, addend: 0x0, symName: __ZNSt3__114pointer_traitsIPNS_4pairIKNS_12basic_stringIcNS_11char_traitsIcEENS_9allocatorIcEEEEP3PinEEE10pointer_toB8ue170006ERSB_, symObjAddr: 0x8C1C, symBinAddr: 0x10000A574, symSize: 0x14 }
  - { offsetInCU: 0x2375B, offset: 0x2375B, size: 0x8, addend: 0x0, symName: __ZNKSt3__115__hash_iteratorIPNS_11__hash_nodeINS_17__hash_value_typeINS_12basic_stringIcNS_11char_traitsIcEENS_9allocatorIcEEEEP3PinEEPvEEEptB8ue170006Ev, symObjAddr: 0x8C30, symBinAddr: 0x10000A588, symSize: 0x30 }
  - { offsetInCU: 0x23781, offset: 0x23781, size: 0x8, addend: 0x0, symName: __ZNSt3__114pointer_traitsIPNS_17__hash_value_typeINS_12basic_stringIcNS_11char_traitsIcEENS_9allocatorIcEEEEP3PinEEE10pointer_toB8ue170006ERSA_, symObjAddr: 0x8C60, symBinAddr: 0x10000A5B8, symSize: 0x14 }
  - { offsetInCU: 0x237A4, offset: 0x237A4, size: 0x8, addend: 0x0, symName: __ZNSt3__119__hash_map_iteratorINS_15__hash_iteratorIPNS_11__hash_nodeINS_17__hash_value_typeINS_12basic_stringIcNS_11char_traitsIcEENS_9allocatorIcEEEEP3PinEEPvEEEEEppB8ue170006Ev, symObjAddr: 0x8C74, symBinAddr: 0x10000A5CC, symSize: 0x2C }
  - { offsetInCU: 0x237CA, offset: 0x237CA, size: 0x8, addend: 0x0, symName: __ZNSt3__115__hash_iteratorIPNS_11__hash_nodeINS_17__hash_value_typeINS_12basic_stringIcNS_11char_traitsIcEENS_9allocatorIcEEEEP3PinEEPvEEEppB8ue170006Ev, symObjAddr: 0x8CA0, symBinAddr: 0x10000A5F8, symSize: 0x20 }
  - { offsetInCU: 0x237F0, offset: 0x237F0, size: 0x8, addend: 0x0, symName: __ZN9InstanceGC2ENSt3__112basic_stringIcNS0_11char_traitsIcEENS0_9allocatorIcEEEES6_ii, symObjAddr: 0x8CC0, symBinAddr: 0x10000A618, symSize: 0x1F0 }
  - { offsetInCU: 0x23876, offset: 0x23876, size: 0x8, addend: 0x0, symName: __ZN4GateC1Ev, symObjAddr: 0x8EB0, symBinAddr: 0x10000A808, symSize: 0x2C }
  - { offsetInCU: 0x238A0, offset: 0x238A0, size: 0x8, addend: 0x0, symName: __ZN4GateC2Ev, symObjAddr: 0x8EDC, symBinAddr: 0x10000A834, symSize: 0xBC }
  - { offsetInCU: 0x238CA, offset: 0x238CA, size: 0x8, addend: 0x0, symName: __ZN3NetC2ENSt3__112basic_stringIcNS0_11char_traitsIcEENS0_9allocatorIcEEEEi, symObjAddr: 0x8F98, symBinAddr: 0x10000A8F0, symSize: 0xB4 }
  - { offsetInCU: 0x23913, offset: 0x23913, size: 0x8, addend: 0x0, symName: __ZNSt3__118basic_stringstreamIcNS_11char_traitsIcEENS_9allocatorIcEEED2Ev, symObjAddr: 0x904C, symBinAddr: 0x10000A9A4, symSize: 0xA4 }
  - { offsetInCU: 0x2394D, offset: 0x2394D, size: 0x8, addend: 0x0, symName: __ZThn16_NSt3__118basic_stringstreamIcNS_11char_traitsIcEENS_9allocatorIcEEED1Ev, symObjAddr: 0x90F0, symBinAddr: 0x10000AA48, symSize: 0x1C }
  - { offsetInCU: 0x23964, offset: 0x23964, size: 0x8, addend: 0x0, symName: __ZTv0_n24_NSt3__118basic_stringstreamIcNS_11char_traitsIcEENS_9allocatorIcEEED1Ev, symObjAddr: 0x910C, symBinAddr: 0x10000AA64, symSize: 0x28 }
  - { offsetInCU: 0x2397B, offset: 0x2397B, size: 0x8, addend: 0x0, symName: __ZN3Pin10ConnectPinENSt3__112basic_stringIcNS0_11char_traitsIcEENS0_9allocatorIcEEEE, symObjAddr: 0x9134, symBinAddr: 0x10000AA8C, symSize: 0x30 }
  - { offsetInCU: 0x239CE, offset: 0x239CE, size: 0x8, addend: 0x0, symName: __ZNKSt3__113basic_ostreamIcNS_11char_traitsIcEEE6sentrycvbB8ue170006Ev, symObjAddr: 0x93A4, symBinAddr: 0x10000ACFC, symSize: 0x1C }
  - { offsetInCU: 0x239F4, offset: 0x239F4, size: 0x8, addend: 0x0, symName: __ZNSt3__119ostreambuf_iteratorIcNS_11char_traitsIcEEEC1B8ue170006ERNS_13basic_ostreamIcS2_EE, symObjAddr: 0x9608, symBinAddr: 0x10000AF60, symSize: 0x34 }
  - { offsetInCU: 0x23A2C, offset: 0x23A2C, size: 0x8, addend: 0x0, symName: __ZNKSt3__18ios_base5flagsB8ue170006Ev, symObjAddr: 0x963C, symBinAddr: 0x10000AF94, symSize: 0x18 }
  - { offsetInCU: 0x23A54, offset: 0x23A54, size: 0x8, addend: 0x0, symName: __ZNKSt3__19basic_iosIcNS_11char_traitsIcEEE4fillB8ue170006Ev, symObjAddr: 0x9654, symBinAddr: 0x10000AFAC, symSize: 0x64 }
  - { offsetInCU: 0x23A7C, offset: 0x23A7C, size: 0x8, addend: 0x0, symName: __ZNKSt3__119ostreambuf_iteratorIcNS_11char_traitsIcEEE6failedB8ue170006Ev, symObjAddr: 0x96B8, symBinAddr: 0x10000B010, symSize: 0x24 }
  - { offsetInCU: 0x23AA2, offset: 0x23AA2, size: 0x8, addend: 0x0, symName: __ZNSt3__19basic_iosIcNS_11char_traitsIcEEE8setstateB8ue170006Ej, symObjAddr: 0x96DC, symBinAddr: 0x10000B034, symSize: 0x2C }
  - { offsetInCU: 0x23AD7, offset: 0x23AD7, size: 0x8, addend: 0x0, symName: __ZNKSt3__18ios_base5widthB8ue170006Ev, symObjAddr: 0x9708, symBinAddr: 0x10000B060, symSize: 0x18 }
  - { offsetInCU: 0x23AFF, offset: 0x23AFF, size: 0x8, addend: 0x0, symName: __ZNSt3__115basic_streambufIcNS_11char_traitsIcEEE5sputnB8ue170006EPKcl, symObjAddr: 0x9720, symBinAddr: 0x10000B078, symSize: 0x3C }
  - { offsetInCU: 0x23B41, offset: 0x23B41, size: 0x8, addend: 0x0, symName: __ZNSt3__112basic_stringIcNS_11char_traitsIcEENS_9allocatorIcEEEC1B8ue170006Emc, symObjAddr: 0x975C, symBinAddr: 0x10000B0B4, symSize: 0x3C }
  - { offsetInCU: 0x23B89, offset: 0x23B89, size: 0x8, addend: 0x0, symName: __ZNSt3__18ios_base5widthB8ue170006El, symObjAddr: 0x9798, symBinAddr: 0x10000B0F0, symSize: 0x2C }
  - { offsetInCU: 0x23BCF, offset: 0x23BCF, size: 0x8, addend: 0x0, symName: __ZNSt3__112basic_stringIcNS_11char_traitsIcEENS_9allocatorIcEEEC2B8ue170006Emc, symObjAddr: 0x97C4, symBinAddr: 0x10000B11C, symSize: 0x4C }
  - { offsetInCU: 0x23C17, offset: 0x23C17, size: 0x8, addend: 0x0, symName: __ZNSt3__117__compressed_pairINS_12basic_stringIcNS_11char_traitsIcEENS_9allocatorIcEEE5__repES5_EC1B8ue170006INS_18__default_init_tagESA_EEOT_OT0_, symObjAddr: 0x9810, symBinAddr: 0x10000B168, symSize: 0x3C }
  - { offsetInCU: 0x23C6F, offset: 0x23C6F, size: 0x8, addend: 0x0, symName: __ZNSt3__117__compressed_pairINS_12basic_stringIcNS_11char_traitsIcEENS_9allocatorIcEEE5__repES5_EC2B8ue170006INS_18__default_init_tagESA_EEOT_OT0_, symObjAddr: 0x984C, symBinAddr: 0x10000B1A4, symSize: 0x3C }
  - { offsetInCU: 0x23CC7, offset: 0x23CC7, size: 0x8, addend: 0x0, symName: __ZNSt3__122__compressed_pair_elemINS_12basic_stringIcNS_11char_traitsIcEENS_9allocatorIcEEE5__repELi0ELb0EEC2B8ue170006ENS_18__default_init_tagE, symObjAddr: 0x9888, symBinAddr: 0x10000B1E0, symSize: 0x14 }
  - { offsetInCU: 0x23CFC, offset: 0x23CFC, size: 0x8, addend: 0x0, symName: __ZNSt3__122__compressed_pair_elemINS_9allocatorIcEELi1ELb1EEC2B8ue170006ENS_18__default_init_tagE, symObjAddr: 0x989C, symBinAddr: 0x10000B1F4, symSize: 0x2C }
  - { offsetInCU: 0x23D31, offset: 0x23D31, size: 0x8, addend: 0x0, symName: __ZNSt3__19allocatorIcEC2B8ue170006Ev, symObjAddr: 0x98C8, symBinAddr: 0x10000B220, symSize: 0x2C }
  - { offsetInCU: 0x23D5B, offset: 0x23D5B, size: 0x8, addend: 0x0, symName: __ZNSt3__116__non_trivial_ifILb1ENS_9allocatorIcEEEC2B8ue170006Ev, symObjAddr: 0x98F4, symBinAddr: 0x10000B24C, symSize: 0x14 }
  - { offsetInCU: 0x23D85, offset: 0x23D85, size: 0x8, addend: 0x0, symName: __ZNSt3__119ostreambuf_iteratorIcNS_11char_traitsIcEEEC2B8ue170006ERNS_13basic_ostreamIcS2_EE, symObjAddr: 0x9908, symBinAddr: 0x10000B260, symSize: 0x68 }
  - { offsetInCU: 0x23DBD, offset: 0x23DBD, size: 0x8, addend: 0x0, symName: __ZNKSt3__19basic_iosIcNS_11char_traitsIcEEE5rdbufB8ue170006Ev, symObjAddr: 0x9970, symBinAddr: 0x10000B2C8, symSize: 0x24 }
  - { offsetInCU: 0x23DE5, offset: 0x23DE5, size: 0x8, addend: 0x0, symName: __ZNKSt3__18ios_base5rdbufB8ue170006Ev, symObjAddr: 0x9994, symBinAddr: 0x10000B2EC, symSize: 0x18 }
  - { offsetInCU: 0x23E0B, offset: 0x23E0B, size: 0x8, addend: 0x0, symName: __ZNSt3__111char_traitsIcE11eq_int_typeB8ue170006Eii, symObjAddr: 0x99AC, symBinAddr: 0x10000B304, symSize: 0x28 }
  - { offsetInCU: 0x23E3E, offset: 0x23E3E, size: 0x8, addend: 0x0, symName: __ZNSt3__111char_traitsIcE3eofB8ue170006Ev, symObjAddr: 0x99D4, symBinAddr: 0x10000B32C, symSize: 0x8 }
  - { offsetInCU: 0x23E52, offset: 0x23E52, size: 0x8, addend: 0x0, symName: __ZNKSt3__19basic_iosIcNS_11char_traitsIcEEE5widenB8ue170006Ec, symObjAddr: 0x99DC, symBinAddr: 0x10000B334, symSize: 0x8C }
  - { offsetInCU: 0x23EB6, offset: 0x23EB6, size: 0x8, addend: 0x0, symName: __ZNKSt3__15ctypeIcE5widenB8ue170006Ec, symObjAddr: 0x9A94, symBinAddr: 0x10000B3EC, symSize: 0x38 }
  - { offsetInCU: 0x23EEB, offset: 0x23EEB, size: 0x8, addend: 0x0, symName: __ZNSt3__18ios_base8setstateB8ue170006Ej, symObjAddr: 0x9ACC, symBinAddr: 0x10000B424, symSize: 0x34 }
  - { offsetInCU: 0x23F22, offset: 0x23F22, size: 0x8, addend: 0x0, symName: __ZNSt3__112basic_stringIcNS_11char_traitsIcEENS_9allocatorIcEEEC2B8ue170006Ev, symObjAddr: 0x9B00, symBinAddr: 0x10000B458, symSize: 0x3C }
  - { offsetInCU: 0x23F4C, offset: 0x23F4C, size: 0x8, addend: 0x0, symName: __ZNSt3__112basic_stringIcNS_11char_traitsIcEENS_9allocatorIcEEE14__default_initB8ue170006Ev, symObjAddr: 0x9B3C, symBinAddr: 0x10000B494, symSize: 0xB0 }
  - { offsetInCU: 0x23F9F, offset: 0x23F9F, size: 0x8, addend: 0x0, symName: __ZNSt3__117__compressed_pairINS_12basic_stringIcNS_11char_traitsIcEENS_9allocatorIcEEE5__repES5_E5firstB8ue170006Ev, symObjAddr: 0x9BEC, symBinAddr: 0x10000B544, symSize: 0x24 }
  - { offsetInCU: 0x23FC5, offset: 0x23FC5, size: 0x8, addend: 0x0, symName: __ZNSt3__112basic_stringIcNS_11char_traitsIcEENS_9allocatorIcEEE11__recommendB8ue170006Em, symObjAddr: 0x9C10, symBinAddr: 0x10000B568, symSize: 0x9C }
  - { offsetInCU: 0x23FF8, offset: 0x23FF8, size: 0x8, addend: 0x0, symName: __ZNSt3__116allocator_traitsINS_9allocatorIcEEE8allocateB8ue170006ERS2_m, symObjAddr: 0x9CAC, symBinAddr: 0x10000B604, symSize: 0x2C }
  - { offsetInCU: 0x2402B, offset: 0x2402B, size: 0x8, addend: 0x0, symName: __ZNSt3__112basic_stringIcNS_11char_traitsIcEENS_9allocatorIcEEE7__allocB8ue170006Ev, symObjAddr: 0x9CD8, symBinAddr: 0x10000B630, symSize: 0x24 }
  - { offsetInCU: 0x24051, offset: 0x24051, size: 0x8, addend: 0x0, symName: __ZNSt3__112basic_stringIcNS_11char_traitsIcEENS_9allocatorIcEEE16__begin_lifetimeB8ue170006EPcm, symObjAddr: 0x9CFC, symBinAddr: 0x10000B654, symSize: 0x14 }
  - { offsetInCU: 0x24084, offset: 0x24084, size: 0x8, addend: 0x0, symName: __ZNSt3__112basic_stringIcNS_11char_traitsIcEENS_9allocatorIcEEE18__set_long_pointerB8ue170006EPc, symObjAddr: 0x9D10, symBinAddr: 0x10000B668, symSize: 0x38 }
  - { offsetInCU: 0x240B9, offset: 0x240B9, size: 0x8, addend: 0x0, symName: __ZNSt3__112basic_stringIcNS_11char_traitsIcEENS_9allocatorIcEEE14__set_long_capB8ue170006Em, symObjAddr: 0x9D48, symBinAddr: 0x10000B6A0, symSize: 0x70 }
  - { offsetInCU: 0x240EE, offset: 0x240EE, size: 0x8, addend: 0x0, symName: __ZNSt3__112basic_stringIcNS_11char_traitsIcEENS_9allocatorIcEEE15__set_long_sizeB8ue170006Em, symObjAddr: 0x9DB8, symBinAddr: 0x10000B710, symSize: 0x38 }
  - { offsetInCU: 0x24123, offset: 0x24123, size: 0x8, addend: 0x0, symName: __ZNSt3__122__compressed_pair_elemINS_12basic_stringIcNS_11char_traitsIcEENS_9allocatorIcEEE5__repELi0ELb0EE5__getB8ue170006Ev, symObjAddr: 0x9DF0, symBinAddr: 0x10000B748, symSize: 0x14 }
  - { offsetInCU: 0x24149, offset: 0x24149, size: 0x8, addend: 0x0, symName: __ZNSt3__112basic_stringIcNS_11char_traitsIcEENS_9allocatorIcEEE10__align_itB8ue170006ILm16EEEmm, symObjAddr: 0x9E04, symBinAddr: 0x10000B75C, symSize: 0x1C }
  - { offsetInCU: 0x24177, offset: 0x24177, size: 0x8, addend: 0x0, symName: __ZNSt3__19allocatorIcE8allocateB8ue170006Em, symObjAddr: 0x9E20, symBinAddr: 0x10000B778, symSize: 0x84 }
  - { offsetInCU: 0x241B5, offset: 0x241B5, size: 0x8, addend: 0x0, symName: __ZNSt3__116allocator_traitsINS_9allocatorIcEEE8max_sizeB8ue170006IS2_vEEmRKS2_, symObjAddr: 0x9EA4, symBinAddr: 0x10000B7FC, symSize: 0x24 }
  - { offsetInCU: 0x241E3, offset: 0x241E3, size: 0x8, addend: 0x0, symName: __ZNKSt3__19allocatorIcE8max_sizeB8ue170006Ev, symObjAddr: 0x9EC8, symBinAddr: 0x10000B820, symSize: 0x14 }
  - { offsetInCU: 0x24209, offset: 0x24209, size: 0x8, addend: 0x0, symName: __ZNSt3__117__compressed_pairINS_12basic_stringIcNS_11char_traitsIcEENS_9allocatorIcEEE5__repES5_E6secondB8ue170006Ev, symObjAddr: 0x9EDC, symBinAddr: 0x10000B834, symSize: 0x24 }
  - { offsetInCU: 0x2422F, offset: 0x2422F, size: 0x8, addend: 0x0, symName: __ZNSt3__122__compressed_pair_elemINS_9allocatorIcEELi1ELb1EE5__getB8ue170006Ev, symObjAddr: 0x9F00, symBinAddr: 0x10000B858, symSize: 0x14 }
  - { offsetInCU: 0x24255, offset: 0x24255, size: 0x8, addend: 0x0, symName: __ZNSt3__111char_traitsIcE6lengthB8ue170006EPKc, symObjAddr: 0x9F14, symBinAddr: 0x10000B86C, symSize: 0x48 }
  - { offsetInCU: 0x24278, offset: 0x24278, size: 0x8, addend: 0x0, symName: __ZNSt3__113unordered_mapINS_12basic_stringIcNS_11char_traitsIcEENS_9allocatorIcEEEEP3PinNS_4hashIS6_EENS_8equal_toIS6_EENS4_INS_4pairIKS6_S8_EEEEE25__construct_node_with_keyERSE_, symObjAddr: 0x9F80, symBinAddr: 0x10000B8D8, symSize: 0x144 }
  - { offsetInCU: 0x242CE, offset: 0x242CE, size: 0x8, addend: 0x0, symName: __ZNSt3__112__hash_tableINS_17__hash_value_typeINS_12basic_stringIcNS_11char_traitsIcEENS_9allocatorIcEEEEP3PinEENS_22__unordered_map_hasherIS7_SA_NS_4hashIS7_EENS_8equal_toIS7_EELb1EEENS_21__unordered_map_equalIS7_SA_SF_SD_Lb1EEENS5_ISA_EEE20__node_insert_uniqueEPNS_11__hash_nodeISA_PvEE, symObjAddr: 0xA0C4, symBinAddr: 0x10000BA1C, symSize: 0xC4 }
  - { offsetInCU: 0x24323, offset: 0x24323, size: 0x8, addend: 0x0, symName: __ZNKSt3__110unique_ptrINS_11__hash_nodeINS_17__hash_value_typeINS_12basic_stringIcNS_11char_traitsIcEENS_9allocatorIcEEEEP3PinEEPvEENS_26__hash_map_node_destructorINS6_ISD_EEEEE3getB8ue170006Ev, symObjAddr: 0xA188, symBinAddr: 0x10000BAE0, symSize: 0x28 }
  - { offsetInCU: 0x24349, offset: 0x24349, size: 0x8, addend: 0x0, symName: __ZNSt3__14pairINS_19__hash_map_iteratorINS_15__hash_iteratorIPNS_11__hash_nodeINS_17__hash_value_typeINS_12basic_stringIcNS_11char_traitsIcEENS_9allocatorIcEEEEP3PinEEPvEEEEEEbEC1B8ue170006ISH_bEERKNS0_IT_T0_EE, symObjAddr: 0xA1B0, symBinAddr: 0x10000BB08, symSize: 0x34 }
  - { offsetInCU: 0x24393, offset: 0x24393, size: 0x8, addend: 0x0, symName: __ZNSt3__110unique_ptrINS_11__hash_nodeINS_17__hash_value_typeINS_12basic_stringIcNS_11char_traitsIcEENS_9allocatorIcEEEEP3PinEEPvEENS_26__hash_map_node_destructorINS6_ISD_EEEEE7releaseB8ue170006Ev, symObjAddr: 0xA1E4, symBinAddr: 0x10000BB3C, symSize: 0x44 }
  - { offsetInCU: 0x243C8, offset: 0x243C8, size: 0x8, addend: 0x0, symName: __ZNSt3__110unique_ptrINS_11__hash_nodeINS_17__hash_value_typeINS_12basic_stringIcNS_11char_traitsIcEENS_9allocatorIcEEEEP3PinEEPvEENS_26__hash_map_node_destructorINS6_ISD_EEEEED1B8ue170006Ev, symObjAddr: 0xA228, symBinAddr: 0x10000BB80, symSize: 0x2C }
  - { offsetInCU: 0x243F2, offset: 0x243F2, size: 0x8, addend: 0x0, symName: __ZNSt3__126__hash_map_node_destructorINS_9allocatorINS_11__hash_nodeINS_17__hash_value_typeINS_12basic_stringIcNS_11char_traitsIcEENS1_IcEEEEP3PinEEPvEEEEEC1B8ue170006ERSE_, symObjAddr: 0xA254, symBinAddr: 0x10000BBAC, symSize: 0x34 }
  - { offsetInCU: 0x24430, offset: 0x24430, size: 0x8, addend: 0x0, symName: __ZNSt3__110unique_ptrINS_11__hash_nodeINS_17__hash_value_typeINS_12basic_stringIcNS_11char_traitsIcEENS_9allocatorIcEEEEP3PinEEPvEENS_26__hash_map_node_destructorINS6_ISD_EEEEEC1B8ue170006ILb1EvEEPSD_NS_16__dependent_typeINS_27__unique_ptr_deleter_sfinaeISG_EEXT_EE20__good_rval_ref_typeE, symObjAddr: 0xA288, symBinAddr: 0x10000BBE0, symSize: 0x3C }
  - { offsetInCU: 0x24486, offset: 0x24486, size: 0x8, addend: 0x0, symName: __ZNSt3__116allocator_traitsINS_9allocatorINS_11__hash_nodeINS_17__hash_value_typeINS_12basic_stringIcNS_11char_traitsIcEENS1_IcEEEEP3PinEEPvEEEEE9constructB8ue170006IKS8_JRSH_EvEEvRSE_PT_DpOT0_, symObjAddr: 0xA2C4, symBinAddr: 0x10000BC1C, symSize: 0x34 }
  - { offsetInCU: 0x244DD, offset: 0x244DD, size: 0x8, addend: 0x0, symName: __ZNKSt3__110unique_ptrINS_11__hash_nodeINS_17__hash_value_typeINS_12basic_stringIcNS_11char_traitsIcEENS_9allocatorIcEEEEP3PinEEPvEENS_26__hash_map_node_destructorINS6_ISD_EEEEEptB8ue170006Ev, symObjAddr: 0xA2F8, symBinAddr: 0x10000BC50, symSize: 0x28 }
  - { offsetInCU: 0x24503, offset: 0x24503, size: 0x8, addend: 0x0, symName: __ZNSt3__110unique_ptrINS_11__hash_nodeINS_17__hash_value_typeINS_12basic_stringIcNS_11char_traitsIcEENS_9allocatorIcEEEEP3PinEEPvEENS_26__hash_map_node_destructorINS6_ISD_EEEEE11get_deleterB8ue170006Ev, symObjAddr: 0xA320, symBinAddr: 0x10000BC78, symSize: 0x24 }
  - { offsetInCU: 0x2452E, offset: 0x2452E, size: 0x8, addend: 0x0, symName: __ZNSt3__116allocator_traitsINS_9allocatorINS_11__hash_nodeINS_17__hash_value_typeINS_12basic_stringIcNS_11char_traitsIcEENS1_IcEEEEP3PinEEPvEEEEE9constructB8ue170006ISA_JEvEEvRSE_PT_DpOT0_, symObjAddr: 0xA344, symBinAddr: 0x10000BC9C, symSize: 0x2C }
  - { offsetInCU: 0x24570, offset: 0x24570, size: 0x8, addend: 0x0, symName: __ZNSt3__126__hash_map_node_destructorINS_9allocatorINS_11__hash_nodeINS_17__hash_value_typeINS_12basic_stringIcNS_11char_traitsIcEENS1_IcEEEEP3PinEEPvEEEEEC2B8ue170006ERSE_, symObjAddr: 0xA370, symBinAddr: 0x10000BCC8, symSize: 0x28 }
  - { offsetInCU: 0x245A9, offset: 0x245A9, size: 0x8, addend: 0x0, symName: __ZNSt3__110unique_ptrINS_11__hash_nodeINS_17__hash_value_typeINS_12basic_stringIcNS_11char_traitsIcEENS_9allocatorIcEEEEP3PinEEPvEENS_26__hash_map_node_destructorINS6_ISD_EEEEEC2B8ue170006ILb1EvEEPSD_NS_16__dependent_typeINS_27__unique_ptr_deleter_sfinaeISG_EEXT_EE20__good_rval_ref_typeE, symObjAddr: 0xA398, symBinAddr: 0x10000BCF0, symSize: 0x5C }
  - { offsetInCU: 0x245FA, offset: 0x245FA, size: 0x8, addend: 0x0, symName: __ZNSt3__117__compressed_pairIPNS_11__hash_nodeINS_17__hash_value_typeINS_12basic_stringIcNS_11char_traitsIcEENS_9allocatorIcEEEEP3PinEEPvEENS_26__hash_map_node_destructorINS6_ISD_EEEEEC1B8ue170006IRSE_SH_EEOT_OT0_, symObjAddr: 0xA3F4, symBinAddr: 0x10000BD4C, symSize: 0x3C }
  - { offsetInCU: 0x24652, offset: 0x24652, size: 0x8, addend: 0x0, symName: __ZNSt3__117__compressed_pairIPNS_11__hash_nodeINS_17__hash_value_typeINS_12basic_stringIcNS_11char_traitsIcEENS_9allocatorIcEEEEP3PinEEPvEENS_26__hash_map_node_destructorINS6_ISD_EEEEEC2B8ue170006IRSE_SH_EEOT_OT0_, symObjAddr: 0xA430, symBinAddr: 0x10000BD88, symSize: 0x48 }
  - { offsetInCU: 0x246AA, offset: 0x246AA, size: 0x8, addend: 0x0, symName: __ZNSt3__122__compressed_pair_elemINS_26__hash_map_node_destructorINS_9allocatorINS_11__hash_nodeINS_17__hash_value_typeINS_12basic_stringIcNS_11char_traitsIcEENS2_IcEEEEP3PinEEPvEEEEEELi1ELb0EEC2B8ue170006ISG_vEEOT_, symObjAddr: 0xA478, symBinAddr: 0x10000BDD0, symSize: 0x24 }
  - { offsetInCU: 0x246EC, offset: 0x246EC, size: 0x8, addend: 0x0, symName: __ZNSt3__19allocatorINS_11__hash_nodeINS_17__hash_value_typeINS_12basic_stringIcNS_11char_traitsIcEENS0_IcEEEEP3PinEEPvEEE9constructB8ue170006IKS7_JRSF_EEEvPT_DpOT0_, symObjAddr: 0xA49C, symBinAddr: 0x10000BDF4, symSize: 0x30 }
  - { offsetInCU: 0x24742, offset: 0x24742, size: 0x8, addend: 0x0, symName: __ZNKSt3__117__compressed_pairIPNS_11__hash_nodeINS_17__hash_value_typeINS_12basic_stringIcNS_11char_traitsIcEENS_9allocatorIcEEEEP3PinEEPvEENS_26__hash_map_node_destructorINS6_ISD_EEEEE5firstB8ue170006Ev, symObjAddr: 0xA4CC, symBinAddr: 0x10000BE24, symSize: 0x24 }
  - { offsetInCU: 0x24768, offset: 0x24768, size: 0x8, addend: 0x0, symName: __ZNSt3__117__compressed_pairIPNS_11__hash_nodeINS_17__hash_value_typeINS_12basic_stringIcNS_11char_traitsIcEENS_9allocatorIcEEEEP3PinEEPvEENS_26__hash_map_node_destructorINS6_ISD_EEEEE6secondB8ue170006Ev, symObjAddr: 0xA4F0, symBinAddr: 0x10000BE48, symSize: 0x28 }
  - { offsetInCU: 0x2478E, offset: 0x2478E, size: 0x8, addend: 0x0, symName: __ZNSt3__122__compressed_pair_elemINS_26__hash_map_node_destructorINS_9allocatorINS_11__hash_nodeINS_17__hash_value_typeINS_12basic_stringIcNS_11char_traitsIcEENS2_IcEEEEP3PinEEPvEEEEEELi1ELb0EE5__getB8ue170006Ev, symObjAddr: 0xA518, symBinAddr: 0x10000BE70, symSize: 0x14 }
  - { offsetInCU: 0x247B4, offset: 0x247B4, size: 0x8, addend: 0x0, symName: __ZNSt3__19allocatorINS_11__hash_nodeINS_17__hash_value_typeINS_12basic_stringIcNS_11char_traitsIcEENS0_IcEEEEP3PinEEPvEEE9constructB8ue170006IS9_JEEEvPT_DpOT0_, symObjAddr: 0xA52C, symBinAddr: 0x10000BE84, symSize: 0x1C }
  - { offsetInCU: 0x247F6, offset: 0x247F6, size: 0x8, addend: 0x0, symName: __ZNKSt3__122__unordered_map_hasherINS_12basic_stringIcNS_11char_traitsIcEENS_9allocatorIcEEEENS_17__hash_value_typeIS6_P3PinEENS_4hashIS6_EENS_8equal_toIS6_EELb1EEclB8ue170006ERKSA_, symObjAddr: 0xA548, symBinAddr: 0x10000BEA0, symSize: 0x3C }
  - { offsetInCU: 0x2482B, offset: 0x2482B, size: 0x8, addend: 0x0, symName: __ZNSt3__112__hash_tableINS_17__hash_value_typeINS_12basic_stringIcNS_11char_traitsIcEENS_9allocatorIcEEEEP3PinEENS_22__unordered_map_hasherIS7_SA_NS_4hashIS7_EENS_8equal_toIS7_EELb1EEENS_21__unordered_map_equalIS7_SA_SF_SD_Lb1EEENS5_ISA_EEE28__node_insert_unique_prepareB8ue170006EmRSA_, symObjAddr: 0xA584, symBinAddr: 0x10000BEDC, symSize: 0x290 }
  - { offsetInCU: 0x248AD, offset: 0x248AD, size: 0x8, addend: 0x0, symName: __ZNSt3__112__hash_tableINS_17__hash_value_typeINS_12basic_stringIcNS_11char_traitsIcEENS_9allocatorIcEEEEP3PinEENS_22__unordered_map_hasherIS7_SA_NS_4hashIS7_EENS_8equal_toIS7_EELb1EEENS_21__unordered_map_equalIS7_SA_SF_SD_Lb1EEENS5_ISA_EEE28__node_insert_unique_performB8ue170006EPNS_11__hash_nodeISA_PvEE, symObjAddr: 0xA814, symBinAddr: 0x10000C16C, symSize: 0x154 }
  - { offsetInCU: 0x24911, offset: 0x24911, size: 0x8, addend: 0x0, symName: __ZNKSt3__121__unordered_map_equalINS_12basic_stringIcNS_11char_traitsIcEENS_9allocatorIcEEEENS_17__hash_value_typeIS6_P3PinEENS_8equal_toIS6_EENS_4hashIS6_EELb1EEclB8ue170006ERKSA_SH_, symObjAddr: 0xA968, symBinAddr: 0x10000C2C0, symSize: 0x54 }
  - { offsetInCU: 0x24955, offset: 0x24955, size: 0x8, addend: 0x0, symName: __ZNSt3__14pairINS_19__hash_map_iteratorINS_15__hash_iteratorIPNS_11__hash_nodeINS_17__hash_value_typeINS_12basic_stringIcNS_11char_traitsIcEENS_9allocatorIcEEEEP3PinEEPvEEEEEEbEC2B8ue170006ISH_bEERKNS0_IT_T0_EE, symObjAddr: 0xA9BC, symBinAddr: 0x10000C314, symSize: 0x50 }
  - { offsetInCU: 0x2499F, offset: 0x2499F, size: 0x8, addend: 0x0, symName: __ZNSt3__117__compressed_pairIPNS_11__hash_nodeINS_17__hash_value_typeINS_12basic_stringIcNS_11char_traitsIcEENS_9allocatorIcEEEEP3PinEEPvEENS_26__hash_map_node_destructorINS6_ISD_EEEEE5firstB8ue170006Ev, symObjAddr: 0xAA0C, symBinAddr: 0x10000C364, symSize: 0x24 }
  - { offsetInCU: 0x249C5, offset: 0x249C5, size: 0x8, addend: 0x0, symName: __ZNSt3__110unique_ptrINS_11__hash_nodeINS_17__hash_value_typeINS_12basic_stringIcNS_11char_traitsIcEENS_9allocatorIcEEEEP3PinEEPvEENS_26__hash_map_node_destructorINS6_ISD_EEEEED2B8ue170006Ev, symObjAddr: 0xAA30, symBinAddr: 0x10000C388, symSize: 0x30 }
  - { offsetInCU: 0x249EF, offset: 0x249EF, size: 0x8, addend: 0x0, symName: __ZNSt3__110unique_ptrINS_11__hash_nodeINS_17__hash_value_typeINS_12basic_stringIcNS_11char_traitsIcEENS_9allocatorIcEEEEP3PinEEPvEENS_26__hash_map_node_destructorINS6_ISD_EEEEE5resetB8ue170006EPSD_, symObjAddr: 0xAA60, symBinAddr: 0x10000C3B8, symSize: 0x78 }
  - { offsetInCU: 0x24A33, offset: 0x24A33, size: 0x8, addend: 0x0, symName: __ZNSt3__126__hash_map_node_destructorINS_9allocatorINS_11__hash_nodeINS_17__hash_value_typeINS_12basic_stringIcNS_11char_traitsIcEENS1_IcEEEEP3PinEEPvEEEEEclB8ue170006EPSD_, symObjAddr: 0xAAD8, symBinAddr: 0x10000C430, symSize: 0xE4 }
  - { offsetInCU: 0x24A68, offset: 0x24A68, size: 0x8, addend: 0x0, symName: __ZNSt3__116allocator_traitsINS_9allocatorINS_11__hash_nodeINS_17__hash_value_typeINS_12basic_stringIcNS_11char_traitsIcEENS1_IcEEEEP3PinEEPvEEEEE7destroyB8ue170006ISA_vvEEvRSE_PT_, symObjAddr: 0xABBC, symBinAddr: 0x10000C514, symSize: 0x14 }
  - { offsetInCU: 0x24AA3, offset: 0x24AA3, size: 0x8, addend: 0x0, symName: __ZNSt3__116allocator_traitsINS_9allocatorINS_11__hash_nodeINS_17__hash_value_typeINS_12basic_stringIcNS_11char_traitsIcEENS1_IcEEEEP3PinEEPvEEEEE7destroyB8ue170006IKS8_vvEEvRSE_PT_, symObjAddr: 0xABD0, symBinAddr: 0x10000C528, symSize: 0x28 }
  - { offsetInCU: 0x24ADE, offset: 0x24ADE, size: 0x8, addend: 0x0, symName: __ZNSt3__112__hash_tableINS_17__hash_value_typeINS_12basic_stringIcNS_11char_traitsIcEENS_9allocatorIcEEEEP3PinEENS_22__unordered_map_hasherIS7_SA_NS_4hashIS7_EENS_8equal_toIS7_EELb1EEENS_21__unordered_map_equalIS7_SA_SF_SD_Lb1EEENS5_ISA_EEE3endEv, symObjAddr: 0xABF8, symBinAddr: 0x10000C550, symSize: 0x2C }
  - { offsetInCU: 0x24B06, offset: 0x24B06, size: 0x8, addend: 0x0, symName: __ZNSt3__113unordered_mapINS_12basic_stringIcNS_11char_traitsIcEENS_9allocatorIcEEEE8FlipFlopNS_4hashIS6_EENS_8equal_toIS6_EENS4_INS_4pairIKS6_S7_EEEEEC2B8ue170006Ev, symObjAddr: 0xAC88, symBinAddr: 0x10000C5E0, symSize: 0x2C }
  - { offsetInCU: 0x24B30, offset: 0x24B30, size: 0x8, addend: 0x0, symName: __ZNSt3__112__hash_tableINS_17__hash_value_typeINS_12basic_stringIcNS_11char_traitsIcEENS_9allocatorIcEEEE8FlipFlopEENS_22__unordered_map_hasherIS7_S9_NS_4hashIS7_EENS_8equal_toIS7_EELb1EEENS_21__unordered_map_equalIS7_S9_SE_SC_Lb1EEENS5_IS9_EEEC1Ev, symObjAddr: 0xACB4, symBinAddr: 0x10000C60C, symSize: 0x2C }
  - { offsetInCU: 0x24B5C, offset: 0x24B5C, size: 0x8, addend: 0x0, symName: __ZNSt3__112__hash_tableINS_17__hash_value_typeINS_12basic_stringIcNS_11char_traitsIcEENS_9allocatorIcEEEE8FlipFlopEENS_22__unordered_map_hasherIS7_S9_NS_4hashIS7_EENS_8equal_toIS7_EELb1EEENS_21__unordered_map_equalIS7_S9_SE_SC_Lb1EEENS5_IS9_EEEC2Ev, symObjAddr: 0xACE0, symBinAddr: 0x10000C638, symSize: 0xA4 }
  - { offsetInCU: 0x24B88, offset: 0x24B88, size: 0x8, addend: 0x0, symName: __ZNSt3__110unique_ptrIA_PNS_16__hash_node_baseIPNS_11__hash_nodeINS_17__hash_value_typeINS_12basic_stringIcNS_11char_traitsIcEENS_9allocatorIcEEEE8FlipFlopEEPvEEEENS_25__bucket_list_deallocatorINS7_ISG_EEEEEC1B8ue170006ILb1EvEEv, symObjAddr: 0xAD84, symBinAddr: 0x10000C6DC, symSize: 0x2C }
  - { offsetInCU: 0x24BBD, offset: 0x24BBD, size: 0x8, addend: 0x0, symName: __ZNSt3__117__compressed_pairINS_16__hash_node_baseIPNS_11__hash_nodeINS_17__hash_value_typeINS_12basic_stringIcNS_11char_traitsIcEENS_9allocatorIcEEEE8FlipFlopEEPvEEEENS7_ISD_EEEC1B8ue170006ILb1EvEEv, symObjAddr: 0xADB0, symBinAddr: 0x10000C708, symSize: 0x2C }
  - { offsetInCU: 0x24BF2, offset: 0x24BF2, size: 0x8, addend: 0x0, symName: __ZNSt3__117__compressed_pairImNS_22__unordered_map_hasherINS_12basic_stringIcNS_11char_traitsIcEENS_9allocatorIcEEEENS_17__hash_value_typeIS7_8FlipFlopEENS_4hashIS7_EENS_8equal_toIS7_EELb1EEEEC1B8ue170006IiNS_18__default_init_tagEEEOT_OT0_, symObjAddr: 0xADDC, symBinAddr: 0x10000C734, symSize: 0x3C }
  - { offsetInCU: 0x24C4A, offset: 0x24C4A, size: 0x8, addend: 0x0, symName: __ZNSt3__117__compressed_pairIfNS_21__unordered_map_equalINS_12basic_stringIcNS_11char_traitsIcEENS_9allocatorIcEEEENS_17__hash_value_typeIS7_8FlipFlopEENS_8equal_toIS7_EENS_4hashIS7_EELb1EEEEC1B8ue170006IfNS_18__default_init_tagEEEOT_OT0_, symObjAddr: 0xAE18, symBinAddr: 0x10000C770, symSize: 0x3C }
  - { offsetInCU: 0x24CA2, offset: 0x24CA2, size: 0x8, addend: 0x0, symName: __ZNSt3__110unique_ptrIA_PNS_16__hash_node_baseIPNS_11__hash_nodeINS_17__hash_value_typeINS_12basic_stringIcNS_11char_traitsIcEENS_9allocatorIcEEEE8FlipFlopEEPvEEEENS_25__bucket_list_deallocatorINS7_ISG_EEEEED1B8ue170006Ev, symObjAddr: 0xAE54, symBinAddr: 0x10000C7AC, symSize: 0x2C }
  - { offsetInCU: 0x24CCC, offset: 0x24CCC, size: 0x8, addend: 0x0, symName: __ZNSt3__110unique_ptrIA_PNS_16__hash_node_baseIPNS_11__hash_nodeINS_17__hash_value_typeINS_12basic_stringIcNS_11char_traitsIcEENS_9allocatorIcEEEE8FlipFlopEEPvEEEENS_25__bucket_list_deallocatorINS7_ISG_EEEEEC2B8ue170006ILb1EvEEv, symObjAddr: 0xAE80, symBinAddr: 0x10000C7D8, symSize: 0x50 }
  - { offsetInCU: 0x24D01, offset: 0x24D01, size: 0x8, addend: 0x0, symName: __ZNSt3__117__compressed_pairIPPNS_16__hash_node_baseIPNS_11__hash_nodeINS_17__hash_value_typeINS_12basic_stringIcNS_11char_traitsIcEENS_9allocatorIcEEEE8FlipFlopEEPvEEEENS_25__bucket_list_deallocatorINS7_ISG_EEEEEC1B8ue170006INS_16__value_init_tagESN_EEOT_OT0_, symObjAddr: 0xAED0, symBinAddr: 0x10000C828, symSize: 0x3C }
  - { offsetInCU: 0x24D59, offset: 0x24D59, size: 0x8, addend: 0x0, symName: __ZNSt3__117__compressed_pairIPPNS_16__hash_node_baseIPNS_11__hash_nodeINS_17__hash_value_typeINS_12basic_stringIcNS_11char_traitsIcEENS_9allocatorIcEEEE8FlipFlopEEPvEEEENS_25__bucket_list_deallocatorINS7_ISG_EEEEEC2B8ue170006INS_16__value_init_tagESN_EEOT_OT0_, symObjAddr: 0xAF0C, symBinAddr: 0x10000C864, symSize: 0x40 }
  - { offsetInCU: 0x24DB1, offset: 0x24DB1, size: 0x8, addend: 0x0, symName: __ZNSt3__122__compressed_pair_elemIPPNS_16__hash_node_baseIPNS_11__hash_nodeINS_17__hash_value_typeINS_12basic_stringIcNS_11char_traitsIcEENS_9allocatorIcEEEE8FlipFlopEEPvEEEELi0ELb0EEC2B8ue170006ENS_16__value_init_tagE, symObjAddr: 0xAF4C, symBinAddr: 0x10000C8A4, symSize: 0x18 }
  - { offsetInCU: 0x24DE6, offset: 0x24DE6, size: 0x8, addend: 0x0, symName: __ZNSt3__122__compressed_pair_elemINS_25__bucket_list_deallocatorINS_9allocatorIPNS_16__hash_node_baseIPNS_11__hash_nodeINS_17__hash_value_typeINS_12basic_stringIcNS_11char_traitsIcEENS2_IcEEEE8FlipFlopEEPvEEEEEEEELi1ELb0EEC2B8ue170006ENS_16__value_init_tagE, symObjAddr: 0xAF64, symBinAddr: 0x10000C8BC, symSize: 0x2C }
  - { offsetInCU: 0x24E1B, offset: 0x24E1B, size: 0x8, addend: 0x0, symName: __ZNSt3__125__bucket_list_deallocatorINS_9allocatorIPNS_16__hash_node_baseIPNS_11__hash_nodeINS_17__hash_value_typeINS_12basic_stringIcNS_11char_traitsIcEENS1_IcEEEE8FlipFlopEEPvEEEEEEEC1B8ue170006Ev, symObjAddr: 0xAF90, symBinAddr: 0x10000C8E8, symSize: 0x2C }
  - { offsetInCU: 0x24E45, offset: 0x24E45, size: 0x8, addend: 0x0, symName: __ZNSt3__125__bucket_list_deallocatorINS_9allocatorIPNS_16__hash_node_baseIPNS_11__hash_nodeINS_17__hash_value_typeINS_12basic_stringIcNS_11char_traitsIcEENS1_IcEEEE8FlipFlopEEPvEEEEEEEC2B8ue170006Ev, symObjAddr: 0xAFBC, symBinAddr: 0x10000C914, symSize: 0x38 }
  - { offsetInCU: 0x24E6F, offset: 0x24E6F, size: 0x8, addend: 0x0, symName: __ZNSt3__117__compressed_pairImNS_9allocatorIPNS_16__hash_node_baseIPNS_11__hash_nodeINS_17__hash_value_typeINS_12basic_stringIcNS_11char_traitsIcEENS1_IcEEEE8FlipFlopEEPvEEEEEEEC1B8ue170006IiNS_18__default_init_tagEEEOT_OT0_, symObjAddr: 0xAFF4, symBinAddr: 0x10000C94C, symSize: 0x3C }
  - { offsetInCU: 0x24EC7, offset: 0x24EC7, size: 0x8, addend: 0x0, symName: __ZNSt3__117__compressed_pairImNS_9allocatorIPNS_16__hash_node_baseIPNS_11__hash_nodeINS_17__hash_value_typeINS_12basic_stringIcNS_11char_traitsIcEENS1_IcEEEE8FlipFlopEEPvEEEEEEEC2B8ue170006IiNS_18__default_init_tagEEEOT_OT0_, symObjAddr: 0xB030, symBinAddr: 0x10000C988, symSize: 0x40 }
  - { offsetInCU: 0x24F1F, offset: 0x24F1F, size: 0x8, addend: 0x0, symName: __ZNSt3__122__compressed_pair_elemINS_9allocatorIPNS_16__hash_node_baseIPNS_11__hash_nodeINS_17__hash_value_typeINS_12basic_stringIcNS_11char_traitsIcEENS1_IcEEEE8FlipFlopEEPvEEEEEELi1ELb1EEC2B8ue170006ENS_18__default_init_tagE, symObjAddr: 0xB070, symBinAddr: 0x10000C9C8, symSize: 0x2C }
  - { offsetInCU: 0x24F54, offset: 0x24F54, size: 0x8, addend: 0x0, symName: __ZNSt3__19allocatorIPNS_16__hash_node_baseIPNS_11__hash_nodeINS_17__hash_value_typeINS_12basic_stringIcNS_11char_traitsIcEENS0_IcEEEE8FlipFlopEEPvEEEEEC2B8ue170006Ev, symObjAddr: 0xB09C, symBinAddr: 0x10000C9F4, symSize: 0x2C }
  - { offsetInCU: 0x24F7E, offset: 0x24F7E, size: 0x8, addend: 0x0, symName: __ZNSt3__116__non_trivial_ifILb1ENS_9allocatorIPNS_16__hash_node_baseIPNS_11__hash_nodeINS_17__hash_value_typeINS_12basic_stringIcNS_11char_traitsIcEENS1_IcEEEE8FlipFlopEEPvEEEEEEEC2B8ue170006Ev, symObjAddr: 0xB0C8, symBinAddr: 0x10000CA20, symSize: 0x14 }
  - { offsetInCU: 0x24FA8, offset: 0x24FA8, size: 0x8, addend: 0x0, symName: __ZNSt3__117__compressed_pairINS_16__hash_node_baseIPNS_11__hash_nodeINS_17__hash_value_typeINS_12basic_stringIcNS_11char_traitsIcEENS_9allocatorIcEEEE8FlipFlopEEPvEEEENS7_ISD_EEEC2B8ue170006ILb1EvEEv, symObjAddr: 0xB0DC, symBinAddr: 0x10000CA34, symSize: 0x34 }
  - { offsetInCU: 0x24FDD, offset: 0x24FDD, size: 0x8, addend: 0x0, symName: __ZNSt3__122__compressed_pair_elemINS_16__hash_node_baseIPNS_11__hash_nodeINS_17__hash_value_typeINS_12basic_stringIcNS_11char_traitsIcEENS_9allocatorIcEEEE8FlipFlopEEPvEEEELi0ELb0EEC2B8ue170006ENS_16__value_init_tagE, symObjAddr: 0xB110, symBinAddr: 0x10000CA68, symSize: 0x2C }
  - { offsetInCU: 0x25012, offset: 0x25012, size: 0x8, addend: 0x0, symName: __ZNSt3__122__compressed_pair_elemINS_9allocatorINS_11__hash_nodeINS_17__hash_value_typeINS_12basic_stringIcNS_11char_traitsIcEENS1_IcEEEE8FlipFlopEEPvEEEELi1ELb1EEC2B8ue170006ENS_16__value_init_tagE, symObjAddr: 0xB13C, symBinAddr: 0x10000CA94, symSize: 0x2C }
  - { offsetInCU: 0x25047, offset: 0x25047, size: 0x8, addend: 0x0, symName: __ZNSt3__116__hash_node_baseIPNS_11__hash_nodeINS_17__hash_value_typeINS_12basic_stringIcNS_11char_traitsIcEENS_9allocatorIcEEEE8FlipFlopEEPvEEEC1B8ue170006Ev, symObjAddr: 0xB168, symBinAddr: 0x10000CAC0, symSize: 0x2C }
  - { offsetInCU: 0x25071, offset: 0x25071, size: 0x8, addend: 0x0, symName: __ZNSt3__116__hash_node_baseIPNS_11__hash_nodeINS_17__hash_value_typeINS_12basic_stringIcNS_11char_traitsIcEENS_9allocatorIcEEEE8FlipFlopEEPvEEEC2B8ue170006Ev, symObjAddr: 0xB194, symBinAddr: 0x10000CAEC, symSize: 0x18 }
  - { offsetInCU: 0x2509B, offset: 0x2509B, size: 0x8, addend: 0x0, symName: __ZNSt3__19allocatorINS_11__hash_nodeINS_17__hash_value_typeINS_12basic_stringIcNS_11char_traitsIcEENS0_IcEEEE8FlipFlopEEPvEEEC2B8ue170006Ev, symObjAddr: 0xB1AC, symBinAddr: 0x10000CB04, symSize: 0x2C }
  - { offsetInCU: 0x250C5, offset: 0x250C5, size: 0x8, addend: 0x0, symName: __ZNSt3__116__non_trivial_ifILb1ENS_9allocatorINS_11__hash_nodeINS_17__hash_value_typeINS_12basic_stringIcNS_11char_traitsIcEENS1_IcEEEE8FlipFlopEEPvEEEEEC2B8ue170006Ev, symObjAddr: 0xB1D8, symBinAddr: 0x10000CB30, symSize: 0x14 }
  - { offsetInCU: 0x250EF, offset: 0x250EF, size: 0x8, addend: 0x0, symName: __ZNSt3__117__compressed_pairImNS_22__unordered_map_hasherINS_12basic_stringIcNS_11char_traitsIcEENS_9allocatorIcEEEENS_17__hash_value_typeIS7_8FlipFlopEENS_4hashIS7_EENS_8equal_toIS7_EELb1EEEEC2B8ue170006IiNS_18__default_init_tagEEEOT_OT0_, symObjAddr: 0xB1EC, symBinAddr: 0x10000CB44, symSize: 0x40 }
  - { offsetInCU: 0x25147, offset: 0x25147, size: 0x8, addend: 0x0, symName: __ZNSt3__122__compressed_pair_elemINS_22__unordered_map_hasherINS_12basic_stringIcNS_11char_traitsIcEENS_9allocatorIcEEEENS_17__hash_value_typeIS7_8FlipFlopEENS_4hashIS7_EENS_8equal_toIS7_EELb1EEELi1ELb1EEC2B8ue170006ENS_18__default_init_tagE, symObjAddr: 0xB22C, symBinAddr: 0x10000CB84, symSize: 0x2C }
  - { offsetInCU: 0x2517C, offset: 0x2517C, size: 0x8, addend: 0x0, symName: __ZNSt3__122__unordered_map_hasherINS_12basic_stringIcNS_11char_traitsIcEENS_9allocatorIcEEEENS_17__hash_value_typeIS6_8FlipFlopEENS_4hashIS6_EENS_8equal_toIS6_EELb1EEC2B8ue170006Ev, symObjAddr: 0xB258, symBinAddr: 0x10000CBB0, symSize: 0x14 }
  - { offsetInCU: 0x251A6, offset: 0x251A6, size: 0x8, addend: 0x0, symName: __ZNSt3__117__compressed_pairIfNS_21__unordered_map_equalINS_12basic_stringIcNS_11char_traitsIcEENS_9allocatorIcEEEENS_17__hash_value_typeIS7_8FlipFlopEENS_8equal_toIS7_EENS_4hashIS7_EELb1EEEEC2B8ue170006IfNS_18__default_init_tagEEEOT_OT0_, symObjAddr: 0xB26C, symBinAddr: 0x10000CBC4, symSize: 0x40 }
  - { offsetInCU: 0x251FE, offset: 0x251FE, size: 0x8, addend: 0x0, symName: __ZNSt3__122__compressed_pair_elemINS_21__unordered_map_equalINS_12basic_stringIcNS_11char_traitsIcEENS_9allocatorIcEEEENS_17__hash_value_typeIS7_8FlipFlopEENS_8equal_toIS7_EENS_4hashIS7_EELb1EEELi1ELb1EEC2B8ue170006ENS_18__default_init_tagE, symObjAddr: 0xB2AC, symBinAddr: 0x10000CC04, symSize: 0x2C }
  - { offsetInCU: 0x25233, offset: 0x25233, size: 0x8, addend: 0x0, symName: __ZNSt3__121__unordered_map_equalINS_12basic_stringIcNS_11char_traitsIcEENS_9allocatorIcEEEENS_17__hash_value_typeIS6_8FlipFlopEENS_8equal_toIS6_EENS_4hashIS6_EELb1EEC2B8ue170006Ev, symObjAddr: 0xB2D8, symBinAddr: 0x10000CC30, symSize: 0x14 }
  - { offsetInCU: 0x2525D, offset: 0x2525D, size: 0x8, addend: 0x0, symName: __ZNSt3__110unique_ptrIA_PNS_16__hash_node_baseIPNS_11__hash_nodeINS_17__hash_value_typeINS_12basic_stringIcNS_11char_traitsIcEENS_9allocatorIcEEEE8FlipFlopEEPvEEEENS_25__bucket_list_deallocatorINS7_ISG_EEEEED2B8ue170006Ev, symObjAddr: 0xB2EC, symBinAddr: 0x10000CC44, symSize: 0x30 }
  - { offsetInCU: 0x25287, offset: 0x25287, size: 0x8, addend: 0x0, symName: __ZNSt3__110unique_ptrIA_PNS_16__hash_node_baseIPNS_11__hash_nodeINS_17__hash_value_typeINS_12basic_stringIcNS_11char_traitsIcEENS_9allocatorIcEEEE8FlipFlopEEPvEEEENS_25__bucket_list_deallocatorINS7_ISG_EEEEE5resetB8ue170006EDn, symObjAddr: 0xB31C, symBinAddr: 0x10000CC74, symSize: 0x6C }
  - { offsetInCU: 0x252C8, offset: 0x252C8, size: 0x8, addend: 0x0, symName: __ZNSt3__117__compressed_pairIPPNS_16__hash_node_baseIPNS_11__hash_nodeINS_17__hash_value_typeINS_12basic_stringIcNS_11char_traitsIcEENS_9allocatorIcEEEE8FlipFlopEEPvEEEENS_25__bucket_list_deallocatorINS7_ISG_EEEEE5firstB8ue170006Ev, symObjAddr: 0xB388, symBinAddr: 0x10000CCE0, symSize: 0x24 }
  - { offsetInCU: 0x252EE, offset: 0x252EE, size: 0x8, addend: 0x0, symName: __ZNSt3__117__compressed_pairIPPNS_16__hash_node_baseIPNS_11__hash_nodeINS_17__hash_value_typeINS_12basic_stringIcNS_11char_traitsIcEENS_9allocatorIcEEEE8FlipFlopEEPvEEEENS_25__bucket_list_deallocatorINS7_ISG_EEEEE6secondB8ue170006Ev, symObjAddr: 0xB3AC, symBinAddr: 0x10000CD04, symSize: 0x28 }
  - { offsetInCU: 0x25314, offset: 0x25314, size: 0x8, addend: 0x0, symName: __ZNSt3__125__bucket_list_deallocatorINS_9allocatorIPNS_16__hash_node_baseIPNS_11__hash_nodeINS_17__hash_value_typeINS_12basic_stringIcNS_11char_traitsIcEENS1_IcEEEE8FlipFlopEEPvEEEEEEEclB8ue170006EPSG_, symObjAddr: 0xB3D4, symBinAddr: 0x10000CD2C, symSize: 0x58 }
  - { offsetInCU: 0x25349, offset: 0x25349, size: 0x8, addend: 0x0, symName: __ZNSt3__122__compressed_pair_elemIPPNS_16__hash_node_baseIPNS_11__hash_nodeINS_17__hash_value_typeINS_12basic_stringIcNS_11char_traitsIcEENS_9allocatorIcEEEE8FlipFlopEEPvEEEELi0ELb0EE5__getB8ue170006Ev, symObjAddr: 0xB42C, symBinAddr: 0x10000CD84, symSize: 0x14 }
  - { offsetInCU: 0x2536F, offset: 0x2536F, size: 0x8, addend: 0x0, symName: __ZNSt3__122__compressed_pair_elemINS_25__bucket_list_deallocatorINS_9allocatorIPNS_16__hash_node_baseIPNS_11__hash_nodeINS_17__hash_value_typeINS_12basic_stringIcNS_11char_traitsIcEENS2_IcEEEE8FlipFlopEEPvEEEEEEEELi1ELb0EE5__getB8ue170006Ev, symObjAddr: 0xB440, symBinAddr: 0x10000CD98, symSize: 0x14 }
  - { offsetInCU: 0x25395, offset: 0x25395, size: 0x8, addend: 0x0, symName: __ZNSt3__116allocator_traitsINS_9allocatorIPNS_16__hash_node_baseIPNS_11__hash_nodeINS_17__hash_value_typeINS_12basic_stringIcNS_11char_traitsIcEENS1_IcEEEE8FlipFlopEEPvEEEEEEE10deallocateB8ue170006ERSH_PSG_m, symObjAddr: 0xB454, symBinAddr: 0x10000CDAC, symSize: 0x34 }
  - { offsetInCU: 0x253D7, offset: 0x253D7, size: 0x8, addend: 0x0, symName: __ZNSt3__125__bucket_list_deallocatorINS_9allocatorIPNS_16__hash_node_baseIPNS_11__hash_nodeINS_17__hash_value_typeINS_12basic_stringIcNS_11char_traitsIcEENS1_IcEEEE8FlipFlopEEPvEEEEEEE7__allocB8ue170006Ev, symObjAddr: 0xB488, symBinAddr: 0x10000CDE0, symSize: 0x24 }
  - { offsetInCU: 0x253FD, offset: 0x253FD, size: 0x8, addend: 0x0, symName: __ZNSt3__125__bucket_list_deallocatorINS_9allocatorIPNS_16__hash_node_baseIPNS_11__hash_nodeINS_17__hash_value_typeINS_12basic_stringIcNS_11char_traitsIcEENS1_IcEEEE8FlipFlopEEPvEEEEEEE4sizeB8ue170006Ev, symObjAddr: 0xB4AC, symBinAddr: 0x10000CE04, symSize: 0x24 }
  - { offsetInCU: 0x25423, offset: 0x25423, size: 0x8, addend: 0x0, symName: __ZNSt3__19allocatorIPNS_16__hash_node_baseIPNS_11__hash_nodeINS_17__hash_value_typeINS_12basic_stringIcNS_11char_traitsIcEENS0_IcEEEE8FlipFlopEEPvEEEEE10deallocateB8ue170006EPSF_m, symObjAddr: 0xB4D0, symBinAddr: 0x10000CE28, symSize: 0x70 }
  - { offsetInCU: 0x25465, offset: 0x25465, size: 0x8, addend: 0x0, symName: __ZNSt3__117__compressed_pairImNS_9allocatorIPNS_16__hash_node_baseIPNS_11__hash_nodeINS_17__hash_value_typeINS_12basic_stringIcNS_11char_traitsIcEENS1_IcEEEE8FlipFlopEEPvEEEEEEE6secondB8ue170006Ev, symObjAddr: 0xB540, symBinAddr: 0x10000CE98, symSize: 0x24 }
  - { offsetInCU: 0x2548B, offset: 0x2548B, size: 0x8, addend: 0x0, symName: __ZNSt3__122__compressed_pair_elemINS_9allocatorIPNS_16__hash_node_baseIPNS_11__hash_nodeINS_17__hash_value_typeINS_12basic_stringIcNS_11char_traitsIcEENS1_IcEEEE8FlipFlopEEPvEEEEEELi1ELb1EE5__getB8ue170006Ev, symObjAddr: 0xB564, symBinAddr: 0x10000CEBC, symSize: 0x14 }
  - { offsetInCU: 0x254B1, offset: 0x254B1, size: 0x8, addend: 0x0, symName: __ZNSt3__117__compressed_pairImNS_9allocatorIPNS_16__hash_node_baseIPNS_11__hash_nodeINS_17__hash_value_typeINS_12basic_stringIcNS_11char_traitsIcEENS1_IcEEEE8FlipFlopEEPvEEEEEEE5firstB8ue170006Ev, symObjAddr: 0xB578, symBinAddr: 0x10000CED0, symSize: 0x24 }
  - { offsetInCU: 0x254D7, offset: 0x254D7, size: 0x8, addend: 0x0, symName: __ZNSt3__113unordered_mapINS_12basic_stringIcNS_11char_traitsIcEENS_9allocatorIcEEEE8FlipFlopNS_4hashIS6_EENS_8equal_toIS6_EENS4_INS_4pairIKS6_S7_EEEEED2B8ue170006Ev, symObjAddr: 0xB59C, symBinAddr: 0x10000CEF4, symSize: 0x2C }
  - { offsetInCU: 0x25501, offset: 0x25501, size: 0x8, addend: 0x0, symName: __ZNSt3__112__hash_tableINS_17__hash_value_typeINS_12basic_stringIcNS_11char_traitsIcEENS_9allocatorIcEEEE8FlipFlopEENS_22__unordered_map_hasherIS7_S9_NS_4hashIS7_EENS_8equal_toIS7_EELb1EEENS_21__unordered_map_equalIS7_S9_SE_SC_Lb1EEENS5_IS9_EEED1Ev, symObjAddr: 0xB5C8, symBinAddr: 0x10000CF20, symSize: 0x2C }
  - { offsetInCU: 0x2552D, offset: 0x2552D, size: 0x8, addend: 0x0, symName: __ZNSt3__112__hash_tableINS_17__hash_value_typeINS_12basic_stringIcNS_11char_traitsIcEENS_9allocatorIcEEEE8FlipFlopEENS_22__unordered_map_hasherIS7_S9_NS_4hashIS7_EENS_8equal_toIS7_EELb1EEENS_21__unordered_map_equalIS7_S9_SE_SC_Lb1EEENS5_IS9_EEED2Ev, symObjAddr: 0xB5F4, symBinAddr: 0x10000CF4C, symSize: 0x48 }
  - { offsetInCU: 0x25559, offset: 0x25559, size: 0x8, addend: 0x0, symName: __ZNSt3__112__hash_tableINS_17__hash_value_typeINS_12basic_stringIcNS_11char_traitsIcEENS_9allocatorIcEEEE8FlipFlopEENS_22__unordered_map_hasherIS7_S9_NS_4hashIS7_EENS_8equal_toIS7_EELb1EEENS_21__unordered_map_equalIS7_S9_SE_SC_Lb1EEENS5_IS9_EEE17__deallocate_nodeEPNS_16__hash_node_baseIPNS_11__hash_nodeIS9_PvEEEE, symObjAddr: 0xB63C, symBinAddr: 0x10000CF94, symSize: 0xBC }
  - { offsetInCU: 0x255C3, offset: 0x255C3, size: 0x8, addend: 0x0, symName: __ZNSt3__117__compressed_pairINS_16__hash_node_baseIPNS_11__hash_nodeINS_17__hash_value_typeINS_12basic_stringIcNS_11char_traitsIcEENS_9allocatorIcEEEE8FlipFlopEEPvEEEENS7_ISD_EEE5firstB8ue170006Ev, symObjAddr: 0xB6F8, symBinAddr: 0x10000D050, symSize: 0x24 }
  - { offsetInCU: 0x255E9, offset: 0x255E9, size: 0x8, addend: 0x0, symName: __ZNSt3__112__hash_tableINS_17__hash_value_typeINS_12basic_stringIcNS_11char_traitsIcEENS_9allocatorIcEEEE8FlipFlopEENS_22__unordered_map_hasherIS7_S9_NS_4hashIS7_EENS_8equal_toIS7_EELb1EEENS_21__unordered_map_equalIS7_S9_SE_SC_Lb1EEENS5_IS9_EEE12__node_allocB8ue170006Ev, symObjAddr: 0xB71C, symBinAddr: 0x10000D074, symSize: 0x28 }
  - { offsetInCU: 0x2560F, offset: 0x2560F, size: 0x8, addend: 0x0, symName: __ZNSt3__116__hash_node_baseIPNS_11__hash_nodeINS_17__hash_value_typeINS_12basic_stringIcNS_11char_traitsIcEENS_9allocatorIcEEEE8FlipFlopEEPvEEE8__upcastB8ue170006Ev, symObjAddr: 0xB744, symBinAddr: 0x10000D09C, symSize: 0x24 }
  - { offsetInCU: 0x25635, offset: 0x25635, size: 0x8, addend: 0x0, symName: __ZNSt3__116allocator_traitsINS_9allocatorINS_11__hash_nodeINS_17__hash_value_typeINS_12basic_stringIcNS_11char_traitsIcEENS1_IcEEEE8FlipFlopEEPvEEEEE7destroyB8ue170006INS_4pairIKS8_S9_EEvvEEvRSD_PT_, symObjAddr: 0xB768, symBinAddr: 0x10000D0C0, symSize: 0x28 }
  - { offsetInCU: 0x25670, offset: 0x25670, size: 0x8, addend: 0x0, symName: __ZNSt3__122__hash_key_value_typesINS_17__hash_value_typeINS_12basic_stringIcNS_11char_traitsIcEENS_9allocatorIcEEEE8FlipFlopEEE9__get_ptrB8ue170006ERS9_, symObjAddr: 0xB790, symBinAddr: 0x10000D0E8, symSize: 0x24 }
  - { offsetInCU: 0x25693, offset: 0x25693, size: 0x8, addend: 0x0, symName: __ZNSt3__116allocator_traitsINS_9allocatorINS_11__hash_nodeINS_17__hash_value_typeINS_12basic_stringIcNS_11char_traitsIcEENS1_IcEEEE8FlipFlopEEPvEEEEE10deallocateB8ue170006ERSD_PSC_m, symObjAddr: 0xB7B4, symBinAddr: 0x10000D10C, symSize: 0x34 }
  - { offsetInCU: 0x256D5, offset: 0x256D5, size: 0x8, addend: 0x0, symName: __ZNSt3__117__compressed_pairINS_16__hash_node_baseIPNS_11__hash_nodeINS_17__hash_value_typeINS_12basic_stringIcNS_11char_traitsIcEENS_9allocatorIcEEEE8FlipFlopEEPvEEEENS7_ISD_EEE6secondB8ue170006Ev, symObjAddr: 0xB7E8, symBinAddr: 0x10000D140, symSize: 0x24 }
  - { offsetInCU: 0x256FB, offset: 0x256FB, size: 0x8, addend: 0x0, symName: __ZNSt3__122__compressed_pair_elemINS_9allocatorINS_11__hash_nodeINS_17__hash_value_typeINS_12basic_stringIcNS_11char_traitsIcEENS1_IcEEEE8FlipFlopEEPvEEEELi1ELb1EE5__getB8ue170006Ev, symObjAddr: 0xB80C, symBinAddr: 0x10000D164, symSize: 0x14 }
  - { offsetInCU: 0x25721, offset: 0x25721, size: 0x8, addend: 0x0, symName: __ZNSt3__114pointer_traitsIPNS_16__hash_node_baseIPNS_11__hash_nodeINS_17__hash_value_typeINS_12basic_stringIcNS_11char_traitsIcEENS_9allocatorIcEEEE8FlipFlopEEPvEEEEE10pointer_toB8ue170006ERSF_, symObjAddr: 0xB820, symBinAddr: 0x10000D178, symSize: 0x14 }
  - { offsetInCU: 0x25744, offset: 0x25744, size: 0x8, addend: 0x0, symName: __ZNSt3__14pairIKNS_12basic_stringIcNS_11char_traitsIcEENS_9allocatorIcEEEE8FlipFlopED1Ev, symObjAddr: 0xB834, symBinAddr: 0x10000D18C, symSize: 0x2C }
  - { offsetInCU: 0x25770, offset: 0x25770, size: 0x8, addend: 0x0, symName: __ZNSt3__14pairIKNS_12basic_stringIcNS_11char_traitsIcEENS_9allocatorIcEEEE8FlipFlopED2Ev, symObjAddr: 0xB860, symBinAddr: 0x10000D1B8, symSize: 0x68 }
  - { offsetInCU: 0x2579C, offset: 0x2579C, size: 0x8, addend: 0x0, symName: __ZNSt3__117__hash_value_typeINS_12basic_stringIcNS_11char_traitsIcEENS_9allocatorIcEEEE8FlipFlopE11__get_valueB8ue170006Ev, symObjAddr: 0xB8C8, symBinAddr: 0x10000D220, symSize: 0x14 }
  - { offsetInCU: 0x257C2, offset: 0x257C2, size: 0x8, addend: 0x0, symName: __ZNSt3__19allocatorINS_11__hash_nodeINS_17__hash_value_typeINS_12basic_stringIcNS_11char_traitsIcEENS0_IcEEEE8FlipFlopEEPvEEE10deallocateB8ue170006EPSB_m, symObjAddr: 0xB8DC, symBinAddr: 0x10000D234, symSize: 0x70 }
  - { offsetInCU: 0x25804, offset: 0x25804, size: 0x8, addend: 0x0, symName: __ZNSt3__122__compressed_pair_elemINS_16__hash_node_baseIPNS_11__hash_nodeINS_17__hash_value_typeINS_12basic_stringIcNS_11char_traitsIcEENS_9allocatorIcEEEE8FlipFlopEEPvEEEELi0ELb0EE5__getB8ue170006Ev, symObjAddr: 0xB94C, symBinAddr: 0x10000D2A4, symSize: 0x14 }
  - { offsetInCU: 0x2582A, offset: 0x2582A, size: 0x8, addend: 0x0, symName: __ZNSt3__113unordered_mapINS_12basic_stringIcNS_11char_traitsIcEENS_9allocatorIcEEEE4GateNS_4hashIS6_EENS_8equal_toIS6_EENS4_INS_4pairIKS6_S7_EEEEEC2B8ue170006Ev, symObjAddr: 0xB960, symBinAddr: 0x10000D2B8, symSize: 0x2C }
  - { offsetInCU: 0x25854, offset: 0x25854, size: 0x8, addend: 0x0, symName: __ZNSt3__112__hash_tableINS_17__hash_value_typeINS_12basic_stringIcNS_11char_traitsIcEENS_9allocatorIcEEEE4GateEENS_22__unordered_map_hasherIS7_S9_NS_4hashIS7_EENS_8equal_toIS7_EELb1EEENS_21__unordered_map_equalIS7_S9_SE_SC_Lb1EEENS5_IS9_EEEC1Ev, symObjAddr: 0xB98C, symBinAddr: 0x10000D2E4, symSize: 0x2C }
  - { offsetInCU: 0x25880, offset: 0x25880, size: 0x8, addend: 0x0, symName: __ZNSt3__112__hash_tableINS_17__hash_value_typeINS_12basic_stringIcNS_11char_traitsIcEENS_9allocatorIcEEEE4GateEENS_22__unordered_map_hasherIS7_S9_NS_4hashIS7_EENS_8equal_toIS7_EELb1EEENS_21__unordered_map_equalIS7_S9_SE_SC_Lb1EEENS5_IS9_EEEC2Ev, symObjAddr: 0xB9B8, symBinAddr: 0x10000D310, symSize: 0xA4 }
  - { offsetInCU: 0x258AC, offset: 0x258AC, size: 0x8, addend: 0x0, symName: __ZNSt3__110unique_ptrIA_PNS_16__hash_node_baseIPNS_11__hash_nodeINS_17__hash_value_typeINS_12basic_stringIcNS_11char_traitsIcEENS_9allocatorIcEEEE4GateEEPvEEEENS_25__bucket_list_deallocatorINS7_ISG_EEEEEC1B8ue170006ILb1EvEEv, symObjAddr: 0xBA5C, symBinAddr: 0x10000D3B4, symSize: 0x2C }
  - { offsetInCU: 0x258E1, offset: 0x258E1, size: 0x8, addend: 0x0, symName: __ZNSt3__117__compressed_pairINS_16__hash_node_baseIPNS_11__hash_nodeINS_17__hash_value_typeINS_12basic_stringIcNS_11char_traitsIcEENS_9allocatorIcEEEE4GateEEPvEEEENS7_ISD_EEEC1B8ue170006ILb1EvEEv, symObjAddr: 0xBA88, symBinAddr: 0x10000D3E0, symSize: 0x2C }
  - { offsetInCU: 0x25916, offset: 0x25916, size: 0x8, addend: 0x0, symName: __ZNSt3__117__compressed_pairImNS_22__unordered_map_hasherINS_12basic_stringIcNS_11char_traitsIcEENS_9allocatorIcEEEENS_17__hash_value_typeIS7_4GateEENS_4hashIS7_EENS_8equal_toIS7_EELb1EEEEC1B8ue170006IiNS_18__default_init_tagEEEOT_OT0_, symObjAddr: 0xBAB4, symBinAddr: 0x10000D40C, symSize: 0x3C }
  - { offsetInCU: 0x2596E, offset: 0x2596E, size: 0x8, addend: 0x0, symName: __ZNSt3__117__compressed_pairIfNS_21__unordered_map_equalINS_12basic_stringIcNS_11char_traitsIcEENS_9allocatorIcEEEENS_17__hash_value_typeIS7_4GateEENS_8equal_toIS7_EENS_4hashIS7_EELb1EEEEC1B8ue170006IfNS_18__default_init_tagEEEOT_OT0_, symObjAddr: 0xBAF0, symBinAddr: 0x10000D448, symSize: 0x3C }
  - { offsetInCU: 0x259C6, offset: 0x259C6, size: 0x8, addend: 0x0, symName: __ZNSt3__110unique_ptrIA_PNS_16__hash_node_baseIPNS_11__hash_nodeINS_17__hash_value_typeINS_12basic_stringIcNS_11char_traitsIcEENS_9allocatorIcEEEE4GateEEPvEEEENS_25__bucket_list_deallocatorINS7_ISG_EEEEED1B8ue170006Ev, symObjAddr: 0xBB2C, symBinAddr: 0x10000D484, symSize: 0x2C }
  - { offsetInCU: 0x259F0, offset: 0x259F0, size: 0x8, addend: 0x0, symName: __ZNSt3__110unique_ptrIA_PNS_16__hash_node_baseIPNS_11__hash_nodeINS_17__hash_value_typeINS_12basic_stringIcNS_11char_traitsIcEENS_9allocatorIcEEEE4GateEEPvEEEENS_25__bucket_list_deallocatorINS7_ISG_EEEEEC2B8ue170006ILb1EvEEv, symObjAddr: 0xBB58, symBinAddr: 0x10000D4B0, symSize: 0x50 }
  - { offsetInCU: 0x25A25, offset: 0x25A25, size: 0x8, addend: 0x0, symName: __ZNSt3__117__compressed_pairIPPNS_16__hash_node_baseIPNS_11__hash_nodeINS_17__hash_value_typeINS_12basic_stringIcNS_11char_traitsIcEENS_9allocatorIcEEEE4GateEEPvEEEENS_25__bucket_list_deallocatorINS7_ISG_EEEEEC1B8ue170006INS_16__value_init_tagESN_EEOT_OT0_, symObjAddr: 0xBBA8, symBinAddr: 0x10000D500, symSize: 0x3C }
  - { offsetInCU: 0x25A7D, offset: 0x25A7D, size: 0x8, addend: 0x0, symName: __ZNSt3__117__compressed_pairIPPNS_16__hash_node_baseIPNS_11__hash_nodeINS_17__hash_value_typeINS_12basic_stringIcNS_11char_traitsIcEENS_9allocatorIcEEEE4GateEEPvEEEENS_25__bucket_list_deallocatorINS7_ISG_EEEEEC2B8ue170006INS_16__value_init_tagESN_EEOT_OT0_, symObjAddr: 0xBBE4, symBinAddr: 0x10000D53C, symSize: 0x40 }
  - { offsetInCU: 0x25AD5, offset: 0x25AD5, size: 0x8, addend: 0x0, symName: __ZNSt3__122__compressed_pair_elemIPPNS_16__hash_node_baseIPNS_11__hash_nodeINS_17__hash_value_typeINS_12basic_stringIcNS_11char_traitsIcEENS_9allocatorIcEEEE4GateEEPvEEEELi0ELb0EEC2B8ue170006ENS_16__value_init_tagE, symObjAddr: 0xBC24, symBinAddr: 0x10000D57C, symSize: 0x18 }
  - { offsetInCU: 0x25B0A, offset: 0x25B0A, size: 0x8, addend: 0x0, symName: __ZNSt3__122__compressed_pair_elemINS_25__bucket_list_deallocatorINS_9allocatorIPNS_16__hash_node_baseIPNS_11__hash_nodeINS_17__hash_value_typeINS_12basic_stringIcNS_11char_traitsIcEENS2_IcEEEE4GateEEPvEEEEEEEELi1ELb0EEC2B8ue170006ENS_16__value_init_tagE, symObjAddr: 0xBC3C, symBinAddr: 0x10000D594, symSize: 0x2C }
  - { offsetInCU: 0x25B3F, offset: 0x25B3F, size: 0x8, addend: 0x0, symName: __ZNSt3__125__bucket_list_deallocatorINS_9allocatorIPNS_16__hash_node_baseIPNS_11__hash_nodeINS_17__hash_value_typeINS_12basic_stringIcNS_11char_traitsIcEENS1_IcEEEE4GateEEPvEEEEEEEC1B8ue170006Ev, symObjAddr: 0xBC68, symBinAddr: 0x10000D5C0, symSize: 0x2C }
  - { offsetInCU: 0x25B69, offset: 0x25B69, size: 0x8, addend: 0x0, symName: __ZNSt3__125__bucket_list_deallocatorINS_9allocatorIPNS_16__hash_node_baseIPNS_11__hash_nodeINS_17__hash_value_typeINS_12basic_stringIcNS_11char_traitsIcEENS1_IcEEEE4GateEEPvEEEEEEEC2B8ue170006Ev, symObjAddr: 0xBC94, symBinAddr: 0x10000D5EC, symSize: 0x38 }
  - { offsetInCU: 0x25B93, offset: 0x25B93, size: 0x8, addend: 0x0, symName: __ZNSt3__117__compressed_pairImNS_9allocatorIPNS_16__hash_node_baseIPNS_11__hash_nodeINS_17__hash_value_typeINS_12basic_stringIcNS_11char_traitsIcEENS1_IcEEEE4GateEEPvEEEEEEEC1B8ue170006IiNS_18__default_init_tagEEEOT_OT0_, symObjAddr: 0xBCCC, symBinAddr: 0x10000D624, symSize: 0x3C }
  - { offsetInCU: 0x25BEB, offset: 0x25BEB, size: 0x8, addend: 0x0, symName: __ZNSt3__117__compressed_pairImNS_9allocatorIPNS_16__hash_node_baseIPNS_11__hash_nodeINS_17__hash_value_typeINS_12basic_stringIcNS_11char_traitsIcEENS1_IcEEEE4GateEEPvEEEEEEEC2B8ue170006IiNS_18__default_init_tagEEEOT_OT0_, symObjAddr: 0xBD08, symBinAddr: 0x10000D660, symSize: 0x40 }
  - { offsetInCU: 0x25C43, offset: 0x25C43, size: 0x8, addend: 0x0, symName: __ZNSt3__122__compressed_pair_elemINS_9allocatorIPNS_16__hash_node_baseIPNS_11__hash_nodeINS_17__hash_value_typeINS_12basic_stringIcNS_11char_traitsIcEENS1_IcEEEE4GateEEPvEEEEEELi1ELb1EEC2B8ue170006ENS_18__default_init_tagE, symObjAddr: 0xBD48, symBinAddr: 0x10000D6A0, symSize: 0x2C }
  - { offsetInCU: 0x25C78, offset: 0x25C78, size: 0x8, addend: 0x0, symName: __ZNSt3__19allocatorIPNS_16__hash_node_baseIPNS_11__hash_nodeINS_17__hash_value_typeINS_12basic_stringIcNS_11char_traitsIcEENS0_IcEEEE4GateEEPvEEEEEC2B8ue170006Ev, symObjAddr: 0xBD74, symBinAddr: 0x10000D6CC, symSize: 0x2C }
  - { offsetInCU: 0x25CA2, offset: 0x25CA2, size: 0x8, addend: 0x0, symName: __ZNSt3__116__non_trivial_ifILb1ENS_9allocatorIPNS_16__hash_node_baseIPNS_11__hash_nodeINS_17__hash_value_typeINS_12basic_stringIcNS_11char_traitsIcEENS1_IcEEEE4GateEEPvEEEEEEEC2B8ue170006Ev, symObjAddr: 0xBDA0, symBinAddr: 0x10000D6F8, symSize: 0x14 }
  - { offsetInCU: 0x25CCC, offset: 0x25CCC, size: 0x8, addend: 0x0, symName: __ZNSt3__117__compressed_pairINS_16__hash_node_baseIPNS_11__hash_nodeINS_17__hash_value_typeINS_12basic_stringIcNS_11char_traitsIcEENS_9allocatorIcEEEE4GateEEPvEEEENS7_ISD_EEEC2B8ue170006ILb1EvEEv, symObjAddr: 0xBDB4, symBinAddr: 0x10000D70C, symSize: 0x34 }
  - { offsetInCU: 0x25D01, offset: 0x25D01, size: 0x8, addend: 0x0, symName: __ZNSt3__122__compressed_pair_elemINS_16__hash_node_baseIPNS_11__hash_nodeINS_17__hash_value_typeINS_12basic_stringIcNS_11char_traitsIcEENS_9allocatorIcEEEE4GateEEPvEEEELi0ELb0EEC2B8ue170006ENS_16__value_init_tagE, symObjAddr: 0xBDE8, symBinAddr: 0x10000D740, symSize: 0x2C }
  - { offsetInCU: 0x25D36, offset: 0x25D36, size: 0x8, addend: 0x0, symName: __ZNSt3__122__compressed_pair_elemINS_9allocatorINS_11__hash_nodeINS_17__hash_value_typeINS_12basic_stringIcNS_11char_traitsIcEENS1_IcEEEE4GateEEPvEEEELi1ELb1EEC2B8ue170006ENS_16__value_init_tagE, symObjAddr: 0xBE14, symBinAddr: 0x10000D76C, symSize: 0x2C }
  - { offsetInCU: 0x25D6B, offset: 0x25D6B, size: 0x8, addend: 0x0, symName: __ZNSt3__116__hash_node_baseIPNS_11__hash_nodeINS_17__hash_value_typeINS_12basic_stringIcNS_11char_traitsIcEENS_9allocatorIcEEEE4GateEEPvEEEC1B8ue170006Ev, symObjAddr: 0xBE40, symBinAddr: 0x10000D798, symSize: 0x2C }
  - { offsetInCU: 0x25D95, offset: 0x25D95, size: 0x8, addend: 0x0, symName: __ZNSt3__116__hash_node_baseIPNS_11__hash_nodeINS_17__hash_value_typeINS_12basic_stringIcNS_11char_traitsIcEENS_9allocatorIcEEEE4GateEEPvEEEC2B8ue170006Ev, symObjAddr: 0xBE6C, symBinAddr: 0x10000D7C4, symSize: 0x18 }
  - { offsetInCU: 0x25DBF, offset: 0x25DBF, size: 0x8, addend: 0x0, symName: __ZNSt3__19allocatorINS_11__hash_nodeINS_17__hash_value_typeINS_12basic_stringIcNS_11char_traitsIcEENS0_IcEEEE4GateEEPvEEEC2B8ue170006Ev, symObjAddr: 0xBE84, symBinAddr: 0x10000D7DC, symSize: 0x2C }
  - { offsetInCU: 0x25DE9, offset: 0x25DE9, size: 0x8, addend: 0x0, symName: __ZNSt3__116__non_trivial_ifILb1ENS_9allocatorINS_11__hash_nodeINS_17__hash_value_typeINS_12basic_stringIcNS_11char_traitsIcEENS1_IcEEEE4GateEEPvEEEEEC2B8ue170006Ev, symObjAddr: 0xBEB0, symBinAddr: 0x10000D808, symSize: 0x14 }
  - { offsetInCU: 0x25E13, offset: 0x25E13, size: 0x8, addend: 0x0, symName: __ZNSt3__117__compressed_pairImNS_22__unordered_map_hasherINS_12basic_stringIcNS_11char_traitsIcEENS_9allocatorIcEEEENS_17__hash_value_typeIS7_4GateEENS_4hashIS7_EENS_8equal_toIS7_EELb1EEEEC2B8ue170006IiNS_18__default_init_tagEEEOT_OT0_, symObjAddr: 0xBEC4, symBinAddr: 0x10000D81C, symSize: 0x40 }
  - { offsetInCU: 0x25E6B, offset: 0x25E6B, size: 0x8, addend: 0x0, symName: __ZNSt3__122__compressed_pair_elemINS_22__unordered_map_hasherINS_12basic_stringIcNS_11char_traitsIcEENS_9allocatorIcEEEENS_17__hash_value_typeIS7_4GateEENS_4hashIS7_EENS_8equal_toIS7_EELb1EEELi1ELb1EEC2B8ue170006ENS_18__default_init_tagE, symObjAddr: 0xBF04, symBinAddr: 0x10000D85C, symSize: 0x2C }
  - { offsetInCU: 0x25EA0, offset: 0x25EA0, size: 0x8, addend: 0x0, symName: __ZNSt3__122__unordered_map_hasherINS_12basic_stringIcNS_11char_traitsIcEENS_9allocatorIcEEEENS_17__hash_value_typeIS6_4GateEENS_4hashIS6_EENS_8equal_toIS6_EELb1EEC2B8ue170006Ev, symObjAddr: 0xBF30, symBinAddr: 0x10000D888, symSize: 0x14 }
  - { offsetInCU: 0x25ECA, offset: 0x25ECA, size: 0x8, addend: 0x0, symName: __ZNSt3__117__compressed_pairIfNS_21__unordered_map_equalINS_12basic_stringIcNS_11char_traitsIcEENS_9allocatorIcEEEENS_17__hash_value_typeIS7_4GateEENS_8equal_toIS7_EENS_4hashIS7_EELb1EEEEC2B8ue170006IfNS_18__default_init_tagEEEOT_OT0_, symObjAddr: 0xBF44, symBinAddr: 0x10000D89C, symSize: 0x40 }
  - { offsetInCU: 0x25F22, offset: 0x25F22, size: 0x8, addend: 0x0, symName: __ZNSt3__122__compressed_pair_elemINS_21__unordered_map_equalINS_12basic_stringIcNS_11char_traitsIcEENS_9allocatorIcEEEENS_17__hash_value_typeIS7_4GateEENS_8equal_toIS7_EENS_4hashIS7_EELb1EEELi1ELb1EEC2B8ue170006ENS_18__default_init_tagE, symObjAddr: 0xBF84, symBinAddr: 0x10000D8DC, symSize: 0x2C }
  - { offsetInCU: 0x25F57, offset: 0x25F57, size: 0x8, addend: 0x0, symName: __ZNSt3__121__unordered_map_equalINS_12basic_stringIcNS_11char_traitsIcEENS_9allocatorIcEEEENS_17__hash_value_typeIS6_4GateEENS_8equal_toIS6_EENS_4hashIS6_EELb1EEC2B8ue170006Ev, symObjAddr: 0xBFB0, symBinAddr: 0x10000D908, symSize: 0x14 }
  - { offsetInCU: 0x25F81, offset: 0x25F81, size: 0x8, addend: 0x0, symName: __ZNSt3__110unique_ptrIA_PNS_16__hash_node_baseIPNS_11__hash_nodeINS_17__hash_value_typeINS_12basic_stringIcNS_11char_traitsIcEENS_9allocatorIcEEEE4GateEEPvEEEENS_25__bucket_list_deallocatorINS7_ISG_EEEEED2B8ue170006Ev, symObjAddr: 0xBFC4, symBinAddr: 0x10000D91C, symSize: 0x30 }
  - { offsetInCU: 0x25FAB, offset: 0x25FAB, size: 0x8, addend: 0x0, symName: __ZNSt3__110unique_ptrIA_PNS_16__hash_node_baseIPNS_11__hash_nodeINS_17__hash_value_typeINS_12basic_stringIcNS_11char_traitsIcEENS_9allocatorIcEEEE4GateEEPvEEEENS_25__bucket_list_deallocatorINS7_ISG_EEEEE5resetB8ue170006EDn, symObjAddr: 0xBFF4, symBinAddr: 0x10000D94C, symSize: 0x6C }
  - { offsetInCU: 0x25FEC, offset: 0x25FEC, size: 0x8, addend: 0x0, symName: __ZNSt3__117__compressed_pairIPPNS_16__hash_node_baseIPNS_11__hash_nodeINS_17__hash_value_typeINS_12basic_stringIcNS_11char_traitsIcEENS_9allocatorIcEEEE4GateEEPvEEEENS_25__bucket_list_deallocatorINS7_ISG_EEEEE5firstB8ue170006Ev, symObjAddr: 0xC060, symBinAddr: 0x10000D9B8, symSize: 0x24 }
  - { offsetInCU: 0x26012, offset: 0x26012, size: 0x8, addend: 0x0, symName: __ZNSt3__117__compressed_pairIPPNS_16__hash_node_baseIPNS_11__hash_nodeINS_17__hash_value_typeINS_12basic_stringIcNS_11char_traitsIcEENS_9allocatorIcEEEE4GateEEPvEEEENS_25__bucket_list_deallocatorINS7_ISG_EEEEE6secondB8ue170006Ev, symObjAddr: 0xC084, symBinAddr: 0x10000D9DC, symSize: 0x28 }
  - { offsetInCU: 0x26038, offset: 0x26038, size: 0x8, addend: 0x0, symName: __ZNSt3__125__bucket_list_deallocatorINS_9allocatorIPNS_16__hash_node_baseIPNS_11__hash_nodeINS_17__hash_value_typeINS_12basic_stringIcNS_11char_traitsIcEENS1_IcEEEE4GateEEPvEEEEEEEclB8ue170006EPSG_, symObjAddr: 0xC0AC, symBinAddr: 0x10000DA04, symSize: 0x58 }
  - { offsetInCU: 0x2606D, offset: 0x2606D, size: 0x8, addend: 0x0, symName: __ZNSt3__122__compressed_pair_elemIPPNS_16__hash_node_baseIPNS_11__hash_nodeINS_17__hash_value_typeINS_12basic_stringIcNS_11char_traitsIcEENS_9allocatorIcEEEE4GateEEPvEEEELi0ELb0EE5__getB8ue170006Ev, symObjAddr: 0xC104, symBinAddr: 0x10000DA5C, symSize: 0x14 }
  - { offsetInCU: 0x26093, offset: 0x26093, size: 0x8, addend: 0x0, symName: __ZNSt3__122__compressed_pair_elemINS_25__bucket_list_deallocatorINS_9allocatorIPNS_16__hash_node_baseIPNS_11__hash_nodeINS_17__hash_value_typeINS_12basic_stringIcNS_11char_traitsIcEENS2_IcEEEE4GateEEPvEEEEEEEELi1ELb0EE5__getB8ue170006Ev, symObjAddr: 0xC118, symBinAddr: 0x10000DA70, symSize: 0x14 }
  - { offsetInCU: 0x260B9, offset: 0x260B9, size: 0x8, addend: 0x0, symName: __ZNSt3__116allocator_traitsINS_9allocatorIPNS_16__hash_node_baseIPNS_11__hash_nodeINS_17__hash_value_typeINS_12basic_stringIcNS_11char_traitsIcEENS1_IcEEEE4GateEEPvEEEEEEE10deallocateB8ue170006ERSH_PSG_m, symObjAddr: 0xC12C, symBinAddr: 0x10000DA84, symSize: 0x34 }
  - { offsetInCU: 0x260FB, offset: 0x260FB, size: 0x8, addend: 0x0, symName: __ZNSt3__125__bucket_list_deallocatorINS_9allocatorIPNS_16__hash_node_baseIPNS_11__hash_nodeINS_17__hash_value_typeINS_12basic_stringIcNS_11char_traitsIcEENS1_IcEEEE4GateEEPvEEEEEEE7__allocB8ue170006Ev, symObjAddr: 0xC160, symBinAddr: 0x10000DAB8, symSize: 0x24 }
  - { offsetInCU: 0x26121, offset: 0x26121, size: 0x8, addend: 0x0, symName: __ZNSt3__125__bucket_list_deallocatorINS_9allocatorIPNS_16__hash_node_baseIPNS_11__hash_nodeINS_17__hash_value_typeINS_12basic_stringIcNS_11char_traitsIcEENS1_IcEEEE4GateEEPvEEEEEEE4sizeB8ue170006Ev, symObjAddr: 0xC184, symBinAddr: 0x10000DADC, symSize: 0x24 }
  - { offsetInCU: 0x26147, offset: 0x26147, size: 0x8, addend: 0x0, symName: __ZNSt3__19allocatorIPNS_16__hash_node_baseIPNS_11__hash_nodeINS_17__hash_value_typeINS_12basic_stringIcNS_11char_traitsIcEENS0_IcEEEE4GateEEPvEEEEE10deallocateB8ue170006EPSF_m, symObjAddr: 0xC1A8, symBinAddr: 0x10000DB00, symSize: 0x70 }
  - { offsetInCU: 0x26189, offset: 0x26189, size: 0x8, addend: 0x0, symName: __ZNSt3__117__compressed_pairImNS_9allocatorIPNS_16__hash_node_baseIPNS_11__hash_nodeINS_17__hash_value_typeINS_12basic_stringIcNS_11char_traitsIcEENS1_IcEEEE4GateEEPvEEEEEEE6secondB8ue170006Ev, symObjAddr: 0xC218, symBinAddr: 0x10000DB70, symSize: 0x24 }
  - { offsetInCU: 0x261AF, offset: 0x261AF, size: 0x8, addend: 0x0, symName: __ZNSt3__122__compressed_pair_elemINS_9allocatorIPNS_16__hash_node_baseIPNS_11__hash_nodeINS_17__hash_value_typeINS_12basic_stringIcNS_11char_traitsIcEENS1_IcEEEE4GateEEPvEEEEEELi1ELb1EE5__getB8ue170006Ev, symObjAddr: 0xC23C, symBinAddr: 0x10000DB94, symSize: 0x14 }
  - { offsetInCU: 0x261D5, offset: 0x261D5, size: 0x8, addend: 0x0, symName: __ZNSt3__117__compressed_pairImNS_9allocatorIPNS_16__hash_node_baseIPNS_11__hash_nodeINS_17__hash_value_typeINS_12basic_stringIcNS_11char_traitsIcEENS1_IcEEEE4GateEEPvEEEEEEE5firstB8ue170006Ev, symObjAddr: 0xC250, symBinAddr: 0x10000DBA8, symSize: 0x24 }
  - { offsetInCU: 0x261FB, offset: 0x261FB, size: 0x8, addend: 0x0, symName: __ZNSt3__113unordered_mapINS_12basic_stringIcNS_11char_traitsIcEENS_9allocatorIcEEEE4GateNS_4hashIS6_EENS_8equal_toIS6_EENS4_INS_4pairIKS6_S7_EEEEED2B8ue170006Ev, symObjAddr: 0xC274, symBinAddr: 0x10000DBCC, symSize: 0x2C }
  - { offsetInCU: 0x26225, offset: 0x26225, size: 0x8, addend: 0x0, symName: __ZNSt3__112__hash_tableINS_17__hash_value_typeINS_12basic_stringIcNS_11char_traitsIcEENS_9allocatorIcEEEE4GateEENS_22__unordered_map_hasherIS7_S9_NS_4hashIS7_EENS_8equal_toIS7_EELb1EEENS_21__unordered_map_equalIS7_S9_SE_SC_Lb1EEENS5_IS9_EEED1Ev, symObjAddr: 0xC2A0, symBinAddr: 0x10000DBF8, symSize: 0x2C }
  - { offsetInCU: 0x26251, offset: 0x26251, size: 0x8, addend: 0x0, symName: __ZNSt3__112__hash_tableINS_17__hash_value_typeINS_12basic_stringIcNS_11char_traitsIcEENS_9allocatorIcEEEE4GateEENS_22__unordered_map_hasherIS7_S9_NS_4hashIS7_EENS_8equal_toIS7_EELb1EEENS_21__unordered_map_equalIS7_S9_SE_SC_Lb1EEENS5_IS9_EEED2Ev, symObjAddr: 0xC2CC, symBinAddr: 0x10000DC24, symSize: 0x48 }
  - { offsetInCU: 0x2627D, offset: 0x2627D, size: 0x8, addend: 0x0, symName: __ZNSt3__112__hash_tableINS_17__hash_value_typeINS_12basic_stringIcNS_11char_traitsIcEENS_9allocatorIcEEEE4GateEENS_22__unordered_map_hasherIS7_S9_NS_4hashIS7_EENS_8equal_toIS7_EELb1EEENS_21__unordered_map_equalIS7_S9_SE_SC_Lb1EEENS5_IS9_EEE17__deallocate_nodeEPNS_16__hash_node_baseIPNS_11__hash_nodeIS9_PvEEEE, symObjAddr: 0xC314, symBinAddr: 0x10000DC6C, symSize: 0xBC }
  - { offsetInCU: 0x262E7, offset: 0x262E7, size: 0x8, addend: 0x0, symName: __ZNSt3__117__compressed_pairINS_16__hash_node_baseIPNS_11__hash_nodeINS_17__hash_value_typeINS_12basic_stringIcNS_11char_traitsIcEENS_9allocatorIcEEEE4GateEEPvEEEENS7_ISD_EEE5firstB8ue170006Ev, symObjAddr: 0xC3D0, symBinAddr: 0x10000DD28, symSize: 0x24 }
  - { offsetInCU: 0x2630D, offset: 0x2630D, size: 0x8, addend: 0x0, symName: __ZNSt3__112__hash_tableINS_17__hash_value_typeINS_12basic_stringIcNS_11char_traitsIcEENS_9allocatorIcEEEE4GateEENS_22__unordered_map_hasherIS7_S9_NS_4hashIS7_EENS_8equal_toIS7_EELb1EEENS_21__unordered_map_equalIS7_S9_SE_SC_Lb1EEENS5_IS9_EEE12__node_allocB8ue170006Ev, symObjAddr: 0xC3F4, symBinAddr: 0x10000DD4C, symSize: 0x28 }
  - { offsetInCU: 0x26333, offset: 0x26333, size: 0x8, addend: 0x0, symName: __ZNSt3__116__hash_node_baseIPNS_11__hash_nodeINS_17__hash_value_typeINS_12basic_stringIcNS_11char_traitsIcEENS_9allocatorIcEEEE4GateEEPvEEE8__upcastB8ue170006Ev, symObjAddr: 0xC41C, symBinAddr: 0x10000DD74, symSize: 0x24 }
  - { offsetInCU: 0x26359, offset: 0x26359, size: 0x8, addend: 0x0, symName: __ZNSt3__116allocator_traitsINS_9allocatorINS_11__hash_nodeINS_17__hash_value_typeINS_12basic_stringIcNS_11char_traitsIcEENS1_IcEEEE4GateEEPvEEEEE7destroyB8ue170006INS_4pairIKS8_S9_EEvvEEvRSD_PT_, symObjAddr: 0xC440, symBinAddr: 0x10000DD98, symSize: 0x28 }
  - { offsetInCU: 0x26394, offset: 0x26394, size: 0x8, addend: 0x0, symName: __ZNSt3__122__hash_key_value_typesINS_17__hash_value_typeINS_12basic_stringIcNS_11char_traitsIcEENS_9allocatorIcEEEE4GateEEE9__get_ptrB8ue170006ERS9_, symObjAddr: 0xC468, symBinAddr: 0x10000DDC0, symSize: 0x24 }
  - { offsetInCU: 0x263B7, offset: 0x263B7, size: 0x8, addend: 0x0, symName: __ZNSt3__116allocator_traitsINS_9allocatorINS_11__hash_nodeINS_17__hash_value_typeINS_12basic_stringIcNS_11char_traitsIcEENS1_IcEEEE4GateEEPvEEEEE10deallocateB8ue170006ERSD_PSC_m, symObjAddr: 0xC48C, symBinAddr: 0x10000DDE4, symSize: 0x34 }
  - { offsetInCU: 0x263F9, offset: 0x263F9, size: 0x8, addend: 0x0, symName: __ZNSt3__117__compressed_pairINS_16__hash_node_baseIPNS_11__hash_nodeINS_17__hash_value_typeINS_12basic_stringIcNS_11char_traitsIcEENS_9allocatorIcEEEE4GateEEPvEEEENS7_ISD_EEE6secondB8ue170006Ev, symObjAddr: 0xC4C0, symBinAddr: 0x10000DE18, symSize: 0x24 }
  - { offsetInCU: 0x2641F, offset: 0x2641F, size: 0x8, addend: 0x0, symName: __ZNSt3__122__compressed_pair_elemINS_9allocatorINS_11__hash_nodeINS_17__hash_value_typeINS_12basic_stringIcNS_11char_traitsIcEENS1_IcEEEE4GateEEPvEEEELi1ELb1EE5__getB8ue170006Ev, symObjAddr: 0xC4E4, symBinAddr: 0x10000DE3C, symSize: 0x14 }
  - { offsetInCU: 0x26445, offset: 0x26445, size: 0x8, addend: 0x0, symName: __ZNSt3__114pointer_traitsIPNS_16__hash_node_baseIPNS_11__hash_nodeINS_17__hash_value_typeINS_12basic_stringIcNS_11char_traitsIcEENS_9allocatorIcEEEE4GateEEPvEEEEE10pointer_toB8ue170006ERSF_, symObjAddr: 0xC4F8, symBinAddr: 0x10000DE50, symSize: 0x14 }
  - { offsetInCU: 0x26468, offset: 0x26468, size: 0x8, addend: 0x0, symName: __ZNSt3__14pairIKNS_12basic_stringIcNS_11char_traitsIcEENS_9allocatorIcEEEE4GateED1Ev, symObjAddr: 0xC50C, symBinAddr: 0x10000DE64, symSize: 0x2C }
  - { offsetInCU: 0x26494, offset: 0x26494, size: 0x8, addend: 0x0, symName: __ZNSt3__14pairIKNS_12basic_stringIcNS_11char_traitsIcEENS_9allocatorIcEEEE4GateED2Ev, symObjAddr: 0xC538, symBinAddr: 0x10000DE90, symSize: 0x68 }
  - { offsetInCU: 0x264C0, offset: 0x264C0, size: 0x8, addend: 0x0, symName: __ZNSt3__117__hash_value_typeINS_12basic_stringIcNS_11char_traitsIcEENS_9allocatorIcEEEE4GateE11__get_valueB8ue170006Ev, symObjAddr: 0xC5A0, symBinAddr: 0x10000DEF8, symSize: 0x14 }
  - { offsetInCU: 0x264E6, offset: 0x264E6, size: 0x8, addend: 0x0, symName: __ZNSt3__19allocatorINS_11__hash_nodeINS_17__hash_value_typeINS_12basic_stringIcNS_11char_traitsIcEENS0_IcEEEE4GateEEPvEEE10deallocateB8ue170006EPSB_m, symObjAddr: 0xC5B4, symBinAddr: 0x10000DF0C, symSize: 0x74 }
  - { offsetInCU: 0x26528, offset: 0x26528, size: 0x8, addend: 0x0, symName: __ZNSt3__122__compressed_pair_elemINS_16__hash_node_baseIPNS_11__hash_nodeINS_17__hash_value_typeINS_12basic_stringIcNS_11char_traitsIcEENS_9allocatorIcEEEE4GateEEPvEEEELi0ELb0EE5__getB8ue170006Ev, symObjAddr: 0xC628, symBinAddr: 0x10000DF80, symSize: 0x14 }
  - { offsetInCU: 0x2654E, offset: 0x2654E, size: 0x8, addend: 0x0, symName: __ZNKSt3__119__hash_map_iteratorINS_15__hash_iteratorIPNS_11__hash_nodeINS_17__hash_value_typeINS_12basic_stringIcNS_11char_traitsIcEENS_9allocatorIcEEEE8FlipFlopEEPvEEEEEptB8ue170006Ev, symObjAddr: 0xC63C, symBinAddr: 0x10000DF94, symSize: 0x2C }
  - { offsetInCU: 0x26574, offset: 0x26574, size: 0x8, addend: 0x0, symName: __ZNSt3__113unordered_mapINS_12basic_stringIcNS_11char_traitsIcEENS_9allocatorIcEEEE8FlipFlopNS_4hashIS6_EENS_8equal_toIS6_EENS4_INS_4pairIKS6_S7_EEEEE25__construct_node_with_keyERSD_, symObjAddr: 0xC668, symBinAddr: 0x10000DFC0, symSize: 0x144 }
  - { offsetInCU: 0x265CA, offset: 0x265CA, size: 0x8, addend: 0x0, symName: __ZNSt3__112__hash_tableINS_17__hash_value_typeINS_12basic_stringIcNS_11char_traitsIcEENS_9allocatorIcEEEE8FlipFlopEENS_22__unordered_map_hasherIS7_S9_NS_4hashIS7_EENS_8equal_toIS7_EELb1EEENS_21__unordered_map_equalIS7_S9_SE_SC_Lb1EEENS5_IS9_EEE20__node_insert_uniqueEPNS_11__hash_nodeIS9_PvEE, symObjAddr: 0xC7AC, symBinAddr: 0x10000E104, symSize: 0xC4 }
  - { offsetInCU: 0x2661F, offset: 0x2661F, size: 0x8, addend: 0x0, symName: __ZNKSt3__110unique_ptrINS_11__hash_nodeINS_17__hash_value_typeINS_12basic_stringIcNS_11char_traitsIcEENS_9allocatorIcEEEE8FlipFlopEEPvEENS_26__hash_map_node_destructorINS6_ISC_EEEEE3getB8ue170006Ev, symObjAddr: 0xC870, symBinAddr: 0x10000E1C8, symSize: 0x28 }
  - { offsetInCU: 0x26645, offset: 0x26645, size: 0x8, addend: 0x0, symName: __ZNSt3__14pairINS_19__hash_map_iteratorINS_15__hash_iteratorIPNS_11__hash_nodeINS_17__hash_value_typeINS_12basic_stringIcNS_11char_traitsIcEENS_9allocatorIcEEEE8FlipFlopEEPvEEEEEEbEC1B8ue170006ISG_bEERKNS0_IT_T0_EE, symObjAddr: 0xC898, symBinAddr: 0x10000E1F0, symSize: 0x34 }
  - { offsetInCU: 0x2668F, offset: 0x2668F, size: 0x8, addend: 0x0, symName: __ZNSt3__110unique_ptrINS_11__hash_nodeINS_17__hash_value_typeINS_12basic_stringIcNS_11char_traitsIcEENS_9allocatorIcEEEE8FlipFlopEEPvEENS_26__hash_map_node_destructorINS6_ISC_EEEEE7releaseB8ue170006Ev, symObjAddr: 0xC8CC, symBinAddr: 0x10000E224, symSize: 0x44 }
  - { offsetInCU: 0x266C4, offset: 0x266C4, size: 0x8, addend: 0x0, symName: __ZNSt3__110unique_ptrINS_11__hash_nodeINS_17__hash_value_typeINS_12basic_stringIcNS_11char_traitsIcEENS_9allocatorIcEEEE8FlipFlopEEPvEENS_26__hash_map_node_destructorINS6_ISC_EEEEED1B8ue170006Ev, symObjAddr: 0xC910, symBinAddr: 0x10000E268, symSize: 0x2C }
  - { offsetInCU: 0x266EE, offset: 0x266EE, size: 0x8, addend: 0x0, symName: __ZNSt3__114pointer_traitsIPNS_4pairIKNS_12basic_stringIcNS_11char_traitsIcEENS_9allocatorIcEEEE8FlipFlopEEE10pointer_toB8ue170006ERSA_, symObjAddr: 0xC93C, symBinAddr: 0x10000E294, symSize: 0x14 }
  - { offsetInCU: 0x26711, offset: 0x26711, size: 0x8, addend: 0x0, symName: __ZNKSt3__115__hash_iteratorIPNS_11__hash_nodeINS_17__hash_value_typeINS_12basic_stringIcNS_11char_traitsIcEENS_9allocatorIcEEEE8FlipFlopEEPvEEEptB8ue170006Ev, symObjAddr: 0xC950, symBinAddr: 0x10000E2A8, symSize: 0x30 }
  - { offsetInCU: 0x26737, offset: 0x26737, size: 0x8, addend: 0x0, symName: __ZNSt3__114pointer_traitsIPNS_17__hash_value_typeINS_12basic_stringIcNS_11char_traitsIcEENS_9allocatorIcEEEE8FlipFlopEEE10pointer_toB8ue170006ERS9_, symObjAddr: 0xC980, symBinAddr: 0x10000E2D8, symSize: 0x14 }
  - { offsetInCU: 0x2675A, offset: 0x2675A, size: 0x8, addend: 0x0, symName: __ZNSt3__116allocator_traitsINS_9allocatorINS_11__hash_nodeINS_17__hash_value_typeINS_12basic_stringIcNS_11char_traitsIcEENS1_IcEEEE8FlipFlopEEPvEEEEE8allocateB8ue170006ERSD_m, symObjAddr: 0xC994, symBinAddr: 0x10000E2EC, symSize: 0x2C }
  - { offsetInCU: 0x2678D, offset: 0x2678D, size: 0x8, addend: 0x0, symName: __ZNSt3__126__hash_map_node_destructorINS_9allocatorINS_11__hash_nodeINS_17__hash_value_typeINS_12basic_stringIcNS_11char_traitsIcEENS1_IcEEEE8FlipFlopEEPvEEEEEC1B8ue170006ERSD_, symObjAddr: 0xC9C0, symBinAddr: 0x10000E318, symSize: 0x34 }
  - { offsetInCU: 0x267CB, offset: 0x267CB, size: 0x8, addend: 0x0, symName: __ZNSt3__110unique_ptrINS_11__hash_nodeINS_17__hash_value_typeINS_12basic_stringIcNS_11char_traitsIcEENS_9allocatorIcEEEE8FlipFlopEEPvEENS_26__hash_map_node_destructorINS6_ISC_EEEEEC1B8ue170006ILb1EvEEPSC_NS_16__dependent_typeINS_27__unique_ptr_deleter_sfinaeISF_EEXT_EE20__good_rval_ref_typeE, symObjAddr: 0xC9F4, symBinAddr: 0x10000E34C, symSize: 0x3C }
  - { offsetInCU: 0x2681C, offset: 0x2681C, size: 0x8, addend: 0x0, symName: __ZNSt3__116allocator_traitsINS_9allocatorINS_11__hash_nodeINS_17__hash_value_typeINS_12basic_stringIcNS_11char_traitsIcEENS1_IcEEEE8FlipFlopEEPvEEEEE9constructB8ue170006IKS8_JRSG_EvEEvRSD_PT_DpOT0_, symObjAddr: 0xCA30, symBinAddr: 0x10000E388, symSize: 0x34 }
  - { offsetInCU: 0x26873, offset: 0x26873, size: 0x8, addend: 0x0, symName: __ZNKSt3__110unique_ptrINS_11__hash_nodeINS_17__hash_value_typeINS_12basic_stringIcNS_11char_traitsIcEENS_9allocatorIcEEEE8FlipFlopEEPvEENS_26__hash_map_node_destructorINS6_ISC_EEEEEptB8ue170006Ev, symObjAddr: 0xCA64, symBinAddr: 0x10000E3BC, symSize: 0x28 }
  - { offsetInCU: 0x26899, offset: 0x26899, size: 0x8, addend: 0x0, symName: __ZNSt3__110unique_ptrINS_11__hash_nodeINS_17__hash_value_typeINS_12basic_stringIcNS_11char_traitsIcEENS_9allocatorIcEEEE8FlipFlopEEPvEENS_26__hash_map_node_destructorINS6_ISC_EEEEE11get_deleterB8ue170006Ev, symObjAddr: 0xCA8C, symBinAddr: 0x10000E3E4, symSize: 0x24 }
  - { offsetInCU: 0x268C4, offset: 0x268C4, size: 0x8, addend: 0x0, symName: __ZNSt3__116allocator_traitsINS_9allocatorINS_11__hash_nodeINS_17__hash_value_typeINS_12basic_stringIcNS_11char_traitsIcEENS1_IcEEEE8FlipFlopEEPvEEEEE9constructB8ue170006IS9_JEvEEvRSD_PT_DpOT0_, symObjAddr: 0xCAB0, symBinAddr: 0x10000E408, symSize: 0x2C }
  - { offsetInCU: 0x26906, offset: 0x26906, size: 0x8, addend: 0x0, symName: __ZNSt3__19allocatorINS_11__hash_nodeINS_17__hash_value_typeINS_12basic_stringIcNS_11char_traitsIcEENS0_IcEEEE8FlipFlopEEPvEEE8allocateB8ue170006Em, symObjAddr: 0xCADC, symBinAddr: 0x10000E434, symSize: 0x84 }
  - { offsetInCU: 0x26944, offset: 0x26944, size: 0x8, addend: 0x0, symName: __ZNSt3__116allocator_traitsINS_9allocatorINS_11__hash_nodeINS_17__hash_value_typeINS_12basic_stringIcNS_11char_traitsIcEENS1_IcEEEE8FlipFlopEEPvEEEEE8max_sizeB8ue170006ISD_vEEmRKSD_, symObjAddr: 0xCB60, symBinAddr: 0x10000E4B8, symSize: 0x24 }
  - { offsetInCU: 0x26972, offset: 0x26972, size: 0x8, addend: 0x0, symName: __ZNKSt3__19allocatorINS_11__hash_nodeINS_17__hash_value_typeINS_12basic_stringIcNS_11char_traitsIcEENS0_IcEEEE8FlipFlopEEPvEEE8max_sizeB8ue170006Ev, symObjAddr: 0xCB84, symBinAddr: 0x10000E4DC, symSize: 0x14 }
  - { offsetInCU: 0x26998, offset: 0x26998, size: 0x8, addend: 0x0, symName: __ZNSt3__126__hash_map_node_destructorINS_9allocatorINS_11__hash_nodeINS_17__hash_value_typeINS_12basic_stringIcNS_11char_traitsIcEENS1_IcEEEE8FlipFlopEEPvEEEEEC2B8ue170006ERSD_, symObjAddr: 0xCB98, symBinAddr: 0x10000E4F0, symSize: 0x28 }
  - { offsetInCU: 0x269D1, offset: 0x269D1, size: 0x8, addend: 0x0, symName: __ZNSt3__110unique_ptrINS_11__hash_nodeINS_17__hash_value_typeINS_12basic_stringIcNS_11char_traitsIcEENS_9allocatorIcEEEE8FlipFlopEEPvEENS_26__hash_map_node_destructorINS6_ISC_EEEEEC2B8ue170006ILb1EvEEPSC_NS_16__dependent_typeINS_27__unique_ptr_deleter_sfinaeISF_EEXT_EE20__good_rval_ref_typeE, symObjAddr: 0xCBC0, symBinAddr: 0x10000E518, symSize: 0x5C }
  - { offsetInCU: 0x26A22, offset: 0x26A22, size: 0x8, addend: 0x0, symName: __ZNSt3__117__compressed_pairIPNS_11__hash_nodeINS_17__hash_value_typeINS_12basic_stringIcNS_11char_traitsIcEENS_9allocatorIcEEEE8FlipFlopEEPvEENS_26__hash_map_node_destructorINS6_ISC_EEEEEC1B8ue170006IRSD_SG_EEOT_OT0_, symObjAddr: 0xCC1C, symBinAddr: 0x10000E574, symSize: 0x3C }
  - { offsetInCU: 0x26A7A, offset: 0x26A7A, size: 0x8, addend: 0x0, symName: __ZNSt3__117__compressed_pairIPNS_11__hash_nodeINS_17__hash_value_typeINS_12basic_stringIcNS_11char_traitsIcEENS_9allocatorIcEEEE8FlipFlopEEPvEENS_26__hash_map_node_destructorINS6_ISC_EEEEEC2B8ue170006IRSD_SG_EEOT_OT0_, symObjAddr: 0xCC58, symBinAddr: 0x10000E5B0, symSize: 0x48 }
  - { offsetInCU: 0x26AD2, offset: 0x26AD2, size: 0x8, addend: 0x0, symName: __ZNSt3__122__compressed_pair_elemIPNS_11__hash_nodeINS_17__hash_value_typeINS_12basic_stringIcNS_11char_traitsIcEENS_9allocatorIcEEEE8FlipFlopEEPvEELi0ELb0EEC2B8ue170006IRSD_vEEOT_, symObjAddr: 0xCCA0, symBinAddr: 0x10000E5F8, symSize: 0x24 }
  - { offsetInCU: 0x26B14, offset: 0x26B14, size: 0x8, addend: 0x0, symName: __ZNSt3__122__compressed_pair_elemINS_26__hash_map_node_destructorINS_9allocatorINS_11__hash_nodeINS_17__hash_value_typeINS_12basic_stringIcNS_11char_traitsIcEENS2_IcEEEE8FlipFlopEEPvEEEEEELi1ELb0EEC2B8ue170006ISF_vEEOT_, symObjAddr: 0xCCC4, symBinAddr: 0x10000E61C, symSize: 0x24 }
  - { offsetInCU: 0x26B56, offset: 0x26B56, size: 0x8, addend: 0x0, symName: __ZNSt3__19allocatorINS_11__hash_nodeINS_17__hash_value_typeINS_12basic_stringIcNS_11char_traitsIcEENS0_IcEEEE8FlipFlopEEPvEEE9constructB8ue170006IKS7_JRSE_EEEvPT_DpOT0_, symObjAddr: 0xCCE8, symBinAddr: 0x10000E640, symSize: 0x30 }
  - { offsetInCU: 0x26BAC, offset: 0x26BAC, size: 0x8, addend: 0x0, symName: __ZNKSt3__117__compressed_pairIPNS_11__hash_nodeINS_17__hash_value_typeINS_12basic_stringIcNS_11char_traitsIcEENS_9allocatorIcEEEE8FlipFlopEEPvEENS_26__hash_map_node_destructorINS6_ISC_EEEEE5firstB8ue170006Ev, symObjAddr: 0xCD18, symBinAddr: 0x10000E670, symSize: 0x24 }
  - { offsetInCU: 0x26BD2, offset: 0x26BD2, size: 0x8, addend: 0x0, symName: __ZNKSt3__122__compressed_pair_elemIPNS_11__hash_nodeINS_17__hash_value_typeINS_12basic_stringIcNS_11char_traitsIcEENS_9allocatorIcEEEE8FlipFlopEEPvEELi0ELb0EE5__getB8ue170006Ev, symObjAddr: 0xCD3C, symBinAddr: 0x10000E694, symSize: 0x14 }
  - { offsetInCU: 0x26BF8, offset: 0x26BF8, size: 0x8, addend: 0x0, symName: __ZNSt3__117__compressed_pairIPNS_11__hash_nodeINS_17__hash_value_typeINS_12basic_stringIcNS_11char_traitsIcEENS_9allocatorIcEEEE8FlipFlopEEPvEENS_26__hash_map_node_destructorINS6_ISC_EEEEE6secondB8ue170006Ev, symObjAddr: 0xCD50, symBinAddr: 0x10000E6A8, symSize: 0x28 }
  - { offsetInCU: 0x26C1E, offset: 0x26C1E, size: 0x8, addend: 0x0, symName: __ZNSt3__122__compressed_pair_elemINS_26__hash_map_node_destructorINS_9allocatorINS_11__hash_nodeINS_17__hash_value_typeINS_12basic_stringIcNS_11char_traitsIcEENS2_IcEEEE8FlipFlopEEPvEEEEEELi1ELb0EE5__getB8ue170006Ev, symObjAddr: 0xCD78, symBinAddr: 0x10000E6D0, symSize: 0x14 }
  - { offsetInCU: 0x26C44, offset: 0x26C44, size: 0x8, addend: 0x0, symName: __ZNSt3__19allocatorINS_11__hash_nodeINS_17__hash_value_typeINS_12basic_stringIcNS_11char_traitsIcEENS0_IcEEEE8FlipFlopEEPvEEE9constructB8ue170006IS8_JEEEvPT_DpOT0_, symObjAddr: 0xCD8C, symBinAddr: 0x10000E6E4, symSize: 0x28 }
  - { offsetInCU: 0x26C86, offset: 0x26C86, size: 0x8, addend: 0x0, symName: __ZNSt3__112__hash_tableINS_17__hash_value_typeINS_12basic_stringIcNS_11char_traitsIcEENS_9allocatorIcEEEE8FlipFlopEENS_22__unordered_map_hasherIS7_S9_NS_4hashIS7_EENS_8equal_toIS7_EELb1EEENS_21__unordered_map_equalIS7_S9_SE_SC_Lb1EEENS5_IS9_EEE13hash_functionB8ue170006Ev, symObjAddr: 0xCDB4, symBinAddr: 0x10000E70C, symSize: 0x28 }
  - { offsetInCU: 0x26CAC, offset: 0x26CAC, size: 0x8, addend: 0x0, symName: __ZNKSt3__122__unordered_map_hasherINS_12basic_stringIcNS_11char_traitsIcEENS_9allocatorIcEEEENS_17__hash_value_typeIS6_8FlipFlopEENS_4hashIS6_EENS_8equal_toIS6_EELb1EEclB8ue170006ERKS9_, symObjAddr: 0xCDDC, symBinAddr: 0x10000E734, symSize: 0x3C }
  - { offsetInCU: 0x26CE1, offset: 0x26CE1, size: 0x8, addend: 0x0, symName: __ZNSt3__112__hash_tableINS_17__hash_value_typeINS_12basic_stringIcNS_11char_traitsIcEENS_9allocatorIcEEEE8FlipFlopEENS_22__unordered_map_hasherIS7_S9_NS_4hashIS7_EENS_8equal_toIS7_EELb1EEENS_21__unordered_map_equalIS7_S9_SE_SC_Lb1EEENS5_IS9_EEE28__node_insert_unique_prepareB8ue170006EmRS9_, symObjAddr: 0xCE18, symBinAddr: 0x10000E770, symSize: 0x290 }
  - { offsetInCU: 0x26D63, offset: 0x26D63, size: 0x8, addend: 0x0, symName: __ZNKSt3__116__hash_node_baseIPNS_11__hash_nodeINS_17__hash_value_typeINS_12basic_stringIcNS_11char_traitsIcEENS_9allocatorIcEEEE8FlipFlopEEPvEEE6__hashB8ue170006Ev, symObjAddr: 0xD0A8, symBinAddr: 0x10000EA00, symSize: 0x18 }
  - { offsetInCU: 0x26D89, offset: 0x26D89, size: 0x8, addend: 0x0, symName: __ZNSt3__112__hash_tableINS_17__hash_value_typeINS_12basic_stringIcNS_11char_traitsIcEENS_9allocatorIcEEEE8FlipFlopEENS_22__unordered_map_hasherIS7_S9_NS_4hashIS7_EENS_8equal_toIS7_EELb1EEENS_21__unordered_map_equalIS7_S9_SE_SC_Lb1EEENS5_IS9_EEE28__node_insert_unique_performB8ue170006EPNS_11__hash_nodeIS9_PvEE, symObjAddr: 0xD0C0, symBinAddr: 0x10000EA18, symSize: 0x154 }
  - { offsetInCU: 0x26DED, offset: 0x26DED, size: 0x8, addend: 0x0, symName: __ZNSt3__116__hash_node_baseIPNS_11__hash_nodeINS_17__hash_value_typeINS_12basic_stringIcNS_11char_traitsIcEENS_9allocatorIcEEEE8FlipFlopEEPvEEE5__ptrB8ue170006Ev, symObjAddr: 0xD214, symBinAddr: 0x10000EB6C, symSize: 0x24 }
  - { offsetInCU: 0x26E13, offset: 0x26E13, size: 0x8, addend: 0x0, symName: __ZNSt3__115__hash_iteratorIPNS_11__hash_nodeINS_17__hash_value_typeINS_12basic_stringIcNS_11char_traitsIcEENS_9allocatorIcEEEE8FlipFlopEEPvEEEC1B8ue170006EPNS_16__hash_node_baseISD_EE, symObjAddr: 0xD238, symBinAddr: 0x10000EB90, symSize: 0x34 }
  - { offsetInCU: 0x26E4C, offset: 0x26E4C, size: 0x8, addend: 0x0, symName: __ZNSt3__14pairINS_15__hash_iteratorIPNS_11__hash_nodeINS_17__hash_value_typeINS_12basic_stringIcNS_11char_traitsIcEENS_9allocatorIcEEEE8FlipFlopEEPvEEEEbEC1B8ue170006ERKSF_RKb, symObjAddr: 0xD26C, symBinAddr: 0x10000EBC4, symSize: 0x3C }
  - { offsetInCU: 0x26E92, offset: 0x26E92, size: 0x8, addend: 0x0, symName: __ZNSt3__117__compressed_pairImNS_22__unordered_map_hasherINS_12basic_stringIcNS_11char_traitsIcEENS_9allocatorIcEEEENS_17__hash_value_typeIS7_8FlipFlopEENS_4hashIS7_EENS_8equal_toIS7_EELb1EEEE6secondB8ue170006Ev, symObjAddr: 0xD2A8, symBinAddr: 0x10000EC00, symSize: 0x24 }
  - { offsetInCU: 0x26EB8, offset: 0x26EB8, size: 0x8, addend: 0x0, symName: __ZNSt3__122__compressed_pair_elemINS_22__unordered_map_hasherINS_12basic_stringIcNS_11char_traitsIcEENS_9allocatorIcEEEENS_17__hash_value_typeIS7_8FlipFlopEENS_4hashIS7_EENS_8equal_toIS7_EELb1EEELi1ELb1EE5__getB8ue170006Ev, symObjAddr: 0xD2CC, symBinAddr: 0x10000EC24, symSize: 0x14 }
  - { offsetInCU: 0x26EDE, offset: 0x26EDE, size: 0x8, addend: 0x0, symName: __ZNKSt3__117__hash_value_typeINS_12basic_stringIcNS_11char_traitsIcEENS_9allocatorIcEEEE8FlipFlopE11__get_valueB8ue170006Ev, symObjAddr: 0xD2E0, symBinAddr: 0x10000EC38, symSize: 0x14 }
  - { offsetInCU: 0x26F04, offset: 0x26F04, size: 0x8, addend: 0x0, symName: __ZNKSt3__112__hash_tableINS_17__hash_value_typeINS_12basic_stringIcNS_11char_traitsIcEENS_9allocatorIcEEEE8FlipFlopEENS_22__unordered_map_hasherIS7_S9_NS_4hashIS7_EENS_8equal_toIS7_EELb1EEENS_21__unordered_map_equalIS7_S9_SE_SC_Lb1EEENS5_IS9_EEE12bucket_countB8ue170006Ev, symObjAddr: 0xD2F4, symBinAddr: 0x10000EC4C, symSize: 0x28 }
  - { offsetInCU: 0x26F2A, offset: 0x26F2A, size: 0x8, addend: 0x0, symName: __ZNKSt3__110unique_ptrIA_PNS_16__hash_node_baseIPNS_11__hash_nodeINS_17__hash_value_typeINS_12basic_stringIcNS_11char_traitsIcEENS_9allocatorIcEEEE8FlipFlopEEPvEEEENS_25__bucket_list_deallocatorINS7_ISG_EEEEEixB8ue170006Em, symObjAddr: 0xD31C, symBinAddr: 0x10000EC74, symSize: 0x34 }
  - { offsetInCU: 0x26F5F, offset: 0x26F5F, size: 0x8, addend: 0x0, symName: __ZNSt3__112__hash_tableINS_17__hash_value_typeINS_12basic_stringIcNS_11char_traitsIcEENS_9allocatorIcEEEE8FlipFlopEENS_22__unordered_map_hasherIS7_S9_NS_4hashIS7_EENS_8equal_toIS7_EELb1EEENS_21__unordered_map_equalIS7_S9_SE_SC_Lb1EEENS5_IS9_EEE6key_eqB8ue170006Ev, symObjAddr: 0xD350, symBinAddr: 0x10000ECA8, symSize: 0x28 }
  - { offsetInCU: 0x26F85, offset: 0x26F85, size: 0x8, addend: 0x0, symName: __ZNKSt3__121__unordered_map_equalINS_12basic_stringIcNS_11char_traitsIcEENS_9allocatorIcEEEENS_17__hash_value_typeIS6_8FlipFlopEENS_8equal_toIS6_EENS_4hashIS6_EELb1EEclB8ue170006ERKS9_SG_, symObjAddr: 0xD378, symBinAddr: 0x10000ECD0, symSize: 0x54 }
  - { offsetInCU: 0x26FC9, offset: 0x26FC9, size: 0x8, addend: 0x0, symName: __ZNSt3__112__hash_tableINS_17__hash_value_typeINS_12basic_stringIcNS_11char_traitsIcEENS_9allocatorIcEEEE8FlipFlopEENS_22__unordered_map_hasherIS7_S9_NS_4hashIS7_EENS_8equal_toIS7_EELb1EEENS_21__unordered_map_equalIS7_S9_SE_SC_Lb1EEENS5_IS9_EEE4sizeB8ue170006Ev, symObjAddr: 0xD3CC, symBinAddr: 0x10000ED24, symSize: 0x28 }
  - { offsetInCU: 0x26FEF, offset: 0x26FEF, size: 0x8, addend: 0x0, symName: __ZNSt3__112__hash_tableINS_17__hash_value_typeINS_12basic_stringIcNS_11char_traitsIcEENS_9allocatorIcEEEE8FlipFlopEENS_22__unordered_map_hasherIS7_S9_NS_4hashIS7_EENS_8equal_toIS7_EELb1EEENS_21__unordered_map_equalIS7_S9_SE_SC_Lb1EEENS5_IS9_EEE15max_load_factorB8ue170006Ev, symObjAddr: 0xD3F4, symBinAddr: 0x10000ED4C, symSize: 0x28 }
  - { offsetInCU: 0x27015, offset: 0x27015, size: 0x8, addend: 0x0, symName: __ZNSt3__112__hash_tableINS_17__hash_value_typeINS_12basic_stringIcNS_11char_traitsIcEENS_9allocatorIcEEEE8FlipFlopEENS_22__unordered_map_hasherIS7_S9_NS_4hashIS7_EENS_8equal_toIS7_EELb1EEENS_21__unordered_map_equalIS7_S9_SE_SC_Lb1EEENS5_IS9_EEE15__rehash_uniqueB8ue170006Em, symObjAddr: 0xD41C, symBinAddr: 0x10000ED74, symSize: 0x2C }
  - { offsetInCU: 0x2704A, offset: 0x2704A, size: 0x8, addend: 0x0, symName: __ZNKSt3__110unique_ptrIA_PNS_16__hash_node_baseIPNS_11__hash_nodeINS_17__hash_value_typeINS_12basic_stringIcNS_11char_traitsIcEENS_9allocatorIcEEEE8FlipFlopEEPvEEEENS_25__bucket_list_deallocatorINS7_ISG_EEEEE11get_deleterB8ue170006Ev, symObjAddr: 0xD448, symBinAddr: 0x10000EDA0, symSize: 0x24 }
  - { offsetInCU: 0x27070, offset: 0x27070, size: 0x8, addend: 0x0, symName: __ZNKSt3__125__bucket_list_deallocatorINS_9allocatorIPNS_16__hash_node_baseIPNS_11__hash_nodeINS_17__hash_value_typeINS_12basic_stringIcNS_11char_traitsIcEENS1_IcEEEE8FlipFlopEEPvEEEEEEE4sizeB8ue170006Ev, symObjAddr: 0xD46C, symBinAddr: 0x10000EDC4, symSize: 0x28 }
  - { offsetInCU: 0x27096, offset: 0x27096, size: 0x8, addend: 0x0, symName: __ZNKSt3__117__compressed_pairIPPNS_16__hash_node_baseIPNS_11__hash_nodeINS_17__hash_value_typeINS_12basic_stringIcNS_11char_traitsIcEENS_9allocatorIcEEEE8FlipFlopEEPvEEEENS_25__bucket_list_deallocatorINS7_ISG_EEEEE6secondB8ue170006Ev, symObjAddr: 0xD494, symBinAddr: 0x10000EDEC, symSize: 0x28 }
  - { offsetInCU: 0x270BC, offset: 0x270BC, size: 0x8, addend: 0x0, symName: __ZNKSt3__122__compressed_pair_elemINS_25__bucket_list_deallocatorINS_9allocatorIPNS_16__hash_node_baseIPNS_11__hash_nodeINS_17__hash_value_typeINS_12basic_stringIcNS_11char_traitsIcEENS2_IcEEEE8FlipFlopEEPvEEEEEEEELi1ELb0EE5__getB8ue170006Ev, symObjAddr: 0xD4BC, symBinAddr: 0x10000EE14, symSize: 0x14 }
  - { offsetInCU: 0x270E2, offset: 0x270E2, size: 0x8, addend: 0x0, symName: __ZNKSt3__117__compressed_pairImNS_9allocatorIPNS_16__hash_node_baseIPNS_11__hash_nodeINS_17__hash_value_typeINS_12basic_stringIcNS_11char_traitsIcEENS1_IcEEEE8FlipFlopEEPvEEEEEEE5firstB8ue170006Ev, symObjAddr: 0xD4D0, symBinAddr: 0x10000EE28, symSize: 0x24 }
  - { offsetInCU: 0x27108, offset: 0x27108, size: 0x8, addend: 0x0, symName: __ZNKSt3__117__compressed_pairIPPNS_16__hash_node_baseIPNS_11__hash_nodeINS_17__hash_value_typeINS_12basic_stringIcNS_11char_traitsIcEENS_9allocatorIcEEEE8FlipFlopEEPvEEEENS_25__bucket_list_deallocatorINS7_ISG_EEEEE5firstB8ue170006Ev, symObjAddr: 0xD4F4, symBinAddr: 0x10000EE4C, symSize: 0x24 }
  - { offsetInCU: 0x2712E, offset: 0x2712E, size: 0x8, addend: 0x0, symName: __ZNKSt3__122__compressed_pair_elemIPPNS_16__hash_node_baseIPNS_11__hash_nodeINS_17__hash_value_typeINS_12basic_stringIcNS_11char_traitsIcEENS_9allocatorIcEEEE8FlipFlopEEPvEEEELi0ELb0EE5__getB8ue170006Ev, symObjAddr: 0xD518, symBinAddr: 0x10000EE70, symSize: 0x14 }
  - { offsetInCU: 0x27154, offset: 0x27154, size: 0x8, addend: 0x0, symName: __ZNSt3__117__compressed_pairIfNS_21__unordered_map_equalINS_12basic_stringIcNS_11char_traitsIcEENS_9allocatorIcEEEENS_17__hash_value_typeIS7_8FlipFlopEENS_8equal_toIS7_EENS_4hashIS7_EELb1EEEE6secondB8ue170006Ev, symObjAddr: 0xD52C, symBinAddr: 0x10000EE84, symSize: 0x24 }
  - { offsetInCU: 0x2717A, offset: 0x2717A, size: 0x8, addend: 0x0, symName: __ZNSt3__122__compressed_pair_elemINS_21__unordered_map_equalINS_12basic_stringIcNS_11char_traitsIcEENS_9allocatorIcEEEENS_17__hash_value_typeIS7_8FlipFlopEENS_8equal_toIS7_EENS_4hashIS7_EELb1EEELi1ELb1EE5__getB8ue170006Ev, symObjAddr: 0xD550, symBinAddr: 0x10000EEA8, symSize: 0x14 }
  - { offsetInCU: 0x271A0, offset: 0x271A0, size: 0x8, addend: 0x0, symName: __ZNSt3__117__compressed_pairImNS_22__unordered_map_hasherINS_12basic_stringIcNS_11char_traitsIcEENS_9allocatorIcEEEENS_17__hash_value_typeIS7_8FlipFlopEENS_4hashIS7_EENS_8equal_toIS7_EELb1EEEE5firstB8ue170006Ev, symObjAddr: 0xD564, symBinAddr: 0x10000EEBC, symSize: 0x24 }
  - { offsetInCU: 0x271C6, offset: 0x271C6, size: 0x8, addend: 0x0, symName: __ZNSt3__117__compressed_pairIfNS_21__unordered_map_equalINS_12basic_stringIcNS_11char_traitsIcEENS_9allocatorIcEEEENS_17__hash_value_typeIS7_8FlipFlopEENS_8equal_toIS7_EENS_4hashIS7_EELb1EEEE5firstB8ue170006Ev, symObjAddr: 0xD588, symBinAddr: 0x10000EEE0, symSize: 0x24 }
  - { offsetInCU: 0x271EC, offset: 0x271EC, size: 0x8, addend: 0x0, symName: __ZNSt3__112__hash_tableINS_17__hash_value_typeINS_12basic_stringIcNS_11char_traitsIcEENS_9allocatorIcEEEE8FlipFlopEENS_22__unordered_map_hasherIS7_S9_NS_4hashIS7_EENS_8equal_toIS7_EELb1EEENS_21__unordered_map_equalIS7_S9_SE_SC_Lb1EEENS5_IS9_EEE8__rehashILb1EEEvm, symObjAddr: 0xD5AC, symBinAddr: 0x10000EF04, symSize: 0x1A8 }
  - { offsetInCU: 0x2723C, offset: 0x2723C, size: 0x8, addend: 0x0, symName: __ZNSt3__112__hash_tableINS_17__hash_value_typeINS_12basic_stringIcNS_11char_traitsIcEENS_9allocatorIcEEEE8FlipFlopEENS_22__unordered_map_hasherIS7_S9_NS_4hashIS7_EENS_8equal_toIS7_EELb1EEENS_21__unordered_map_equalIS7_S9_SE_SC_Lb1EEENS5_IS9_EEE11__do_rehashILb1EEEvm, symObjAddr: 0xD754, symBinAddr: 0x10000F0AC, symSize: 0x288 }
  - { offsetInCU: 0x27323, offset: 0x27323, size: 0x8, addend: 0x0, symName: __ZNSt3__110unique_ptrIA_PNS_16__hash_node_baseIPNS_11__hash_nodeINS_17__hash_value_typeINS_12basic_stringIcNS_11char_traitsIcEENS_9allocatorIcEEEE8FlipFlopEEPvEEEENS_25__bucket_list_deallocatorINS7_ISG_EEEEE11get_deleterB8ue170006Ev, symObjAddr: 0xD9DC, symBinAddr: 0x10000F334, symSize: 0x24 }
  - { offsetInCU: 0x27349, offset: 0x27349, size: 0x8, addend: 0x0, symName: __ZNSt3__110unique_ptrIA_PNS_16__hash_node_baseIPNS_11__hash_nodeINS_17__hash_value_typeINS_12basic_stringIcNS_11char_traitsIcEENS_9allocatorIcEEEE8FlipFlopEEPvEEEENS_25__bucket_list_deallocatorINS7_ISG_EEEEE5resetB8ue170006IPSG_EENS_9enable_ifIXsr28_CheckArrayPointerConversionIT_EE5valueEvE4typeESP_, symObjAddr: 0xDA00, symBinAddr: 0x10000F358, symSize: 0x78 }
  - { offsetInCU: 0x27396, offset: 0x27396, size: 0x8, addend: 0x0, symName: __ZNSt3__116allocator_traitsINS_9allocatorIPNS_16__hash_node_baseIPNS_11__hash_nodeINS_17__hash_value_typeINS_12basic_stringIcNS_11char_traitsIcEENS1_IcEEEE8FlipFlopEEPvEEEEEEE8allocateB8ue170006ERSH_m, symObjAddr: 0xDA78, symBinAddr: 0x10000F3D0, symSize: 0x2C }
  - { offsetInCU: 0x273C9, offset: 0x273C9, size: 0x8, addend: 0x0, symName: __ZNSt3__19allocatorIPNS_16__hash_node_baseIPNS_11__hash_nodeINS_17__hash_value_typeINS_12basic_stringIcNS_11char_traitsIcEENS0_IcEEEE8FlipFlopEEPvEEEEE8allocateB8ue170006Em, symObjAddr: 0xDAA4, symBinAddr: 0x10000F3FC, symSize: 0x84 }
  - { offsetInCU: 0x27407, offset: 0x27407, size: 0x8, addend: 0x0, symName: __ZNSt3__116allocator_traitsINS_9allocatorIPNS_16__hash_node_baseIPNS_11__hash_nodeINS_17__hash_value_typeINS_12basic_stringIcNS_11char_traitsIcEENS1_IcEEEE8FlipFlopEEPvEEEEEEE8max_sizeB8ue170006ISH_vEEmRKSH_, symObjAddr: 0xDB28, symBinAddr: 0x10000F480, symSize: 0x24 }
  - { offsetInCU: 0x27435, offset: 0x27435, size: 0x8, addend: 0x0, symName: __ZNKSt3__19allocatorIPNS_16__hash_node_baseIPNS_11__hash_nodeINS_17__hash_value_typeINS_12basic_stringIcNS_11char_traitsIcEENS0_IcEEEE8FlipFlopEEPvEEEEE8max_sizeB8ue170006Ev, symObjAddr: 0xDB4C, symBinAddr: 0x10000F4A4, symSize: 0x14 }
  - { offsetInCU: 0x2745B, offset: 0x2745B, size: 0x8, addend: 0x0, symName: __ZNSt3__115__hash_iteratorIPNS_11__hash_nodeINS_17__hash_value_typeINS_12basic_stringIcNS_11char_traitsIcEENS_9allocatorIcEEEE8FlipFlopEEPvEEEC2B8ue170006EPNS_16__hash_node_baseISD_EE, symObjAddr: 0xDB60, symBinAddr: 0x10000F4B8, symSize: 0x20 }
  - { offsetInCU: 0x27494, offset: 0x27494, size: 0x8, addend: 0x0, symName: __ZNSt3__14pairINS_15__hash_iteratorIPNS_11__hash_nodeINS_17__hash_value_typeINS_12basic_stringIcNS_11char_traitsIcEENS_9allocatorIcEEEE8FlipFlopEEPvEEEEbEC2B8ue170006ERKSF_RKb, symObjAddr: 0xDB80, symBinAddr: 0x10000F4D8, symSize: 0x38 }
  - { offsetInCU: 0x274DA, offset: 0x274DA, size: 0x8, addend: 0x0, symName: __ZNSt3__14pairINS_19__hash_map_iteratorINS_15__hash_iteratorIPNS_11__hash_nodeINS_17__hash_value_typeINS_12basic_stringIcNS_11char_traitsIcEENS_9allocatorIcEEEE8FlipFlopEEPvEEEEEEbEC2B8ue170006ISG_bEERKNS0_IT_T0_EE, symObjAddr: 0xDBB8, symBinAddr: 0x10000F510, symSize: 0x50 }
  - { offsetInCU: 0x27524, offset: 0x27524, size: 0x8, addend: 0x0, symName: __ZNSt3__119__hash_map_iteratorINS_15__hash_iteratorIPNS_11__hash_nodeINS_17__hash_value_typeINS_12basic_stringIcNS_11char_traitsIcEENS_9allocatorIcEEEE8FlipFlopEEPvEEEEEC1B8ue170006ESF_, symObjAddr: 0xDC08, symBinAddr: 0x10000F560, symSize: 0x34 }
  - { offsetInCU: 0x2755D, offset: 0x2755D, size: 0x8, addend: 0x0, symName: __ZNSt3__119__hash_map_iteratorINS_15__hash_iteratorIPNS_11__hash_nodeINS_17__hash_value_typeINS_12basic_stringIcNS_11char_traitsIcEENS_9allocatorIcEEEE8FlipFlopEEPvEEEEEC2B8ue170006ESF_, symObjAddr: 0xDC3C, symBinAddr: 0x10000F594, symSize: 0x20 }
  - { offsetInCU: 0x27596, offset: 0x27596, size: 0x8, addend: 0x0, symName: __ZNSt3__117__compressed_pairIPNS_11__hash_nodeINS_17__hash_value_typeINS_12basic_stringIcNS_11char_traitsIcEENS_9allocatorIcEEEE8FlipFlopEEPvEENS_26__hash_map_node_destructorINS6_ISC_EEEEE5firstB8ue170006Ev, symObjAddr: 0xDC5C, symBinAddr: 0x10000F5B4, symSize: 0x24 }
  - { offsetInCU: 0x275BC, offset: 0x275BC, size: 0x8, addend: 0x0, symName: __ZNSt3__122__compressed_pair_elemIPNS_11__hash_nodeINS_17__hash_value_typeINS_12basic_stringIcNS_11char_traitsIcEENS_9allocatorIcEEEE8FlipFlopEEPvEELi0ELb0EE5__getB8ue170006Ev, symObjAddr: 0xDC80, symBinAddr: 0x10000F5D8, symSize: 0x14 }
  - { offsetInCU: 0x275E2, offset: 0x275E2, size: 0x8, addend: 0x0, symName: __ZNSt3__110unique_ptrINS_11__hash_nodeINS_17__hash_value_typeINS_12basic_stringIcNS_11char_traitsIcEENS_9allocatorIcEEEE8FlipFlopEEPvEENS_26__hash_map_node_destructorINS6_ISC_EEEEED2B8ue170006Ev, symObjAddr: 0xDC94, symBinAddr: 0x10000F5EC, symSize: 0x30 }
  - { offsetInCU: 0x2760C, offset: 0x2760C, size: 0x8, addend: 0x0, symName: __ZNSt3__110unique_ptrINS_11__hash_nodeINS_17__hash_value_typeINS_12basic_stringIcNS_11char_traitsIcEENS_9allocatorIcEEEE8FlipFlopEEPvEENS_26__hash_map_node_destructorINS6_ISC_EEEEE5resetB8ue170006EPSC_, symObjAddr: 0xDCC4, symBinAddr: 0x10000F61C, symSize: 0x78 }
  - { offsetInCU: 0x27650, offset: 0x27650, size: 0x8, addend: 0x0, symName: __ZNSt3__126__hash_map_node_destructorINS_9allocatorINS_11__hash_nodeINS_17__hash_value_typeINS_12basic_stringIcNS_11char_traitsIcEENS1_IcEEEE8FlipFlopEEPvEEEEEclB8ue170006EPSC_, symObjAddr: 0xDD3C, symBinAddr: 0x10000F694, symSize: 0xE4 }
  - { offsetInCU: 0x27685, offset: 0x27685, size: 0x8, addend: 0x0, symName: __ZNSt3__116allocator_traitsINS_9allocatorINS_11__hash_nodeINS_17__hash_value_typeINS_12basic_stringIcNS_11char_traitsIcEENS1_IcEEEE8FlipFlopEEPvEEEEE7destroyB8ue170006IS9_vvEEvRSD_PT_, symObjAddr: 0xDE20, symBinAddr: 0x10000F778, symSize: 0x28 }
  - { offsetInCU: 0x276C0, offset: 0x276C0, size: 0x8, addend: 0x0, symName: __ZNSt3__116allocator_traitsINS_9allocatorINS_11__hash_nodeINS_17__hash_value_typeINS_12basic_stringIcNS_11char_traitsIcEENS1_IcEEEE8FlipFlopEEPvEEEEE7destroyB8ue170006IKS8_vvEEvRSD_PT_, symObjAddr: 0xDE48, symBinAddr: 0x10000F7A0, symSize: 0x28 }
  - { offsetInCU: 0x276FB, offset: 0x276FB, size: 0x8, addend: 0x0, symName: __ZNSt3__113unordered_mapINS_12basic_stringIcNS_11char_traitsIcEENS_9allocatorIcEEEE4GateNS_4hashIS6_EENS_8equal_toIS6_EENS4_INS_4pairIKS6_S7_EEEEE4findB8ue170006ERSD_, symObjAddr: 0xDE70, symBinAddr: 0x10000F7C8, symSize: 0x40 }
  - { offsetInCU: 0x27730, offset: 0x27730, size: 0x8, addend: 0x0, symName: __ZNSt3__113unordered_mapINS_12basic_stringIcNS_11char_traitsIcEENS_9allocatorIcEEEE4GateNS_4hashIS6_EENS_8equal_toIS6_EENS4_INS_4pairIKS6_S7_EEEEE3endB8ue170006Ev, symObjAddr: 0xDEE0, symBinAddr: 0x10000F838, symSize: 0x38 }
  - { offsetInCU: 0x27756, offset: 0x27756, size: 0x8, addend: 0x0, symName: __ZNKSt3__119__hash_map_iteratorINS_15__hash_iteratorIPNS_11__hash_nodeINS_17__hash_value_typeINS_12basic_stringIcNS_11char_traitsIcEENS_9allocatorIcEEEE4GateEEPvEEEEEptB8ue170006Ev, symObjAddr: 0xDF18, symBinAddr: 0x10000F870, symSize: 0x2C }
  - { offsetInCU: 0x2777C, offset: 0x2777C, size: 0x8, addend: 0x0, symName: __ZNSt3__113unordered_mapINS_12basic_stringIcNS_11char_traitsIcEENS_9allocatorIcEEEE4GateNS_4hashIS6_EENS_8equal_toIS6_EENS4_INS_4pairIKS6_S7_EEEEE25__construct_node_with_keyERSD_, symObjAddr: 0xDF44, symBinAddr: 0x10000F89C, symSize: 0x144 }
  - { offsetInCU: 0x277D2, offset: 0x277D2, size: 0x8, addend: 0x0, symName: __ZNSt3__112__hash_tableINS_17__hash_value_typeINS_12basic_stringIcNS_11char_traitsIcEENS_9allocatorIcEEEE4GateEENS_22__unordered_map_hasherIS7_S9_NS_4hashIS7_EENS_8equal_toIS7_EELb1EEENS_21__unordered_map_equalIS7_S9_SE_SC_Lb1EEENS5_IS9_EEE20__node_insert_uniqueEPNS_11__hash_nodeIS9_PvEE, symObjAddr: 0xE088, symBinAddr: 0x10000F9E0, symSize: 0xC4 }
  - { offsetInCU: 0x27827, offset: 0x27827, size: 0x8, addend: 0x0, symName: __ZNKSt3__110unique_ptrINS_11__hash_nodeINS_17__hash_value_typeINS_12basic_stringIcNS_11char_traitsIcEENS_9allocatorIcEEEE4GateEEPvEENS_26__hash_map_node_destructorINS6_ISC_EEEEE3getB8ue170006Ev, symObjAddr: 0xE14C, symBinAddr: 0x10000FAA4, symSize: 0x28 }
  - { offsetInCU: 0x2784D, offset: 0x2784D, size: 0x8, addend: 0x0, symName: __ZNSt3__14pairINS_19__hash_map_iteratorINS_15__hash_iteratorIPNS_11__hash_nodeINS_17__hash_value_typeINS_12basic_stringIcNS_11char_traitsIcEENS_9allocatorIcEEEE4GateEEPvEEEEEEbEC1B8ue170006ISG_bEERKNS0_IT_T0_EE, symObjAddr: 0xE174, symBinAddr: 0x10000FACC, symSize: 0x34 }
  - { offsetInCU: 0x27897, offset: 0x27897, size: 0x8, addend: 0x0, symName: __ZNSt3__110unique_ptrINS_11__hash_nodeINS_17__hash_value_typeINS_12basic_stringIcNS_11char_traitsIcEENS_9allocatorIcEEEE4GateEEPvEENS_26__hash_map_node_destructorINS6_ISC_EEEEE7releaseB8ue170006Ev, symObjAddr: 0xE1A8, symBinAddr: 0x10000FB00, symSize: 0x44 }
  - { offsetInCU: 0x278CC, offset: 0x278CC, size: 0x8, addend: 0x0, symName: __ZNSt3__110unique_ptrINS_11__hash_nodeINS_17__hash_value_typeINS_12basic_stringIcNS_11char_traitsIcEENS_9allocatorIcEEEE4GateEEPvEENS_26__hash_map_node_destructorINS6_ISC_EEEEED1B8ue170006Ev, symObjAddr: 0xE1EC, symBinAddr: 0x10000FB44, symSize: 0x2C }
  - { offsetInCU: 0x278F6, offset: 0x278F6, size: 0x8, addend: 0x0, symName: __ZNSt3__112__hash_tableINS_17__hash_value_typeINS_12basic_stringIcNS_11char_traitsIcEENS_9allocatorIcEEEE4GateEENS_22__unordered_map_hasherIS7_S9_NS_4hashIS7_EENS_8equal_toIS7_EELb1EEENS_21__unordered_map_equalIS7_S9_SE_SC_Lb1EEENS5_IS9_EEE4findIS7_EENS_15__hash_iteratorIPNS_11__hash_nodeIS9_PvEEEERKT_, symObjAddr: 0xE218, symBinAddr: 0x10000FB70, symSize: 0x1B0 }
  - { offsetInCU: 0x27981, offset: 0x27981, size: 0x8, addend: 0x0, symName: __ZNSt3__119__hash_map_iteratorINS_15__hash_iteratorIPNS_11__hash_nodeINS_17__hash_value_typeINS_12basic_stringIcNS_11char_traitsIcEENS_9allocatorIcEEEE4GateEEPvEEEEEC1B8ue170006ESF_, symObjAddr: 0xE3C8, symBinAddr: 0x10000FD20, symSize: 0x34 }
  - { offsetInCU: 0x279BA, offset: 0x279BA, size: 0x8, addend: 0x0, symName: __ZNSt3__112__hash_tableINS_17__hash_value_typeINS_12basic_stringIcNS_11char_traitsIcEENS_9allocatorIcEEEE4GateEENS_22__unordered_map_hasherIS7_S9_NS_4hashIS7_EENS_8equal_toIS7_EELb1EEENS_21__unordered_map_equalIS7_S9_SE_SC_Lb1EEENS5_IS9_EEE13hash_functionB8ue170006Ev, symObjAddr: 0xE3FC, symBinAddr: 0x10000FD54, symSize: 0x28 }
  - { offsetInCU: 0x279E0, offset: 0x279E0, size: 0x8, addend: 0x0, symName: __ZNKSt3__122__unordered_map_hasherINS_12basic_stringIcNS_11char_traitsIcEENS_9allocatorIcEEEENS_17__hash_value_typeIS6_4GateEENS_4hashIS6_EENS_8equal_toIS6_EELb1EEclB8ue170006ERKS6_, symObjAddr: 0xE424, symBinAddr: 0x10000FD7C, symSize: 0x2C }
  - { offsetInCU: 0x27A15, offset: 0x27A15, size: 0x8, addend: 0x0, symName: __ZNKSt3__112__hash_tableINS_17__hash_value_typeINS_12basic_stringIcNS_11char_traitsIcEENS_9allocatorIcEEEE4GateEENS_22__unordered_map_hasherIS7_S9_NS_4hashIS7_EENS_8equal_toIS7_EELb1EEENS_21__unordered_map_equalIS7_S9_SE_SC_Lb1EEENS5_IS9_EEE12bucket_countB8ue170006Ev, symObjAddr: 0xE450, symBinAddr: 0x10000FDA8, symSize: 0x28 }
  - { offsetInCU: 0x27A3B, offset: 0x27A3B, size: 0x8, addend: 0x0, symName: __ZNKSt3__110unique_ptrIA_PNS_16__hash_node_baseIPNS_11__hash_nodeINS_17__hash_value_typeINS_12basic_stringIcNS_11char_traitsIcEENS_9allocatorIcEEEE4GateEEPvEEEENS_25__bucket_list_deallocatorINS7_ISG_EEEEEixB8ue170006Em, symObjAddr: 0xE478, symBinAddr: 0x10000FDD0, symSize: 0x34 }
  - { offsetInCU: 0x27A70, offset: 0x27A70, size: 0x8, addend: 0x0, symName: __ZNKSt3__116__hash_node_baseIPNS_11__hash_nodeINS_17__hash_value_typeINS_12basic_stringIcNS_11char_traitsIcEENS_9allocatorIcEEEE4GateEEPvEEE6__hashB8ue170006Ev, symObjAddr: 0xE4AC, symBinAddr: 0x10000FE04, symSize: 0x18 }
  - { offsetInCU: 0x27A96, offset: 0x27A96, size: 0x8, addend: 0x0, symName: __ZNSt3__112__hash_tableINS_17__hash_value_typeINS_12basic_stringIcNS_11char_traitsIcEENS_9allocatorIcEEEE4GateEENS_22__unordered_map_hasherIS7_S9_NS_4hashIS7_EENS_8equal_toIS7_EELb1EEENS_21__unordered_map_equalIS7_S9_SE_SC_Lb1EEENS5_IS9_EEE6key_eqB8ue170006Ev, symObjAddr: 0xE4C4, symBinAddr: 0x10000FE1C, symSize: 0x28 }
  - { offsetInCU: 0x27ABC, offset: 0x27ABC, size: 0x8, addend: 0x0, symName: __ZNKSt3__121__unordered_map_equalINS_12basic_stringIcNS_11char_traitsIcEENS_9allocatorIcEEEENS_17__hash_value_typeIS6_4GateEENS_8equal_toIS6_EENS_4hashIS6_EELb1EEclB8ue170006ERKS9_RKS6_, symObjAddr: 0xE4EC, symBinAddr: 0x10000FE44, symSize: 0x48 }
  - { offsetInCU: 0x27B00, offset: 0x27B00, size: 0x8, addend: 0x0, symName: __ZNSt3__115__hash_iteratorIPNS_11__hash_nodeINS_17__hash_value_typeINS_12basic_stringIcNS_11char_traitsIcEENS_9allocatorIcEEEE4GateEEPvEEEC1B8ue170006EPNS_16__hash_node_baseISD_EE, symObjAddr: 0xE534, symBinAddr: 0x10000FE8C, symSize: 0x34 }
  - { offsetInCU: 0x27B39, offset: 0x27B39, size: 0x8, addend: 0x0, symName: __ZNSt3__112__hash_tableINS_17__hash_value_typeINS_12basic_stringIcNS_11char_traitsIcEENS_9allocatorIcEEEE4GateEENS_22__unordered_map_hasherIS7_S9_NS_4hashIS7_EENS_8equal_toIS7_EELb1EEENS_21__unordered_map_equalIS7_S9_SE_SC_Lb1EEENS5_IS9_EEE3endEv, symObjAddr: 0xE568, symBinAddr: 0x10000FEC0, symSize: 0x2C }
  - { offsetInCU: 0x27B61, offset: 0x27B61, size: 0x8, addend: 0x0, symName: __ZNSt3__117__compressed_pairImNS_22__unordered_map_hasherINS_12basic_stringIcNS_11char_traitsIcEENS_9allocatorIcEEEENS_17__hash_value_typeIS7_4GateEENS_4hashIS7_EENS_8equal_toIS7_EELb1EEEE6secondB8ue170006Ev, symObjAddr: 0xE594, symBinAddr: 0x10000FEEC, symSize: 0x24 }
  - { offsetInCU: 0x27B87, offset: 0x27B87, size: 0x8, addend: 0x0, symName: __ZNSt3__122__compressed_pair_elemINS_22__unordered_map_hasherINS_12basic_stringIcNS_11char_traitsIcEENS_9allocatorIcEEEENS_17__hash_value_typeIS7_4GateEENS_4hashIS7_EENS_8equal_toIS7_EELb1EEELi1ELb1EE5__getB8ue170006Ev, symObjAddr: 0xE5B8, symBinAddr: 0x10000FF10, symSize: 0x14 }
  - { offsetInCU: 0x27BAD, offset: 0x27BAD, size: 0x8, addend: 0x0, symName: __ZNKSt3__110unique_ptrIA_PNS_16__hash_node_baseIPNS_11__hash_nodeINS_17__hash_value_typeINS_12basic_stringIcNS_11char_traitsIcEENS_9allocatorIcEEEE4GateEEPvEEEENS_25__bucket_list_deallocatorINS7_ISG_EEEEE11get_deleterB8ue170006Ev, symObjAddr: 0xE5CC, symBinAddr: 0x10000FF24, symSize: 0x24 }
  - { offsetInCU: 0x27BD3, offset: 0x27BD3, size: 0x8, addend: 0x0, symName: __ZNKSt3__125__bucket_list_deallocatorINS_9allocatorIPNS_16__hash_node_baseIPNS_11__hash_nodeINS_17__hash_value_typeINS_12basic_stringIcNS_11char_traitsIcEENS1_IcEEEE4GateEEPvEEEEEEE4sizeB8ue170006Ev, symObjAddr: 0xE5F0, symBinAddr: 0x10000FF48, symSize: 0x28 }
  - { offsetInCU: 0x27BF9, offset: 0x27BF9, size: 0x8, addend: 0x0, symName: __ZNKSt3__117__compressed_pairIPPNS_16__hash_node_baseIPNS_11__hash_nodeINS_17__hash_value_typeINS_12basic_stringIcNS_11char_traitsIcEENS_9allocatorIcEEEE4GateEEPvEEEENS_25__bucket_list_deallocatorINS7_ISG_EEEEE6secondB8ue170006Ev, symObjAddr: 0xE618, symBinAddr: 0x10000FF70, symSize: 0x28 }
  - { offsetInCU: 0x27C1F, offset: 0x27C1F, size: 0x8, addend: 0x0, symName: __ZNKSt3__122__compressed_pair_elemINS_25__bucket_list_deallocatorINS_9allocatorIPNS_16__hash_node_baseIPNS_11__hash_nodeINS_17__hash_value_typeINS_12basic_stringIcNS_11char_traitsIcEENS2_IcEEEE4GateEEPvEEEEEEEELi1ELb0EE5__getB8ue170006Ev, symObjAddr: 0xE640, symBinAddr: 0x10000FF98, symSize: 0x14 }
  - { offsetInCU: 0x27C45, offset: 0x27C45, size: 0x8, addend: 0x0, symName: __ZNKSt3__117__compressed_pairImNS_9allocatorIPNS_16__hash_node_baseIPNS_11__hash_nodeINS_17__hash_value_typeINS_12basic_stringIcNS_11char_traitsIcEENS1_IcEEEE4GateEEPvEEEEEEE5firstB8ue170006Ev, symObjAddr: 0xE654, symBinAddr: 0x10000FFAC, symSize: 0x24 }
  - { offsetInCU: 0x27C6B, offset: 0x27C6B, size: 0x8, addend: 0x0, symName: __ZNKSt3__117__compressed_pairIPPNS_16__hash_node_baseIPNS_11__hash_nodeINS_17__hash_value_typeINS_12basic_stringIcNS_11char_traitsIcEENS_9allocatorIcEEEE4GateEEPvEEEENS_25__bucket_list_deallocatorINS7_ISG_EEEEE5firstB8ue170006Ev, symObjAddr: 0xE678, symBinAddr: 0x10000FFD0, symSize: 0x24 }
  - { offsetInCU: 0x27C91, offset: 0x27C91, size: 0x8, addend: 0x0, symName: __ZNKSt3__122__compressed_pair_elemIPPNS_16__hash_node_baseIPNS_11__hash_nodeINS_17__hash_value_typeINS_12basic_stringIcNS_11char_traitsIcEENS_9allocatorIcEEEE4GateEEPvEEEELi0ELb0EE5__getB8ue170006Ev, symObjAddr: 0xE69C, symBinAddr: 0x10000FFF4, symSize: 0x14 }
  - { offsetInCU: 0x27CB7, offset: 0x27CB7, size: 0x8, addend: 0x0, symName: __ZNSt3__117__compressed_pairIfNS_21__unordered_map_equalINS_12basic_stringIcNS_11char_traitsIcEENS_9allocatorIcEEEENS_17__hash_value_typeIS7_4GateEENS_8equal_toIS7_EENS_4hashIS7_EELb1EEEE6secondB8ue170006Ev, symObjAddr: 0xE6B0, symBinAddr: 0x100010008, symSize: 0x24 }
  - { offsetInCU: 0x27CDD, offset: 0x27CDD, size: 0x8, addend: 0x0, symName: __ZNSt3__122__compressed_pair_elemINS_21__unordered_map_equalINS_12basic_stringIcNS_11char_traitsIcEENS_9allocatorIcEEEENS_17__hash_value_typeIS7_4GateEENS_8equal_toIS7_EENS_4hashIS7_EELb1EEELi1ELb1EE5__getB8ue170006Ev, symObjAddr: 0xE6D4, symBinAddr: 0x10001002C, symSize: 0x14 }
  - { offsetInCU: 0x27D03, offset: 0x27D03, size: 0x8, addend: 0x0, symName: __ZNKSt3__117__hash_value_typeINS_12basic_stringIcNS_11char_traitsIcEENS_9allocatorIcEEEE4GateE11__get_valueB8ue170006Ev, symObjAddr: 0xE6E8, symBinAddr: 0x100010040, symSize: 0x14 }
  - { offsetInCU: 0x27D29, offset: 0x27D29, size: 0x8, addend: 0x0, symName: __ZNSt3__115__hash_iteratorIPNS_11__hash_nodeINS_17__hash_value_typeINS_12basic_stringIcNS_11char_traitsIcEENS_9allocatorIcEEEE4GateEEPvEEEC2B8ue170006EPNS_16__hash_node_baseISD_EE, symObjAddr: 0xE6FC, symBinAddr: 0x100010054, symSize: 0x20 }
  - { offsetInCU: 0x27D62, offset: 0x27D62, size: 0x8, addend: 0x0, symName: __ZNSt3__119__hash_map_iteratorINS_15__hash_iteratorIPNS_11__hash_nodeINS_17__hash_value_typeINS_12basic_stringIcNS_11char_traitsIcEENS_9allocatorIcEEEE4GateEEPvEEEEEC2B8ue170006ESF_, symObjAddr: 0xE71C, symBinAddr: 0x100010074, symSize: 0x20 }
  - { offsetInCU: 0x27D9B, offset: 0x27D9B, size: 0x8, addend: 0x0, symName: __ZNSt3__114pointer_traitsIPNS_4pairIKNS_12basic_stringIcNS_11char_traitsIcEENS_9allocatorIcEEEE4GateEEE10pointer_toB8ue170006ERSA_, symObjAddr: 0xE7A0, symBinAddr: 0x1000100F8, symSize: 0x14 }
  - { offsetInCU: 0x27DBE, offset: 0x27DBE, size: 0x8, addend: 0x0, symName: __ZNKSt3__115__hash_iteratorIPNS_11__hash_nodeINS_17__hash_value_typeINS_12basic_stringIcNS_11char_traitsIcEENS_9allocatorIcEEEE4GateEEPvEEEptB8ue170006Ev, symObjAddr: 0xE7B4, symBinAddr: 0x10001010C, symSize: 0x30 }
  - { offsetInCU: 0x27DE4, offset: 0x27DE4, size: 0x8, addend: 0x0, symName: __ZNSt3__114pointer_traitsIPNS_17__hash_value_typeINS_12basic_stringIcNS_11char_traitsIcEENS_9allocatorIcEEEE4GateEEE10pointer_toB8ue170006ERS9_, symObjAddr: 0xE7E4, symBinAddr: 0x10001013C, symSize: 0x14 }
  - { offsetInCU: 0x27E07, offset: 0x27E07, size: 0x8, addend: 0x0, symName: __ZNSt3__116allocator_traitsINS_9allocatorINS_11__hash_nodeINS_17__hash_value_typeINS_12basic_stringIcNS_11char_traitsIcEENS1_IcEEEE4GateEEPvEEEEE8allocateB8ue170006ERSD_m, symObjAddr: 0xE7F8, symBinAddr: 0x100010150, symSize: 0x2C }
  - { offsetInCU: 0x27E3A, offset: 0x27E3A, size: 0x8, addend: 0x0, symName: __ZNSt3__126__hash_map_node_destructorINS_9allocatorINS_11__hash_nodeINS_17__hash_value_typeINS_12basic_stringIcNS_11char_traitsIcEENS1_IcEEEE4GateEEPvEEEEEC1B8ue170006ERSD_, symObjAddr: 0xE824, symBinAddr: 0x10001017C, symSize: 0x34 }
  - { offsetInCU: 0x27E78, offset: 0x27E78, size: 0x8, addend: 0x0, symName: __ZNSt3__110unique_ptrINS_11__hash_nodeINS_17__hash_value_typeINS_12basic_stringIcNS_11char_traitsIcEENS_9allocatorIcEEEE4GateEEPvEENS_26__hash_map_node_destructorINS6_ISC_EEEEEC1B8ue170006ILb1EvEEPSC_NS_16__dependent_typeINS_27__unique_ptr_deleter_sfinaeISF_EEXT_EE20__good_rval_ref_typeE, symObjAddr: 0xE858, symBinAddr: 0x1000101B0, symSize: 0x3C }
  - { offsetInCU: 0x27EC9, offset: 0x27EC9, size: 0x8, addend: 0x0, symName: __ZNSt3__116allocator_traitsINS_9allocatorINS_11__hash_nodeINS_17__hash_value_typeINS_12basic_stringIcNS_11char_traitsIcEENS1_IcEEEE4GateEEPvEEEEE9constructB8ue170006IKS8_JRSG_EvEEvRSD_PT_DpOT0_, symObjAddr: 0xE894, symBinAddr: 0x1000101EC, symSize: 0x34 }
  - { offsetInCU: 0x27F20, offset: 0x27F20, size: 0x8, addend: 0x0, symName: __ZNKSt3__110unique_ptrINS_11__hash_nodeINS_17__hash_value_typeINS_12basic_stringIcNS_11char_traitsIcEENS_9allocatorIcEEEE4GateEEPvEENS_26__hash_map_node_destructorINS6_ISC_EEEEEptB8ue170006Ev, symObjAddr: 0xE8C8, symBinAddr: 0x100010220, symSize: 0x28 }
  - { offsetInCU: 0x27F46, offset: 0x27F46, size: 0x8, addend: 0x0, symName: __ZNSt3__110unique_ptrINS_11__hash_nodeINS_17__hash_value_typeINS_12basic_stringIcNS_11char_traitsIcEENS_9allocatorIcEEEE4GateEEPvEENS_26__hash_map_node_destructorINS6_ISC_EEEEE11get_deleterB8ue170006Ev, symObjAddr: 0xE8F0, symBinAddr: 0x100010248, symSize: 0x24 }
  - { offsetInCU: 0x27F71, offset: 0x27F71, size: 0x8, addend: 0x0, symName: __ZNSt3__116allocator_traitsINS_9allocatorINS_11__hash_nodeINS_17__hash_value_typeINS_12basic_stringIcNS_11char_traitsIcEENS1_IcEEEE4GateEEPvEEEEE9constructB8ue170006IS9_JEvEEvRSD_PT_DpOT0_, symObjAddr: 0xE914, symBinAddr: 0x10001026C, symSize: 0x2C }
  - { offsetInCU: 0x27FB3, offset: 0x27FB3, size: 0x8, addend: 0x0, symName: __ZNSt3__19allocatorINS_11__hash_nodeINS_17__hash_value_typeINS_12basic_stringIcNS_11char_traitsIcEENS0_IcEEEE4GateEEPvEEE8allocateB8ue170006Em, symObjAddr: 0xE940, symBinAddr: 0x100010298, symSize: 0x8C }
  - { offsetInCU: 0x27FF1, offset: 0x27FF1, size: 0x8, addend: 0x0, symName: __ZNSt3__116allocator_traitsINS_9allocatorINS_11__hash_nodeINS_17__hash_value_typeINS_12basic_stringIcNS_11char_traitsIcEENS1_IcEEEE4GateEEPvEEEEE8max_sizeB8ue170006ISD_vEEmRKSD_, symObjAddr: 0xE9CC, symBinAddr: 0x100010324, symSize: 0x24 }
  - { offsetInCU: 0x2801F, offset: 0x2801F, size: 0x8, addend: 0x0, symName: __ZNKSt3__19allocatorINS_11__hash_nodeINS_17__hash_value_typeINS_12basic_stringIcNS_11char_traitsIcEENS0_IcEEEE4GateEEPvEEE8max_sizeB8ue170006Ev, symObjAddr: 0xE9F0, symBinAddr: 0x100010348, symSize: 0x18 }
  - { offsetInCU: 0x28045, offset: 0x28045, size: 0x8, addend: 0x0, symName: __ZNSt3__126__hash_map_node_destructorINS_9allocatorINS_11__hash_nodeINS_17__hash_value_typeINS_12basic_stringIcNS_11char_traitsIcEENS1_IcEEEE4GateEEPvEEEEEC2B8ue170006ERSD_, symObjAddr: 0xEA08, symBinAddr: 0x100010360, symSize: 0x28 }
  - { offsetInCU: 0x2807E, offset: 0x2807E, size: 0x8, addend: 0x0, symName: __ZNSt3__110unique_ptrINS_11__hash_nodeINS_17__hash_value_typeINS_12basic_stringIcNS_11char_traitsIcEENS_9allocatorIcEEEE4GateEEPvEENS_26__hash_map_node_destructorINS6_ISC_EEEEEC2B8ue170006ILb1EvEEPSC_NS_16__dependent_typeINS_27__unique_ptr_deleter_sfinaeISF_EEXT_EE20__good_rval_ref_typeE, symObjAddr: 0xEA30, symBinAddr: 0x100010388, symSize: 0x5C }
  - { offsetInCU: 0x280CF, offset: 0x280CF, size: 0x8, addend: 0x0, symName: __ZNSt3__117__compressed_pairIPNS_11__hash_nodeINS_17__hash_value_typeINS_12basic_stringIcNS_11char_traitsIcEENS_9allocatorIcEEEE4GateEEPvEENS_26__hash_map_node_destructorINS6_ISC_EEEEEC1B8ue170006IRSD_SG_EEOT_OT0_, symObjAddr: 0xEA8C, symBinAddr: 0x1000103E4, symSize: 0x3C }
  - { offsetInCU: 0x28127, offset: 0x28127, size: 0x8, addend: 0x0, symName: __ZNSt3__117__compressed_pairIPNS_11__hash_nodeINS_17__hash_value_typeINS_12basic_stringIcNS_11char_traitsIcEENS_9allocatorIcEEEE4GateEEPvEENS_26__hash_map_node_destructorINS6_ISC_EEEEEC2B8ue170006IRSD_SG_EEOT_OT0_, symObjAddr: 0xEAC8, symBinAddr: 0x100010420, symSize: 0x48 }
  - { offsetInCU: 0x2817F, offset: 0x2817F, size: 0x8, addend: 0x0, symName: __ZNSt3__122__compressed_pair_elemIPNS_11__hash_nodeINS_17__hash_value_typeINS_12basic_stringIcNS_11char_traitsIcEENS_9allocatorIcEEEE4GateEEPvEELi0ELb0EEC2B8ue170006IRSD_vEEOT_, symObjAddr: 0xEB10, symBinAddr: 0x100010468, symSize: 0x24 }
  - { offsetInCU: 0x281C1, offset: 0x281C1, size: 0x8, addend: 0x0, symName: __ZNSt3__122__compressed_pair_elemINS_26__hash_map_node_destructorINS_9allocatorINS_11__hash_nodeINS_17__hash_value_typeINS_12basic_stringIcNS_11char_traitsIcEENS2_IcEEEE4GateEEPvEEEEEELi1ELb0EEC2B8ue170006ISF_vEEOT_, symObjAddr: 0xEB34, symBinAddr: 0x10001048C, symSize: 0x24 }
  - { offsetInCU: 0x28203, offset: 0x28203, size: 0x8, addend: 0x0, symName: __ZNSt3__19allocatorINS_11__hash_nodeINS_17__hash_value_typeINS_12basic_stringIcNS_11char_traitsIcEENS0_IcEEEE4GateEEPvEEE9constructB8ue170006IKS7_JRSE_EEEvPT_DpOT0_, symObjAddr: 0xEB58, symBinAddr: 0x1000104B0, symSize: 0x30 }
  - { offsetInCU: 0x28259, offset: 0x28259, size: 0x8, addend: 0x0, symName: __ZNKSt3__117__compressed_pairIPNS_11__hash_nodeINS_17__hash_value_typeINS_12basic_stringIcNS_11char_traitsIcEENS_9allocatorIcEEEE4GateEEPvEENS_26__hash_map_node_destructorINS6_ISC_EEEEE5firstB8ue170006Ev, symObjAddr: 0xEB88, symBinAddr: 0x1000104E0, symSize: 0x24 }
  - { offsetInCU: 0x2827F, offset: 0x2827F, size: 0x8, addend: 0x0, symName: __ZNKSt3__122__compressed_pair_elemIPNS_11__hash_nodeINS_17__hash_value_typeINS_12basic_stringIcNS_11char_traitsIcEENS_9allocatorIcEEEE4GateEEPvEELi0ELb0EE5__getB8ue170006Ev, symObjAddr: 0xEBAC, symBinAddr: 0x100010504, symSize: 0x14 }
  - { offsetInCU: 0x282A5, offset: 0x282A5, size: 0x8, addend: 0x0, symName: __ZNSt3__117__compressed_pairIPNS_11__hash_nodeINS_17__hash_value_typeINS_12basic_stringIcNS_11char_traitsIcEENS_9allocatorIcEEEE4GateEEPvEENS_26__hash_map_node_destructorINS6_ISC_EEEEE6secondB8ue170006Ev, symObjAddr: 0xEBC0, symBinAddr: 0x100010518, symSize: 0x28 }
  - { offsetInCU: 0x282CB, offset: 0x282CB, size: 0x8, addend: 0x0, symName: __ZNSt3__122__compressed_pair_elemINS_26__hash_map_node_destructorINS_9allocatorINS_11__hash_nodeINS_17__hash_value_typeINS_12basic_stringIcNS_11char_traitsIcEENS2_IcEEEE4GateEEPvEEEEEELi1ELb0EE5__getB8ue170006Ev, symObjAddr: 0xEBE8, symBinAddr: 0x100010540, symSize: 0x14 }
  - { offsetInCU: 0x282F1, offset: 0x282F1, size: 0x8, addend: 0x0, symName: __ZNSt3__19allocatorINS_11__hash_nodeINS_17__hash_value_typeINS_12basic_stringIcNS_11char_traitsIcEENS0_IcEEEE4GateEEPvEEE9constructB8ue170006IS8_JEEEvPT_DpOT0_, symObjAddr: 0xEBFC, symBinAddr: 0x100010554, symSize: 0x28 }
  - { offsetInCU: 0x28333, offset: 0x28333, size: 0x8, addend: 0x0, symName: __ZNKSt3__122__unordered_map_hasherINS_12basic_stringIcNS_11char_traitsIcEENS_9allocatorIcEEEENS_17__hash_value_typeIS6_4GateEENS_4hashIS6_EENS_8equal_toIS6_EELb1EEclB8ue170006ERKS9_, symObjAddr: 0xEC24, symBinAddr: 0x10001057C, symSize: 0x3C }
  - { offsetInCU: 0x28368, offset: 0x28368, size: 0x8, addend: 0x0, symName: __ZNSt3__112__hash_tableINS_17__hash_value_typeINS_12basic_stringIcNS_11char_traitsIcEENS_9allocatorIcEEEE4GateEENS_22__unordered_map_hasherIS7_S9_NS_4hashIS7_EENS_8equal_toIS7_EELb1EEENS_21__unordered_map_equalIS7_S9_SE_SC_Lb1EEENS5_IS9_EEE28__node_insert_unique_prepareB8ue170006EmRS9_, symObjAddr: 0xEC60, symBinAddr: 0x1000105B8, symSize: 0x290 }
  - { offsetInCU: 0x283EA, offset: 0x283EA, size: 0x8, addend: 0x0, symName: __ZNSt3__112__hash_tableINS_17__hash_value_typeINS_12basic_stringIcNS_11char_traitsIcEENS_9allocatorIcEEEE4GateEENS_22__unordered_map_hasherIS7_S9_NS_4hashIS7_EENS_8equal_toIS7_EELb1EEENS_21__unordered_map_equalIS7_S9_SE_SC_Lb1EEENS5_IS9_EEE28__node_insert_unique_performB8ue170006EPNS_11__hash_nodeIS9_PvEE, symObjAddr: 0xEEF0, symBinAddr: 0x100010848, symSize: 0x154 }
  - { offsetInCU: 0x2844E, offset: 0x2844E, size: 0x8, addend: 0x0, symName: __ZNSt3__116__hash_node_baseIPNS_11__hash_nodeINS_17__hash_value_typeINS_12basic_stringIcNS_11char_traitsIcEENS_9allocatorIcEEEE4GateEEPvEEE5__ptrB8ue170006Ev, symObjAddr: 0xF044, symBinAddr: 0x10001099C, symSize: 0x24 }
  - { offsetInCU: 0x28474, offset: 0x28474, size: 0x8, addend: 0x0, symName: __ZNSt3__14pairINS_15__hash_iteratorIPNS_11__hash_nodeINS_17__hash_value_typeINS_12basic_stringIcNS_11char_traitsIcEENS_9allocatorIcEEEE4GateEEPvEEEEbEC1B8ue170006ERKSF_RKb, symObjAddr: 0xF068, symBinAddr: 0x1000109C0, symSize: 0x3C }
  - { offsetInCU: 0x284BA, offset: 0x284BA, size: 0x8, addend: 0x0, symName: __ZNKSt3__121__unordered_map_equalINS_12basic_stringIcNS_11char_traitsIcEENS_9allocatorIcEEEENS_17__hash_value_typeIS6_4GateEENS_8equal_toIS6_EENS_4hashIS6_EELb1EEclB8ue170006ERKS9_SG_, symObjAddr: 0xF0A4, symBinAddr: 0x1000109FC, symSize: 0x54 }
  - { offsetInCU: 0x284FE, offset: 0x284FE, size: 0x8, addend: 0x0, symName: __ZNSt3__112__hash_tableINS_17__hash_value_typeINS_12basic_stringIcNS_11char_traitsIcEENS_9allocatorIcEEEE4GateEENS_22__unordered_map_hasherIS7_S9_NS_4hashIS7_EENS_8equal_toIS7_EELb1EEENS_21__unordered_map_equalIS7_S9_SE_SC_Lb1EEENS5_IS9_EEE4sizeB8ue170006Ev, symObjAddr: 0xF0F8, symBinAddr: 0x100010A50, symSize: 0x28 }
  - { offsetInCU: 0x28524, offset: 0x28524, size: 0x8, addend: 0x0, symName: __ZNSt3__112__hash_tableINS_17__hash_value_typeINS_12basic_stringIcNS_11char_traitsIcEENS_9allocatorIcEEEE4GateEENS_22__unordered_map_hasherIS7_S9_NS_4hashIS7_EENS_8equal_toIS7_EELb1EEENS_21__unordered_map_equalIS7_S9_SE_SC_Lb1EEENS5_IS9_EEE15max_load_factorB8ue170006Ev, symObjAddr: 0xF120, symBinAddr: 0x100010A78, symSize: 0x28 }
  - { offsetInCU: 0x2854A, offset: 0x2854A, size: 0x8, addend: 0x0, symName: __ZNSt3__112__hash_tableINS_17__hash_value_typeINS_12basic_stringIcNS_11char_traitsIcEENS_9allocatorIcEEEE4GateEENS_22__unordered_map_hasherIS7_S9_NS_4hashIS7_EENS_8equal_toIS7_EELb1EEENS_21__unordered_map_equalIS7_S9_SE_SC_Lb1EEENS5_IS9_EEE15__rehash_uniqueB8ue170006Em, symObjAddr: 0xF148, symBinAddr: 0x100010AA0, symSize: 0x2C }
  - { offsetInCU: 0x2857F, offset: 0x2857F, size: 0x8, addend: 0x0, symName: __ZNSt3__117__compressed_pairImNS_22__unordered_map_hasherINS_12basic_stringIcNS_11char_traitsIcEENS_9allocatorIcEEEENS_17__hash_value_typeIS7_4GateEENS_4hashIS7_EENS_8equal_toIS7_EELb1EEEE5firstB8ue170006Ev, symObjAddr: 0xF174, symBinAddr: 0x100010ACC, symSize: 0x24 }
  - { offsetInCU: 0x285A5, offset: 0x285A5, size: 0x8, addend: 0x0, symName: __ZNSt3__117__compressed_pairIfNS_21__unordered_map_equalINS_12basic_stringIcNS_11char_traitsIcEENS_9allocatorIcEEEENS_17__hash_value_typeIS7_4GateEENS_8equal_toIS7_EENS_4hashIS7_EELb1EEEE5firstB8ue170006Ev, symObjAddr: 0xF198, symBinAddr: 0x100010AF0, symSize: 0x24 }
  - { offsetInCU: 0x285CB, offset: 0x285CB, size: 0x8, addend: 0x0, symName: __ZNSt3__112__hash_tableINS_17__hash_value_typeINS_12basic_stringIcNS_11char_traitsIcEENS_9allocatorIcEEEE4GateEENS_22__unordered_map_hasherIS7_S9_NS_4hashIS7_EENS_8equal_toIS7_EELb1EEENS_21__unordered_map_equalIS7_S9_SE_SC_Lb1EEENS5_IS9_EEE8__rehashILb1EEEvm, symObjAddr: 0xF1BC, symBinAddr: 0x100010B14, symSize: 0x1A8 }
  - { offsetInCU: 0x2861B, offset: 0x2861B, size: 0x8, addend: 0x0, symName: __ZNSt3__112__hash_tableINS_17__hash_value_typeINS_12basic_stringIcNS_11char_traitsIcEENS_9allocatorIcEEEE4GateEENS_22__unordered_map_hasherIS7_S9_NS_4hashIS7_EENS_8equal_toIS7_EELb1EEENS_21__unordered_map_equalIS7_S9_SE_SC_Lb1EEENS5_IS9_EEE11__do_rehashILb1EEEvm, symObjAddr: 0xF364, symBinAddr: 0x100010CBC, symSize: 0x288 }
  - { offsetInCU: 0x28702, offset: 0x28702, size: 0x8, addend: 0x0, symName: __ZNSt3__110unique_ptrIA_PNS_16__hash_node_baseIPNS_11__hash_nodeINS_17__hash_value_typeINS_12basic_stringIcNS_11char_traitsIcEENS_9allocatorIcEEEE4GateEEPvEEEENS_25__bucket_list_deallocatorINS7_ISG_EEEEE11get_deleterB8ue170006Ev, symObjAddr: 0xF5EC, symBinAddr: 0x100010F44, symSize: 0x24 }
  - { offsetInCU: 0x28728, offset: 0x28728, size: 0x8, addend: 0x0, symName: __ZNSt3__110unique_ptrIA_PNS_16__hash_node_baseIPNS_11__hash_nodeINS_17__hash_value_typeINS_12basic_stringIcNS_11char_traitsIcEENS_9allocatorIcEEEE4GateEEPvEEEENS_25__bucket_list_deallocatorINS7_ISG_EEEEE5resetB8ue170006IPSG_EENS_9enable_ifIXsr28_CheckArrayPointerConversionIT_EE5valueEvE4typeESP_, symObjAddr: 0xF610, symBinAddr: 0x100010F68, symSize: 0x78 }
  - { offsetInCU: 0x28775, offset: 0x28775, size: 0x8, addend: 0x0, symName: __ZNSt3__116allocator_traitsINS_9allocatorIPNS_16__hash_node_baseIPNS_11__hash_nodeINS_17__hash_value_typeINS_12basic_stringIcNS_11char_traitsIcEENS1_IcEEEE4GateEEPvEEEEEEE8allocateB8ue170006ERSH_m, symObjAddr: 0xF688, symBinAddr: 0x100010FE0, symSize: 0x2C }
  - { offsetInCU: 0x287A8, offset: 0x287A8, size: 0x8, addend: 0x0, symName: __ZNSt3__19allocatorIPNS_16__hash_node_baseIPNS_11__hash_nodeINS_17__hash_value_typeINS_12basic_stringIcNS_11char_traitsIcEENS0_IcEEEE4GateEEPvEEEEE8allocateB8ue170006Em, symObjAddr: 0xF6B4, symBinAddr: 0x10001100C, symSize: 0x84 }
  - { offsetInCU: 0x287E6, offset: 0x287E6, size: 0x8, addend: 0x0, symName: __ZNSt3__116allocator_traitsINS_9allocatorIPNS_16__hash_node_baseIPNS_11__hash_nodeINS_17__hash_value_typeINS_12basic_stringIcNS_11char_traitsIcEENS1_IcEEEE4GateEEPvEEEEEEE8max_sizeB8ue170006ISH_vEEmRKSH_, symObjAddr: 0xF738, symBinAddr: 0x100011090, symSize: 0x24 }
  - { offsetInCU: 0x28814, offset: 0x28814, size: 0x8, addend: 0x0, symName: __ZNKSt3__19allocatorIPNS_16__hash_node_baseIPNS_11__hash_nodeINS_17__hash_value_typeINS_12basic_stringIcNS_11char_traitsIcEENS0_IcEEEE4GateEEPvEEEEE8max_sizeB8ue170006Ev, symObjAddr: 0xF75C, symBinAddr: 0x1000110B4, symSize: 0x14 }
  - { offsetInCU: 0x2883A, offset: 0x2883A, size: 0x8, addend: 0x0, symName: __ZNSt3__14pairINS_15__hash_iteratorIPNS_11__hash_nodeINS_17__hash_value_typeINS_12basic_stringIcNS_11char_traitsIcEENS_9allocatorIcEEEE4GateEEPvEEEEbEC2B8ue170006ERKSF_RKb, symObjAddr: 0xF770, symBinAddr: 0x1000110C8, symSize: 0x38 }
  - { offsetInCU: 0x28880, offset: 0x28880, size: 0x8, addend: 0x0, symName: __ZNSt3__14pairINS_19__hash_map_iteratorINS_15__hash_iteratorIPNS_11__hash_nodeINS_17__hash_value_typeINS_12basic_stringIcNS_11char_traitsIcEENS_9allocatorIcEEEE4GateEEPvEEEEEEbEC2B8ue170006ISG_bEERKNS0_IT_T0_EE, symObjAddr: 0xF7A8, symBinAddr: 0x100011100, symSize: 0x50 }
  - { offsetInCU: 0x288CA, offset: 0x288CA, size: 0x8, addend: 0x0, symName: __ZNSt3__117__compressed_pairIPNS_11__hash_nodeINS_17__hash_value_typeINS_12basic_stringIcNS_11char_traitsIcEENS_9allocatorIcEEEE4GateEEPvEENS_26__hash_map_node_destructorINS6_ISC_EEEEE5firstB8ue170006Ev, symObjAddr: 0xF7F8, symBinAddr: 0x100011150, symSize: 0x24 }
  - { offsetInCU: 0x288F0, offset: 0x288F0, size: 0x8, addend: 0x0, symName: __ZNSt3__122__compressed_pair_elemIPNS_11__hash_nodeINS_17__hash_value_typeINS_12basic_stringIcNS_11char_traitsIcEENS_9allocatorIcEEEE4GateEEPvEELi0ELb0EE5__getB8ue170006Ev, symObjAddr: 0xF81C, symBinAddr: 0x100011174, symSize: 0x14 }
  - { offsetInCU: 0x28916, offset: 0x28916, size: 0x8, addend: 0x0, symName: __ZNSt3__110unique_ptrINS_11__hash_nodeINS_17__hash_value_typeINS_12basic_stringIcNS_11char_traitsIcEENS_9allocatorIcEEEE4GateEEPvEENS_26__hash_map_node_destructorINS6_ISC_EEEEED2B8ue170006Ev, symObjAddr: 0xF830, symBinAddr: 0x100011188, symSize: 0x30 }
  - { offsetInCU: 0x28940, offset: 0x28940, size: 0x8, addend: 0x0, symName: __ZNSt3__110unique_ptrINS_11__hash_nodeINS_17__hash_value_typeINS_12basic_stringIcNS_11char_traitsIcEENS_9allocatorIcEEEE4GateEEPvEENS_26__hash_map_node_destructorINS6_ISC_EEEEE5resetB8ue170006EPSC_, symObjAddr: 0xF860, symBinAddr: 0x1000111B8, symSize: 0x78 }
  - { offsetInCU: 0x28984, offset: 0x28984, size: 0x8, addend: 0x0, symName: __ZNSt3__126__hash_map_node_destructorINS_9allocatorINS_11__hash_nodeINS_17__hash_value_typeINS_12basic_stringIcNS_11char_traitsIcEENS1_IcEEEE4GateEEPvEEEEEclB8ue170006EPSC_, symObjAddr: 0xF8D8, symBinAddr: 0x100011230, symSize: 0xE4 }
  - { offsetInCU: 0x289B9, offset: 0x289B9, size: 0x8, addend: 0x0, symName: __ZNSt3__116allocator_traitsINS_9allocatorINS_11__hash_nodeINS_17__hash_value_typeINS_12basic_stringIcNS_11char_traitsIcEENS1_IcEEEE4GateEEPvEEEEE7destroyB8ue170006IS9_vvEEvRSD_PT_, symObjAddr: 0xF9BC, symBinAddr: 0x100011314, symSize: 0x28 }
  - { offsetInCU: 0x289F4, offset: 0x289F4, size: 0x8, addend: 0x0, symName: __ZNSt3__116allocator_traitsINS_9allocatorINS_11__hash_nodeINS_17__hash_value_typeINS_12basic_stringIcNS_11char_traitsIcEENS1_IcEEEE4GateEEPvEEEEE7destroyB8ue170006IKS8_vvEEvRSD_PT_, symObjAddr: 0xF9E4, symBinAddr: 0x10001133C, symSize: 0x28 }
  - { offsetInCU: 0x28A2F, offset: 0x28A2F, size: 0x8, addend: 0x0, symName: __ZNSt3__113unordered_mapINS_12basic_stringIcNS_11char_traitsIcEENS_9allocatorIcEEEEP9InstanceFNS_4hashIS6_EENS_8equal_toIS6_EENS4_INS_4pairIKS6_S8_EEEEEC2B8ue170006Ev, symObjAddr: 0xFA0C, symBinAddr: 0x100011364, symSize: 0x2C }
  - { offsetInCU: 0x28A59, offset: 0x28A59, size: 0x8, addend: 0x0, symName: __ZNSt3__112__hash_tableINS_17__hash_value_typeINS_12basic_stringIcNS_11char_traitsIcEENS_9allocatorIcEEEEP9InstanceFEENS_22__unordered_map_hasherIS7_SA_NS_4hashIS7_EENS_8equal_toIS7_EELb1EEENS_21__unordered_map_equalIS7_SA_SF_SD_Lb1EEENS5_ISA_EEEC1Ev, symObjAddr: 0xFA38, symBinAddr: 0x100011390, symSize: 0x2C }
  - { offsetInCU: 0x28A85, offset: 0x28A85, size: 0x8, addend: 0x0, symName: __ZNSt3__112__hash_tableINS_17__hash_value_typeINS_12basic_stringIcNS_11char_traitsIcEENS_9allocatorIcEEEEP9InstanceFEENS_22__unordered_map_hasherIS7_SA_NS_4hashIS7_EENS_8equal_toIS7_EELb1EEENS_21__unordered_map_equalIS7_SA_SF_SD_Lb1EEENS5_ISA_EEEC2Ev, symObjAddr: 0xFA64, symBinAddr: 0x1000113BC, symSize: 0xA4 }
  - { offsetInCU: 0x28AB1, offset: 0x28AB1, size: 0x8, addend: 0x0, symName: __ZNSt3__110unique_ptrIA_PNS_16__hash_node_baseIPNS_11__hash_nodeINS_17__hash_value_typeINS_12basic_stringIcNS_11char_traitsIcEENS_9allocatorIcEEEEP9InstanceFEEPvEEEENS_25__bucket_list_deallocatorINS7_ISH_EEEEEC1B8ue170006ILb1EvEEv, symObjAddr: 0xFB08, symBinAddr: 0x100011460, symSize: 0x2C }
  - { offsetInCU: 0x28AE6, offset: 0x28AE6, size: 0x8, addend: 0x0, symName: __ZNSt3__117__compressed_pairINS_16__hash_node_baseIPNS_11__hash_nodeINS_17__hash_value_typeINS_12basic_stringIcNS_11char_traitsIcEENS_9allocatorIcEEEEP9InstanceFEEPvEEEENS7_ISE_EEEC1B8ue170006ILb1EvEEv, symObjAddr: 0xFB34, symBinAddr: 0x10001148C, symSize: 0x2C }
  - { offsetInCU: 0x28B1B, offset: 0x28B1B, size: 0x8, addend: 0x0, symName: __ZNSt3__117__compressed_pairImNS_22__unordered_map_hasherINS_12basic_stringIcNS_11char_traitsIcEENS_9allocatorIcEEEENS_17__hash_value_typeIS7_P9InstanceFEENS_4hashIS7_EENS_8equal_toIS7_EELb1EEEEC1B8ue170006IiNS_18__default_init_tagEEEOT_OT0_, symObjAddr: 0xFB60, symBinAddr: 0x1000114B8, symSize: 0x3C }
  - { offsetInCU: 0x28B73, offset: 0x28B73, size: 0x8, addend: 0x0, symName: __ZNSt3__117__compressed_pairIfNS_21__unordered_map_equalINS_12basic_stringIcNS_11char_traitsIcEENS_9allocatorIcEEEENS_17__hash_value_typeIS7_P9InstanceFEENS_8equal_toIS7_EENS_4hashIS7_EELb1EEEEC1B8ue170006IfNS_18__default_init_tagEEEOT_OT0_, symObjAddr: 0xFB9C, symBinAddr: 0x1000114F4, symSize: 0x3C }
  - { offsetInCU: 0x28BCB, offset: 0x28BCB, size: 0x8, addend: 0x0, symName: __ZNSt3__110unique_ptrIA_PNS_16__hash_node_baseIPNS_11__hash_nodeINS_17__hash_value_typeINS_12basic_stringIcNS_11char_traitsIcEENS_9allocatorIcEEEEP9InstanceFEEPvEEEENS_25__bucket_list_deallocatorINS7_ISH_EEEEED1B8ue170006Ev, symObjAddr: 0xFBD8, symBinAddr: 0x100011530, symSize: 0x2C }
  - { offsetInCU: 0x28BF5, offset: 0x28BF5, size: 0x8, addend: 0x0, symName: __ZNSt3__110unique_ptrIA_PNS_16__hash_node_baseIPNS_11__hash_nodeINS_17__hash_value_typeINS_12basic_stringIcNS_11char_traitsIcEENS_9allocatorIcEEEEP9InstanceFEEPvEEEENS_25__bucket_list_deallocatorINS7_ISH_EEEEEC2B8ue170006ILb1EvEEv, symObjAddr: 0xFC04, symBinAddr: 0x10001155C, symSize: 0x50 }
  - { offsetInCU: 0x28C2A, offset: 0x28C2A, size: 0x8, addend: 0x0, symName: __ZNSt3__117__compressed_pairIPPNS_16__hash_node_baseIPNS_11__hash_nodeINS_17__hash_value_typeINS_12basic_stringIcNS_11char_traitsIcEENS_9allocatorIcEEEEP9InstanceFEEPvEEEENS_25__bucket_list_deallocatorINS7_ISH_EEEEEC1B8ue170006INS_16__value_init_tagESO_EEOT_OT0_, symObjAddr: 0xFC54, symBinAddr: 0x1000115AC, symSize: 0x3C }
  - { offsetInCU: 0x28C82, offset: 0x28C82, size: 0x8, addend: 0x0, symName: __ZNSt3__117__compressed_pairIPPNS_16__hash_node_baseIPNS_11__hash_nodeINS_17__hash_value_typeINS_12basic_stringIcNS_11char_traitsIcEENS_9allocatorIcEEEEP9InstanceFEEPvEEEENS_25__bucket_list_deallocatorINS7_ISH_EEEEEC2B8ue170006INS_16__value_init_tagESO_EEOT_OT0_, symObjAddr: 0xFC90, symBinAddr: 0x1000115E8, symSize: 0x40 }
  - { offsetInCU: 0x28CDA, offset: 0x28CDA, size: 0x8, addend: 0x0, symName: __ZNSt3__122__compressed_pair_elemIPPNS_16__hash_node_baseIPNS_11__hash_nodeINS_17__hash_value_typeINS_12basic_stringIcNS_11char_traitsIcEENS_9allocatorIcEEEEP9InstanceFEEPvEEEELi0ELb0EEC2B8ue170006ENS_16__value_init_tagE, symObjAddr: 0xFCD0, symBinAddr: 0x100011628, symSize: 0x18 }
  - { offsetInCU: 0x28D0F, offset: 0x28D0F, size: 0x8, addend: 0x0, symName: __ZNSt3__122__compressed_pair_elemINS_25__bucket_list_deallocatorINS_9allocatorIPNS_16__hash_node_baseIPNS_11__hash_nodeINS_17__hash_value_typeINS_12basic_stringIcNS_11char_traitsIcEENS2_IcEEEEP9InstanceFEEPvEEEEEEEELi1ELb0EEC2B8ue170006ENS_16__value_init_tagE, symObjAddr: 0xFCE8, symBinAddr: 0x100011640, symSize: 0x2C }
  - { offsetInCU: 0x28D44, offset: 0x28D44, size: 0x8, addend: 0x0, symName: __ZNSt3__125__bucket_list_deallocatorINS_9allocatorIPNS_16__hash_node_baseIPNS_11__hash_nodeINS_17__hash_value_typeINS_12basic_stringIcNS_11char_traitsIcEENS1_IcEEEEP9InstanceFEEPvEEEEEEEC1B8ue170006Ev, symObjAddr: 0xFD14, symBinAddr: 0x10001166C, symSize: 0x2C }
  - { offsetInCU: 0x28D6E, offset: 0x28D6E, size: 0x8, addend: 0x0, symName: __ZNSt3__125__bucket_list_deallocatorINS_9allocatorIPNS_16__hash_node_baseIPNS_11__hash_nodeINS_17__hash_value_typeINS_12basic_stringIcNS_11char_traitsIcEENS1_IcEEEEP9InstanceFEEPvEEEEEEEC2B8ue170006Ev, symObjAddr: 0xFD40, symBinAddr: 0x100011698, symSize: 0x38 }
  - { offsetInCU: 0x28D98, offset: 0x28D98, size: 0x8, addend: 0x0, symName: __ZNSt3__117__compressed_pairImNS_9allocatorIPNS_16__hash_node_baseIPNS_11__hash_nodeINS_17__hash_value_typeINS_12basic_stringIcNS_11char_traitsIcEENS1_IcEEEEP9InstanceFEEPvEEEEEEEC1B8ue170006IiNS_18__default_init_tagEEEOT_OT0_, symObjAddr: 0xFD78, symBinAddr: 0x1000116D0, symSize: 0x3C }
  - { offsetInCU: 0x28DF0, offset: 0x28DF0, size: 0x8, addend: 0x0, symName: __ZNSt3__117__compressed_pairImNS_9allocatorIPNS_16__hash_node_baseIPNS_11__hash_nodeINS_17__hash_value_typeINS_12basic_stringIcNS_11char_traitsIcEENS1_IcEEEEP9InstanceFEEPvEEEEEEEC2B8ue170006IiNS_18__default_init_tagEEEOT_OT0_, symObjAddr: 0xFDB4, symBinAddr: 0x10001170C, symSize: 0x40 }
  - { offsetInCU: 0x28E48, offset: 0x28E48, size: 0x8, addend: 0x0, symName: __ZNSt3__122__compressed_pair_elemINS_9allocatorIPNS_16__hash_node_baseIPNS_11__hash_nodeINS_17__hash_value_typeINS_12basic_stringIcNS_11char_traitsIcEENS1_IcEEEEP9InstanceFEEPvEEEEEELi1ELb1EEC2B8ue170006ENS_18__default_init_tagE, symObjAddr: 0xFDF4, symBinAddr: 0x10001174C, symSize: 0x2C }
  - { offsetInCU: 0x28E7D, offset: 0x28E7D, size: 0x8, addend: 0x0, symName: __ZNSt3__19allocatorIPNS_16__hash_node_baseIPNS_11__hash_nodeINS_17__hash_value_typeINS_12basic_stringIcNS_11char_traitsIcEENS0_IcEEEEP9InstanceFEEPvEEEEEC2B8ue170006Ev, symObjAddr: 0xFE20, symBinAddr: 0x100011778, symSize: 0x2C }
  - { offsetInCU: 0x28EA7, offset: 0x28EA7, size: 0x8, addend: 0x0, symName: __ZNSt3__116__non_trivial_ifILb1ENS_9allocatorIPNS_16__hash_node_baseIPNS_11__hash_nodeINS_17__hash_value_typeINS_12basic_stringIcNS_11char_traitsIcEENS1_IcEEEEP9InstanceFEEPvEEEEEEEC2B8ue170006Ev, symObjAddr: 0xFE4C, symBinAddr: 0x1000117A4, symSize: 0x14 }
  - { offsetInCU: 0x28ED1, offset: 0x28ED1, size: 0x8, addend: 0x0, symName: __ZNSt3__117__compressed_pairINS_16__hash_node_baseIPNS_11__hash_nodeINS_17__hash_value_typeINS_12basic_stringIcNS_11char_traitsIcEENS_9allocatorIcEEEEP9InstanceFEEPvEEEENS7_ISE_EEEC2B8ue170006ILb1EvEEv, symObjAddr: 0xFE60, symBinAddr: 0x1000117B8, symSize: 0x34 }
  - { offsetInCU: 0x28F06, offset: 0x28F06, size: 0x8, addend: 0x0, symName: __ZNSt3__122__compressed_pair_elemINS_16__hash_node_baseIPNS_11__hash_nodeINS_17__hash_value_typeINS_12basic_stringIcNS_11char_traitsIcEENS_9allocatorIcEEEEP9InstanceFEEPvEEEELi0ELb0EEC2B8ue170006ENS_16__value_init_tagE, symObjAddr: 0xFE94, symBinAddr: 0x1000117EC, symSize: 0x2C }
  - { offsetInCU: 0x28F3B, offset: 0x28F3B, size: 0x8, addend: 0x0, symName: __ZNSt3__122__compressed_pair_elemINS_9allocatorINS_11__hash_nodeINS_17__hash_value_typeINS_12basic_stringIcNS_11char_traitsIcEENS1_IcEEEEP9InstanceFEEPvEEEELi1ELb1EEC2B8ue170006ENS_16__value_init_tagE, symObjAddr: 0xFEC0, symBinAddr: 0x100011818, symSize: 0x2C }
  - { offsetInCU: 0x28F70, offset: 0x28F70, size: 0x8, addend: 0x0, symName: __ZNSt3__116__hash_node_baseIPNS_11__hash_nodeINS_17__hash_value_typeINS_12basic_stringIcNS_11char_traitsIcEENS_9allocatorIcEEEEP9InstanceFEEPvEEEC1B8ue170006Ev, symObjAddr: 0xFEEC, symBinAddr: 0x100011844, symSize: 0x2C }
  - { offsetInCU: 0x28F9A, offset: 0x28F9A, size: 0x8, addend: 0x0, symName: __ZNSt3__116__hash_node_baseIPNS_11__hash_nodeINS_17__hash_value_typeINS_12basic_stringIcNS_11char_traitsIcEENS_9allocatorIcEEEEP9InstanceFEEPvEEEC2B8ue170006Ev, symObjAddr: 0xFF18, symBinAddr: 0x100011870, symSize: 0x18 }
  - { offsetInCU: 0x28FC4, offset: 0x28FC4, size: 0x8, addend: 0x0, symName: __ZNSt3__19allocatorINS_11__hash_nodeINS_17__hash_value_typeINS_12basic_stringIcNS_11char_traitsIcEENS0_IcEEEEP9InstanceFEEPvEEEC2B8ue170006Ev, symObjAddr: 0xFF30, symBinAddr: 0x100011888, symSize: 0x2C }
  - { offsetInCU: 0x28FEE, offset: 0x28FEE, size: 0x8, addend: 0x0, symName: __ZNSt3__116__non_trivial_ifILb1ENS_9allocatorINS_11__hash_nodeINS_17__hash_value_typeINS_12basic_stringIcNS_11char_traitsIcEENS1_IcEEEEP9InstanceFEEPvEEEEEC2B8ue170006Ev, symObjAddr: 0xFF5C, symBinAddr: 0x1000118B4, symSize: 0x14 }
  - { offsetInCU: 0x29018, offset: 0x29018, size: 0x8, addend: 0x0, symName: __ZNSt3__117__compressed_pairImNS_22__unordered_map_hasherINS_12basic_stringIcNS_11char_traitsIcEENS_9allocatorIcEEEENS_17__hash_value_typeIS7_P9InstanceFEENS_4hashIS7_EENS_8equal_toIS7_EELb1EEEEC2B8ue170006IiNS_18__default_init_tagEEEOT_OT0_, symObjAddr: 0xFF70, symBinAddr: 0x1000118C8, symSize: 0x40 }
  - { offsetInCU: 0x29070, offset: 0x29070, size: 0x8, addend: 0x0, symName: __ZNSt3__122__compressed_pair_elemINS_22__unordered_map_hasherINS_12basic_stringIcNS_11char_traitsIcEENS_9allocatorIcEEEENS_17__hash_value_typeIS7_P9InstanceFEENS_4hashIS7_EENS_8equal_toIS7_EELb1EEELi1ELb1EEC2B8ue170006ENS_18__default_init_tagE, symObjAddr: 0xFFB0, symBinAddr: 0x100011908, symSize: 0x2C }
  - { offsetInCU: 0x290A5, offset: 0x290A5, size: 0x8, addend: 0x0, symName: __ZNSt3__122__unordered_map_hasherINS_12basic_stringIcNS_11char_traitsIcEENS_9allocatorIcEEEENS_17__hash_value_typeIS6_P9InstanceFEENS_4hashIS6_EENS_8equal_toIS6_EELb1EEC2B8ue170006Ev, symObjAddr: 0xFFDC, symBinAddr: 0x100011934, symSize: 0x14 }
  - { offsetInCU: 0x290CF, offset: 0x290CF, size: 0x8, addend: 0x0, symName: __ZNSt3__117__compressed_pairIfNS_21__unordered_map_equalINS_12basic_stringIcNS_11char_traitsIcEENS_9allocatorIcEEEENS_17__hash_value_typeIS7_P9InstanceFEENS_8equal_toIS7_EENS_4hashIS7_EELb1EEEEC2B8ue170006IfNS_18__default_init_tagEEEOT_OT0_, symObjAddr: 0xFFF0, symBinAddr: 0x100011948, symSize: 0x40 }
  - { offsetInCU: 0x29127, offset: 0x29127, size: 0x8, addend: 0x0, symName: __ZNSt3__122__compressed_pair_elemINS_21__unordered_map_equalINS_12basic_stringIcNS_11char_traitsIcEENS_9allocatorIcEEEENS_17__hash_value_typeIS7_P9InstanceFEENS_8equal_toIS7_EENS_4hashIS7_EELb1EEELi1ELb1EEC2B8ue170006ENS_18__default_init_tagE, symObjAddr: 0x10030, symBinAddr: 0x100011988, symSize: 0x2C }
  - { offsetInCU: 0x2915C, offset: 0x2915C, size: 0x8, addend: 0x0, symName: __ZNSt3__121__unordered_map_equalINS_12basic_stringIcNS_11char_traitsIcEENS_9allocatorIcEEEENS_17__hash_value_typeIS6_P9InstanceFEENS_8equal_toIS6_EENS_4hashIS6_EELb1EEC2B8ue170006Ev, symObjAddr: 0x1005C, symBinAddr: 0x1000119B4, symSize: 0x14 }
  - { offsetInCU: 0x29186, offset: 0x29186, size: 0x8, addend: 0x0, symName: __ZNSt3__110unique_ptrIA_PNS_16__hash_node_baseIPNS_11__hash_nodeINS_17__hash_value_typeINS_12basic_stringIcNS_11char_traitsIcEENS_9allocatorIcEEEEP9InstanceFEEPvEEEENS_25__bucket_list_deallocatorINS7_ISH_EEEEED2B8ue170006Ev, symObjAddr: 0x10070, symBinAddr: 0x1000119C8, symSize: 0x30 }
  - { offsetInCU: 0x291B0, offset: 0x291B0, size: 0x8, addend: 0x0, symName: __ZNSt3__110unique_ptrIA_PNS_16__hash_node_baseIPNS_11__hash_nodeINS_17__hash_value_typeINS_12basic_stringIcNS_11char_traitsIcEENS_9allocatorIcEEEEP9InstanceFEEPvEEEENS_25__bucket_list_deallocatorINS7_ISH_EEEEE5resetB8ue170006EDn, symObjAddr: 0x100A0, symBinAddr: 0x1000119F8, symSize: 0x6C }
  - { offsetInCU: 0x291F1, offset: 0x291F1, size: 0x8, addend: 0x0, symName: __ZNSt3__117__compressed_pairIPPNS_16__hash_node_baseIPNS_11__hash_nodeINS_17__hash_value_typeINS_12basic_stringIcNS_11char_traitsIcEENS_9allocatorIcEEEEP9InstanceFEEPvEEEENS_25__bucket_list_deallocatorINS7_ISH_EEEEE5firstB8ue170006Ev, symObjAddr: 0x1010C, symBinAddr: 0x100011A64, symSize: 0x24 }
  - { offsetInCU: 0x29217, offset: 0x29217, size: 0x8, addend: 0x0, symName: __ZNSt3__117__compressed_pairIPPNS_16__hash_node_baseIPNS_11__hash_nodeINS_17__hash_value_typeINS_12basic_stringIcNS_11char_traitsIcEENS_9allocatorIcEEEEP9InstanceFEEPvEEEENS_25__bucket_list_deallocatorINS7_ISH_EEEEE6secondB8ue170006Ev, symObjAddr: 0x10130, symBinAddr: 0x100011A88, symSize: 0x28 }
  - { offsetInCU: 0x2923D, offset: 0x2923D, size: 0x8, addend: 0x0, symName: __ZNSt3__125__bucket_list_deallocatorINS_9allocatorIPNS_16__hash_node_baseIPNS_11__hash_nodeINS_17__hash_value_typeINS_12basic_stringIcNS_11char_traitsIcEENS1_IcEEEEP9InstanceFEEPvEEEEEEEclB8ue170006EPSH_, symObjAddr: 0x10158, symBinAddr: 0x100011AB0, symSize: 0x58 }
  - { offsetInCU: 0x29272, offset: 0x29272, size: 0x8, addend: 0x0, symName: __ZNSt3__122__compressed_pair_elemIPPNS_16__hash_node_baseIPNS_11__hash_nodeINS_17__hash_value_typeINS_12basic_stringIcNS_11char_traitsIcEENS_9allocatorIcEEEEP9InstanceFEEPvEEEELi0ELb0EE5__getB8ue170006Ev, symObjAddr: 0x101B0, symBinAddr: 0x100011B08, symSize: 0x14 }
  - { offsetInCU: 0x29298, offset: 0x29298, size: 0x8, addend: 0x0, symName: __ZNSt3__122__compressed_pair_elemINS_25__bucket_list_deallocatorINS_9allocatorIPNS_16__hash_node_baseIPNS_11__hash_nodeINS_17__hash_value_typeINS_12basic_stringIcNS_11char_traitsIcEENS2_IcEEEEP9InstanceFEEPvEEEEEEEELi1ELb0EE5__getB8ue170006Ev, symObjAddr: 0x101C4, symBinAddr: 0x100011B1C, symSize: 0x14 }
  - { offsetInCU: 0x292BE, offset: 0x292BE, size: 0x8, addend: 0x0, symName: __ZNSt3__116allocator_traitsINS_9allocatorIPNS_16__hash_node_baseIPNS_11__hash_nodeINS_17__hash_value_typeINS_12basic_stringIcNS_11char_traitsIcEENS1_IcEEEEP9InstanceFEEPvEEEEEEE10deallocateB8ue170006ERSI_PSH_m, symObjAddr: 0x101D8, symBinAddr: 0x100011B30, symSize: 0x34 }
  - { offsetInCU: 0x29300, offset: 0x29300, size: 0x8, addend: 0x0, symName: __ZNSt3__125__bucket_list_deallocatorINS_9allocatorIPNS_16__hash_node_baseIPNS_11__hash_nodeINS_17__hash_value_typeINS_12basic_stringIcNS_11char_traitsIcEENS1_IcEEEEP9InstanceFEEPvEEEEEEE7__allocB8ue170006Ev, symObjAddr: 0x1020C, symBinAddr: 0x100011B64, symSize: 0x24 }
  - { offsetInCU: 0x29326, offset: 0x29326, size: 0x8, addend: 0x0, symName: __ZNSt3__125__bucket_list_deallocatorINS_9allocatorIPNS_16__hash_node_baseIPNS_11__hash_nodeINS_17__hash_value_typeINS_12basic_stringIcNS_11char_traitsIcEENS1_IcEEEEP9InstanceFEEPvEEEEEEE4sizeB8ue170006Ev, symObjAddr: 0x10230, symBinAddr: 0x100011B88, symSize: 0x24 }
  - { offsetInCU: 0x2934C, offset: 0x2934C, size: 0x8, addend: 0x0, symName: __ZNSt3__19allocatorIPNS_16__hash_node_baseIPNS_11__hash_nodeINS_17__hash_value_typeINS_12basic_stringIcNS_11char_traitsIcEENS0_IcEEEEP9InstanceFEEPvEEEEE10deallocateB8ue170006EPSG_m, symObjAddr: 0x10254, symBinAddr: 0x100011BAC, symSize: 0x70 }
  - { offsetInCU: 0x2938E, offset: 0x2938E, size: 0x8, addend: 0x0, symName: __ZNSt3__117__compressed_pairImNS_9allocatorIPNS_16__hash_node_baseIPNS_11__hash_nodeINS_17__hash_value_typeINS_12basic_stringIcNS_11char_traitsIcEENS1_IcEEEEP9InstanceFEEPvEEEEEEE6secondB8ue170006Ev, symObjAddr: 0x102C4, symBinAddr: 0x100011C1C, symSize: 0x24 }
  - { offsetInCU: 0x293B4, offset: 0x293B4, size: 0x8, addend: 0x0, symName: __ZNSt3__122__compressed_pair_elemINS_9allocatorIPNS_16__hash_node_baseIPNS_11__hash_nodeINS_17__hash_value_typeINS_12basic_stringIcNS_11char_traitsIcEENS1_IcEEEEP9InstanceFEEPvEEEEEELi1ELb1EE5__getB8ue170006Ev, symObjAddr: 0x102E8, symBinAddr: 0x100011C40, symSize: 0x14 }
  - { offsetInCU: 0x293DA, offset: 0x293DA, size: 0x8, addend: 0x0, symName: __ZNSt3__117__compressed_pairImNS_9allocatorIPNS_16__hash_node_baseIPNS_11__hash_nodeINS_17__hash_value_typeINS_12basic_stringIcNS_11char_traitsIcEENS1_IcEEEEP9InstanceFEEPvEEEEEEE5firstB8ue170006Ev, symObjAddr: 0x102FC, symBinAddr: 0x100011C54, symSize: 0x24 }
  - { offsetInCU: 0x29400, offset: 0x29400, size: 0x8, addend: 0x0, symName: __ZNSt3__113unordered_mapINS_12basic_stringIcNS_11char_traitsIcEENS_9allocatorIcEEEEP9InstanceFNS_4hashIS6_EENS_8equal_toIS6_EENS4_INS_4pairIKS6_S8_EEEEED2B8ue170006Ev, symObjAddr: 0x10320, symBinAddr: 0x100011C78, symSize: 0x2C }
  - { offsetInCU: 0x2942A, offset: 0x2942A, size: 0x8, addend: 0x0, symName: __ZNSt3__112__hash_tableINS_17__hash_value_typeINS_12basic_stringIcNS_11char_traitsIcEENS_9allocatorIcEEEEP9InstanceFEENS_22__unordered_map_hasherIS7_SA_NS_4hashIS7_EENS_8equal_toIS7_EELb1EEENS_21__unordered_map_equalIS7_SA_SF_SD_Lb1EEENS5_ISA_EEED1Ev, symObjAddr: 0x1034C, symBinAddr: 0x100011CA4, symSize: 0x2C }
  - { offsetInCU: 0x29456, offset: 0x29456, size: 0x8, addend: 0x0, symName: __ZNSt3__112__hash_tableINS_17__hash_value_typeINS_12basic_stringIcNS_11char_traitsIcEENS_9allocatorIcEEEEP9InstanceFEENS_22__unordered_map_hasherIS7_SA_NS_4hashIS7_EENS_8equal_toIS7_EELb1EEENS_21__unordered_map_equalIS7_SA_SF_SD_Lb1EEENS5_ISA_EEED2Ev, symObjAddr: 0x10378, symBinAddr: 0x100011CD0, symSize: 0x48 }
  - { offsetInCU: 0x29482, offset: 0x29482, size: 0x8, addend: 0x0, symName: __ZNSt3__112__hash_tableINS_17__hash_value_typeINS_12basic_stringIcNS_11char_traitsIcEENS_9allocatorIcEEEEP9InstanceFEENS_22__unordered_map_hasherIS7_SA_NS_4hashIS7_EENS_8equal_toIS7_EELb1EEENS_21__unordered_map_equalIS7_SA_SF_SD_Lb1EEENS5_ISA_EEE17__deallocate_nodeEPNS_16__hash_node_baseIPNS_11__hash_nodeISA_PvEEEE, symObjAddr: 0x103C0, symBinAddr: 0x100011D18, symSize: 0xBC }
  - { offsetInCU: 0x294EC, offset: 0x294EC, size: 0x8, addend: 0x0, symName: __ZNSt3__117__compressed_pairINS_16__hash_node_baseIPNS_11__hash_nodeINS_17__hash_value_typeINS_12basic_stringIcNS_11char_traitsIcEENS_9allocatorIcEEEEP9InstanceFEEPvEEEENS7_ISE_EEE5firstB8ue170006Ev, symObjAddr: 0x1047C, symBinAddr: 0x100011DD4, symSize: 0x24 }
  - { offsetInCU: 0x29512, offset: 0x29512, size: 0x8, addend: 0x0, symName: __ZNSt3__112__hash_tableINS_17__hash_value_typeINS_12basic_stringIcNS_11char_traitsIcEENS_9allocatorIcEEEEP9InstanceFEENS_22__unordered_map_hasherIS7_SA_NS_4hashIS7_EENS_8equal_toIS7_EELb1EEENS_21__unordered_map_equalIS7_SA_SF_SD_Lb1EEENS5_ISA_EEE12__node_allocB8ue170006Ev, symObjAddr: 0x104A0, symBinAddr: 0x100011DF8, symSize: 0x28 }
  - { offsetInCU: 0x29538, offset: 0x29538, size: 0x8, addend: 0x0, symName: __ZNSt3__116__hash_node_baseIPNS_11__hash_nodeINS_17__hash_value_typeINS_12basic_stringIcNS_11char_traitsIcEENS_9allocatorIcEEEEP9InstanceFEEPvEEE8__upcastB8ue170006Ev, symObjAddr: 0x104C8, symBinAddr: 0x100011E20, symSize: 0x24 }
  - { offsetInCU: 0x2955E, offset: 0x2955E, size: 0x8, addend: 0x0, symName: __ZNSt3__116allocator_traitsINS_9allocatorINS_11__hash_nodeINS_17__hash_value_typeINS_12basic_stringIcNS_11char_traitsIcEENS1_IcEEEEP9InstanceFEEPvEEEEE7destroyB8ue170006INS_4pairIKS8_SA_EEvvEEvRSE_PT_, symObjAddr: 0x104EC, symBinAddr: 0x100011E44, symSize: 0x28 }
  - { offsetInCU: 0x29599, offset: 0x29599, size: 0x8, addend: 0x0, symName: __ZNSt3__122__hash_key_value_typesINS_17__hash_value_typeINS_12basic_stringIcNS_11char_traitsIcEENS_9allocatorIcEEEEP9InstanceFEEE9__get_ptrB8ue170006ERSA_, symObjAddr: 0x10514, symBinAddr: 0x100011E6C, symSize: 0x24 }
  - { offsetInCU: 0x295BC, offset: 0x295BC, size: 0x8, addend: 0x0, symName: __ZNSt3__116allocator_traitsINS_9allocatorINS_11__hash_nodeINS_17__hash_value_typeINS_12basic_stringIcNS_11char_traitsIcEENS1_IcEEEEP9InstanceFEEPvEEEEE10deallocateB8ue170006ERSE_PSD_m, symObjAddr: 0x10538, symBinAddr: 0x100011E90, symSize: 0x34 }
  - { offsetInCU: 0x295FE, offset: 0x295FE, size: 0x8, addend: 0x0, symName: __ZNSt3__117__compressed_pairINS_16__hash_node_baseIPNS_11__hash_nodeINS_17__hash_value_typeINS_12basic_stringIcNS_11char_traitsIcEENS_9allocatorIcEEEEP9InstanceFEEPvEEEENS7_ISE_EEE6secondB8ue170006Ev, symObjAddr: 0x1056C, symBinAddr: 0x100011EC4, symSize: 0x24 }
  - { offsetInCU: 0x29624, offset: 0x29624, size: 0x8, addend: 0x0, symName: __ZNSt3__122__compressed_pair_elemINS_9allocatorINS_11__hash_nodeINS_17__hash_value_typeINS_12basic_stringIcNS_11char_traitsIcEENS1_IcEEEEP9InstanceFEEPvEEEELi1ELb1EE5__getB8ue170006Ev, symObjAddr: 0x10590, symBinAddr: 0x100011EE8, symSize: 0x14 }
  - { offsetInCU: 0x2964A, offset: 0x2964A, size: 0x8, addend: 0x0, symName: __ZNSt3__114pointer_traitsIPNS_16__hash_node_baseIPNS_11__hash_nodeINS_17__hash_value_typeINS_12basic_stringIcNS_11char_traitsIcEENS_9allocatorIcEEEEP9InstanceFEEPvEEEEE10pointer_toB8ue170006ERSG_, symObjAddr: 0x105A4, symBinAddr: 0x100011EFC, symSize: 0x14 }
  - { offsetInCU: 0x2966D, offset: 0x2966D, size: 0x8, addend: 0x0, symName: __ZNSt3__14pairIKNS_12basic_stringIcNS_11char_traitsIcEENS_9allocatorIcEEEEP9InstanceFED1Ev, symObjAddr: 0x105B8, symBinAddr: 0x100011F10, symSize: 0x2C }
  - { offsetInCU: 0x29699, offset: 0x29699, size: 0x8, addend: 0x0, symName: __ZNSt3__14pairIKNS_12basic_stringIcNS_11char_traitsIcEENS_9allocatorIcEEEEP9InstanceFED2Ev, symObjAddr: 0x105E4, symBinAddr: 0x100011F3C, symSize: 0x2C }
  - { offsetInCU: 0x296C5, offset: 0x296C5, size: 0x8, addend: 0x0, symName: __ZNSt3__117__hash_value_typeINS_12basic_stringIcNS_11char_traitsIcEENS_9allocatorIcEEEEP9InstanceFE11__get_valueB8ue170006Ev, symObjAddr: 0x10610, symBinAddr: 0x100011F68, symSize: 0x14 }
  - { offsetInCU: 0x296EB, offset: 0x296EB, size: 0x8, addend: 0x0, symName: __ZNSt3__19allocatorINS_11__hash_nodeINS_17__hash_value_typeINS_12basic_stringIcNS_11char_traitsIcEENS0_IcEEEEP9InstanceFEEPvEEE10deallocateB8ue170006EPSC_m, symObjAddr: 0x10624, symBinAddr: 0x100011F7C, symSize: 0x74 }
  - { offsetInCU: 0x2972D, offset: 0x2972D, size: 0x8, addend: 0x0, symName: __ZNSt3__122__compressed_pair_elemINS_16__hash_node_baseIPNS_11__hash_nodeINS_17__hash_value_typeINS_12basic_stringIcNS_11char_traitsIcEENS_9allocatorIcEEEEP9InstanceFEEPvEEEELi0ELb0EE5__getB8ue170006Ev, symObjAddr: 0x10698, symBinAddr: 0x100011FF0, symSize: 0x14 }
  - { offsetInCU: 0x29753, offset: 0x29753, size: 0x8, addend: 0x0, symName: __ZNSt3__113unordered_mapINS_12basic_stringIcNS_11char_traitsIcEENS_9allocatorIcEEEEP9InstanceGNS_4hashIS6_EENS_8equal_toIS6_EENS4_INS_4pairIKS6_S8_EEEEEC2B8ue170006Ev, symObjAddr: 0x106AC, symBinAddr: 0x100012004, symSize: 0x2C }
  - { offsetInCU: 0x2977D, offset: 0x2977D, size: 0x8, addend: 0x0, symName: __ZNSt3__112__hash_tableINS_17__hash_value_typeINS_12basic_stringIcNS_11char_traitsIcEENS_9allocatorIcEEEEP9InstanceGEENS_22__unordered_map_hasherIS7_SA_NS_4hashIS7_EENS_8equal_toIS7_EELb1EEENS_21__unordered_map_equalIS7_SA_SF_SD_Lb1EEENS5_ISA_EEEC1Ev, symObjAddr: 0x106D8, symBinAddr: 0x100012030, symSize: 0x2C }
  - { offsetInCU: 0x297A9, offset: 0x297A9, size: 0x8, addend: 0x0, symName: __ZNSt3__112__hash_tableINS_17__hash_value_typeINS_12basic_stringIcNS_11char_traitsIcEENS_9allocatorIcEEEEP9InstanceGEENS_22__unordered_map_hasherIS7_SA_NS_4hashIS7_EENS_8equal_toIS7_EELb1EEENS_21__unordered_map_equalIS7_SA_SF_SD_Lb1EEENS5_ISA_EEEC2Ev, symObjAddr: 0x10704, symBinAddr: 0x10001205C, symSize: 0xA4 }
  - { offsetInCU: 0x297D5, offset: 0x297D5, size: 0x8, addend: 0x0, symName: __ZNSt3__110unique_ptrIA_PNS_16__hash_node_baseIPNS_11__hash_nodeINS_17__hash_value_typeINS_12basic_stringIcNS_11char_traitsIcEENS_9allocatorIcEEEEP9InstanceGEEPvEEEENS_25__bucket_list_deallocatorINS7_ISH_EEEEEC1B8ue170006ILb1EvEEv, symObjAddr: 0x107A8, symBinAddr: 0x100012100, symSize: 0x2C }
  - { offsetInCU: 0x2980A, offset: 0x2980A, size: 0x8, addend: 0x0, symName: __ZNSt3__117__compressed_pairINS_16__hash_node_baseIPNS_11__hash_nodeINS_17__hash_value_typeINS_12basic_stringIcNS_11char_traitsIcEENS_9allocatorIcEEEEP9InstanceGEEPvEEEENS7_ISE_EEEC1B8ue170006ILb1EvEEv, symObjAddr: 0x107D4, symBinAddr: 0x10001212C, symSize: 0x2C }
  - { offsetInCU: 0x2983F, offset: 0x2983F, size: 0x8, addend: 0x0, symName: __ZNSt3__117__compressed_pairImNS_22__unordered_map_hasherINS_12basic_stringIcNS_11char_traitsIcEENS_9allocatorIcEEEENS_17__hash_value_typeIS7_P9InstanceGEENS_4hashIS7_EENS_8equal_toIS7_EELb1EEEEC1B8ue170006IiNS_18__default_init_tagEEEOT_OT0_, symObjAddr: 0x10800, symBinAddr: 0x100012158, symSize: 0x3C }
  - { offsetInCU: 0x29897, offset: 0x29897, size: 0x8, addend: 0x0, symName: __ZNSt3__117__compressed_pairIfNS_21__unordered_map_equalINS_12basic_stringIcNS_11char_traitsIcEENS_9allocatorIcEEEENS_17__hash_value_typeIS7_P9InstanceGEENS_8equal_toIS7_EENS_4hashIS7_EELb1EEEEC1B8ue170006IfNS_18__default_init_tagEEEOT_OT0_, symObjAddr: 0x1083C, symBinAddr: 0x100012194, symSize: 0x3C }
  - { offsetInCU: 0x298EF, offset: 0x298EF, size: 0x8, addend: 0x0, symName: __ZNSt3__110unique_ptrIA_PNS_16__hash_node_baseIPNS_11__hash_nodeINS_17__hash_value_typeINS_12basic_stringIcNS_11char_traitsIcEENS_9allocatorIcEEEEP9InstanceGEEPvEEEENS_25__bucket_list_deallocatorINS7_ISH_EEEEED1B8ue170006Ev, symObjAddr: 0x10878, symBinAddr: 0x1000121D0, symSize: 0x2C }
  - { offsetInCU: 0x29919, offset: 0x29919, size: 0x8, addend: 0x0, symName: __ZNSt3__110unique_ptrIA_PNS_16__hash_node_baseIPNS_11__hash_nodeINS_17__hash_value_typeINS_12basic_stringIcNS_11char_traitsIcEENS_9allocatorIcEEEEP9InstanceGEEPvEEEENS_25__bucket_list_deallocatorINS7_ISH_EEEEEC2B8ue170006ILb1EvEEv, symObjAddr: 0x108A4, symBinAddr: 0x1000121FC, symSize: 0x50 }
  - { offsetInCU: 0x2994E, offset: 0x2994E, size: 0x8, addend: 0x0, symName: __ZNSt3__117__compressed_pairIPPNS_16__hash_node_baseIPNS_11__hash_nodeINS_17__hash_value_typeINS_12basic_stringIcNS_11char_traitsIcEENS_9allocatorIcEEEEP9InstanceGEEPvEEEENS_25__bucket_list_deallocatorINS7_ISH_EEEEEC1B8ue170006INS_16__value_init_tagESO_EEOT_OT0_, symObjAddr: 0x108F4, symBinAddr: 0x10001224C, symSize: 0x3C }
  - { offsetInCU: 0x299A6, offset: 0x299A6, size: 0x8, addend: 0x0, symName: __ZNSt3__117__compressed_pairIPPNS_16__hash_node_baseIPNS_11__hash_nodeINS_17__hash_value_typeINS_12basic_stringIcNS_11char_traitsIcEENS_9allocatorIcEEEEP9InstanceGEEPvEEEENS_25__bucket_list_deallocatorINS7_ISH_EEEEEC2B8ue170006INS_16__value_init_tagESO_EEOT_OT0_, symObjAddr: 0x10930, symBinAddr: 0x100012288, symSize: 0x40 }
  - { offsetInCU: 0x299FE, offset: 0x299FE, size: 0x8, addend: 0x0, symName: __ZNSt3__122__compressed_pair_elemIPPNS_16__hash_node_baseIPNS_11__hash_nodeINS_17__hash_value_typeINS_12basic_stringIcNS_11char_traitsIcEENS_9allocatorIcEEEEP9InstanceGEEPvEEEELi0ELb0EEC2B8ue170006ENS_16__value_init_tagE, symObjAddr: 0x10970, symBinAddr: 0x1000122C8, symSize: 0x18 }
  - { offsetInCU: 0x29A33, offset: 0x29A33, size: 0x8, addend: 0x0, symName: __ZNSt3__122__compressed_pair_elemINS_25__bucket_list_deallocatorINS_9allocatorIPNS_16__hash_node_baseIPNS_11__hash_nodeINS_17__hash_value_typeINS_12basic_stringIcNS_11char_traitsIcEENS2_IcEEEEP9InstanceGEEPvEEEEEEEELi1ELb0EEC2B8ue170006ENS_16__value_init_tagE, symObjAddr: 0x10988, symBinAddr: 0x1000122E0, symSize: 0x2C }
  - { offsetInCU: 0x29A68, offset: 0x29A68, size: 0x8, addend: 0x0, symName: __ZNSt3__125__bucket_list_deallocatorINS_9allocatorIPNS_16__hash_node_baseIPNS_11__hash_nodeINS_17__hash_value_typeINS_12basic_stringIcNS_11char_traitsIcEENS1_IcEEEEP9InstanceGEEPvEEEEEEEC1B8ue170006Ev, symObjAddr: 0x109B4, symBinAddr: 0x10001230C, symSize: 0x2C }
  - { offsetInCU: 0x29A92, offset: 0x29A92, size: 0x8, addend: 0x0, symName: __ZNSt3__125__bucket_list_deallocatorINS_9allocatorIPNS_16__hash_node_baseIPNS_11__hash_nodeINS_17__hash_value_typeINS_12basic_stringIcNS_11char_traitsIcEENS1_IcEEEEP9InstanceGEEPvEEEEEEEC2B8ue170006Ev, symObjAddr: 0x109E0, symBinAddr: 0x100012338, symSize: 0x38 }
  - { offsetInCU: 0x29ABC, offset: 0x29ABC, size: 0x8, addend: 0x0, symName: __ZNSt3__117__compressed_pairImNS_9allocatorIPNS_16__hash_node_baseIPNS_11__hash_nodeINS_17__hash_value_typeINS_12basic_stringIcNS_11char_traitsIcEENS1_IcEEEEP9InstanceGEEPvEEEEEEEC1B8ue170006IiNS_18__default_init_tagEEEOT_OT0_, symObjAddr: 0x10A18, symBinAddr: 0x100012370, symSize: 0x3C }
  - { offsetInCU: 0x29B14, offset: 0x29B14, size: 0x8, addend: 0x0, symName: __ZNSt3__117__compressed_pairImNS_9allocatorIPNS_16__hash_node_baseIPNS_11__hash_nodeINS_17__hash_value_typeINS_12basic_stringIcNS_11char_traitsIcEENS1_IcEEEEP9InstanceGEEPvEEEEEEEC2B8ue170006IiNS_18__default_init_tagEEEOT_OT0_, symObjAddr: 0x10A54, symBinAddr: 0x1000123AC, symSize: 0x40 }
  - { offsetInCU: 0x29B6C, offset: 0x29B6C, size: 0x8, addend: 0x0, symName: __ZNSt3__122__compressed_pair_elemINS_9allocatorIPNS_16__hash_node_baseIPNS_11__hash_nodeINS_17__hash_value_typeINS_12basic_stringIcNS_11char_traitsIcEENS1_IcEEEEP9InstanceGEEPvEEEEEELi1ELb1EEC2B8ue170006ENS_18__default_init_tagE, symObjAddr: 0x10A94, symBinAddr: 0x1000123EC, symSize: 0x2C }
  - { offsetInCU: 0x29BA1, offset: 0x29BA1, size: 0x8, addend: 0x0, symName: __ZNSt3__19allocatorIPNS_16__hash_node_baseIPNS_11__hash_nodeINS_17__hash_value_typeINS_12basic_stringIcNS_11char_traitsIcEENS0_IcEEEEP9InstanceGEEPvEEEEEC2B8ue170006Ev, symObjAddr: 0x10AC0, symBinAddr: 0x100012418, symSize: 0x2C }
  - { offsetInCU: 0x29BCB, offset: 0x29BCB, size: 0x8, addend: 0x0, symName: __ZNSt3__116__non_trivial_ifILb1ENS_9allocatorIPNS_16__hash_node_baseIPNS_11__hash_nodeINS_17__hash_value_typeINS_12basic_stringIcNS_11char_traitsIcEENS1_IcEEEEP9InstanceGEEPvEEEEEEEC2B8ue170006Ev, symObjAddr: 0x10AEC, symBinAddr: 0x100012444, symSize: 0x14 }
  - { offsetInCU: 0x29BF5, offset: 0x29BF5, size: 0x8, addend: 0x0, symName: __ZNSt3__117__compressed_pairINS_16__hash_node_baseIPNS_11__hash_nodeINS_17__hash_value_typeINS_12basic_stringIcNS_11char_traitsIcEENS_9allocatorIcEEEEP9InstanceGEEPvEEEENS7_ISE_EEEC2B8ue170006ILb1EvEEv, symObjAddr: 0x10B00, symBinAddr: 0x100012458, symSize: 0x34 }
  - { offsetInCU: 0x29C2A, offset: 0x29C2A, size: 0x8, addend: 0x0, symName: __ZNSt3__122__compressed_pair_elemINS_16__hash_node_baseIPNS_11__hash_nodeINS_17__hash_value_typeINS_12basic_stringIcNS_11char_traitsIcEENS_9allocatorIcEEEEP9InstanceGEEPvEEEELi0ELb0EEC2B8ue170006ENS_16__value_init_tagE, symObjAddr: 0x10B34, symBinAddr: 0x10001248C, symSize: 0x2C }
  - { offsetInCU: 0x29C5F, offset: 0x29C5F, size: 0x8, addend: 0x0, symName: __ZNSt3__122__compressed_pair_elemINS_9allocatorINS_11__hash_nodeINS_17__hash_value_typeINS_12basic_stringIcNS_11char_traitsIcEENS1_IcEEEEP9InstanceGEEPvEEEELi1ELb1EEC2B8ue170006ENS_16__value_init_tagE, symObjAddr: 0x10B60, symBinAddr: 0x1000124B8, symSize: 0x2C }
  - { offsetInCU: 0x29C94, offset: 0x29C94, size: 0x8, addend: 0x0, symName: __ZNSt3__116__hash_node_baseIPNS_11__hash_nodeINS_17__hash_value_typeINS_12basic_stringIcNS_11char_traitsIcEENS_9allocatorIcEEEEP9InstanceGEEPvEEEC1B8ue170006Ev, symObjAddr: 0x10B8C, symBinAddr: 0x1000124E4, symSize: 0x2C }
  - { offsetInCU: 0x29CBE, offset: 0x29CBE, size: 0x8, addend: 0x0, symName: __ZNSt3__116__hash_node_baseIPNS_11__hash_nodeINS_17__hash_value_typeINS_12basic_stringIcNS_11char_traitsIcEENS_9allocatorIcEEEEP9InstanceGEEPvEEEC2B8ue170006Ev, symObjAddr: 0x10BB8, symBinAddr: 0x100012510, symSize: 0x18 }
  - { offsetInCU: 0x29CE8, offset: 0x29CE8, size: 0x8, addend: 0x0, symName: __ZNSt3__19allocatorINS_11__hash_nodeINS_17__hash_value_typeINS_12basic_stringIcNS_11char_traitsIcEENS0_IcEEEEP9InstanceGEEPvEEEC2B8ue170006Ev, symObjAddr: 0x10BD0, symBinAddr: 0x100012528, symSize: 0x2C }
  - { offsetInCU: 0x29D12, offset: 0x29D12, size: 0x8, addend: 0x0, symName: __ZNSt3__116__non_trivial_ifILb1ENS_9allocatorINS_11__hash_nodeINS_17__hash_value_typeINS_12basic_stringIcNS_11char_traitsIcEENS1_IcEEEEP9InstanceGEEPvEEEEEC2B8ue170006Ev, symObjAddr: 0x10BFC, symBinAddr: 0x100012554, symSize: 0x14 }
  - { offsetInCU: 0x29D3C, offset: 0x29D3C, size: 0x8, addend: 0x0, symName: __ZNSt3__117__compressed_pairImNS_22__unordered_map_hasherINS_12basic_stringIcNS_11char_traitsIcEENS_9allocatorIcEEEENS_17__hash_value_typeIS7_P9InstanceGEENS_4hashIS7_EENS_8equal_toIS7_EELb1EEEEC2B8ue170006IiNS_18__default_init_tagEEEOT_OT0_, symObjAddr: 0x10C10, symBinAddr: 0x100012568, symSize: 0x40 }
  - { offsetInCU: 0x29D94, offset: 0x29D94, size: 0x8, addend: 0x0, symName: __ZNSt3__122__compressed_pair_elemINS_22__unordered_map_hasherINS_12basic_stringIcNS_11char_traitsIcEENS_9allocatorIcEEEENS_17__hash_value_typeIS7_P9InstanceGEENS_4hashIS7_EENS_8equal_toIS7_EELb1EEELi1ELb1EEC2B8ue170006ENS_18__default_init_tagE, symObjAddr: 0x10C50, symBinAddr: 0x1000125A8, symSize: 0x2C }
  - { offsetInCU: 0x29DC9, offset: 0x29DC9, size: 0x8, addend: 0x0, symName: __ZNSt3__122__unordered_map_hasherINS_12basic_stringIcNS_11char_traitsIcEENS_9allocatorIcEEEENS_17__hash_value_typeIS6_P9InstanceGEENS_4hashIS6_EENS_8equal_toIS6_EELb1EEC2B8ue170006Ev, symObjAddr: 0x10C7C, symBinAddr: 0x1000125D4, symSize: 0x14 }
  - { offsetInCU: 0x29DF3, offset: 0x29DF3, size: 0x8, addend: 0x0, symName: __ZNSt3__117__compressed_pairIfNS_21__unordered_map_equalINS_12basic_stringIcNS_11char_traitsIcEENS_9allocatorIcEEEENS_17__hash_value_typeIS7_P9InstanceGEENS_8equal_toIS7_EENS_4hashIS7_EELb1EEEEC2B8ue170006IfNS_18__default_init_tagEEEOT_OT0_, symObjAddr: 0x10C90, symBinAddr: 0x1000125E8, symSize: 0x40 }
  - { offsetInCU: 0x29E4B, offset: 0x29E4B, size: 0x8, addend: 0x0, symName: __ZNSt3__122__compressed_pair_elemINS_21__unordered_map_equalINS_12basic_stringIcNS_11char_traitsIcEENS_9allocatorIcEEEENS_17__hash_value_typeIS7_P9InstanceGEENS_8equal_toIS7_EENS_4hashIS7_EELb1EEELi1ELb1EEC2B8ue170006ENS_18__default_init_tagE, symObjAddr: 0x10CD0, symBinAddr: 0x100012628, symSize: 0x2C }
  - { offsetInCU: 0x29E80, offset: 0x29E80, size: 0x8, addend: 0x0, symName: __ZNSt3__121__unordered_map_equalINS_12basic_stringIcNS_11char_traitsIcEENS_9allocatorIcEEEENS_17__hash_value_typeIS6_P9InstanceGEENS_8equal_toIS6_EENS_4hashIS6_EELb1EEC2B8ue170006Ev, symObjAddr: 0x10CFC, symBinAddr: 0x100012654, symSize: 0x14 }
  - { offsetInCU: 0x29EAA, offset: 0x29EAA, size: 0x8, addend: 0x0, symName: __ZNSt3__110unique_ptrIA_PNS_16__hash_node_baseIPNS_11__hash_nodeINS_17__hash_value_typeINS_12basic_stringIcNS_11char_traitsIcEENS_9allocatorIcEEEEP9InstanceGEEPvEEEENS_25__bucket_list_deallocatorINS7_ISH_EEEEED2B8ue170006Ev, symObjAddr: 0x10D10, symBinAddr: 0x100012668, symSize: 0x30 }
  - { offsetInCU: 0x29ED4, offset: 0x29ED4, size: 0x8, addend: 0x0, symName: __ZNSt3__110unique_ptrIA_PNS_16__hash_node_baseIPNS_11__hash_nodeINS_17__hash_value_typeINS_12basic_stringIcNS_11char_traitsIcEENS_9allocatorIcEEEEP9InstanceGEEPvEEEENS_25__bucket_list_deallocatorINS7_ISH_EEEEE5resetB8ue170006EDn, symObjAddr: 0x10D40, symBinAddr: 0x100012698, symSize: 0x6C }
  - { offsetInCU: 0x29F15, offset: 0x29F15, size: 0x8, addend: 0x0, symName: __ZNSt3__117__compressed_pairIPPNS_16__hash_node_baseIPNS_11__hash_nodeINS_17__hash_value_typeINS_12basic_stringIcNS_11char_traitsIcEENS_9allocatorIcEEEEP9InstanceGEEPvEEEENS_25__bucket_list_deallocatorINS7_ISH_EEEEE5firstB8ue170006Ev, symObjAddr: 0x10DAC, symBinAddr: 0x100012704, symSize: 0x24 }
  - { offsetInCU: 0x29F3B, offset: 0x29F3B, size: 0x8, addend: 0x0, symName: __ZNSt3__117__compressed_pairIPPNS_16__hash_node_baseIPNS_11__hash_nodeINS_17__hash_value_typeINS_12basic_stringIcNS_11char_traitsIcEENS_9allocatorIcEEEEP9InstanceGEEPvEEEENS_25__bucket_list_deallocatorINS7_ISH_EEEEE6secondB8ue170006Ev, symObjAddr: 0x10DD0, symBinAddr: 0x100012728, symSize: 0x28 }
  - { offsetInCU: 0x29F61, offset: 0x29F61, size: 0x8, addend: 0x0, symName: __ZNSt3__125__bucket_list_deallocatorINS_9allocatorIPNS_16__hash_node_baseIPNS_11__hash_nodeINS_17__hash_value_typeINS_12basic_stringIcNS_11char_traitsIcEENS1_IcEEEEP9InstanceGEEPvEEEEEEEclB8ue170006EPSH_, symObjAddr: 0x10DF8, symBinAddr: 0x100012750, symSize: 0x58 }
  - { offsetInCU: 0x29F96, offset: 0x29F96, size: 0x8, addend: 0x0, symName: __ZNSt3__122__compressed_pair_elemIPPNS_16__hash_node_baseIPNS_11__hash_nodeINS_17__hash_value_typeINS_12basic_stringIcNS_11char_traitsIcEENS_9allocatorIcEEEEP9InstanceGEEPvEEEELi0ELb0EE5__getB8ue170006Ev, symObjAddr: 0x10E50, symBinAddr: 0x1000127A8, symSize: 0x14 }
  - { offsetInCU: 0x29FBC, offset: 0x29FBC, size: 0x8, addend: 0x0, symName: __ZNSt3__122__compressed_pair_elemINS_25__bucket_list_deallocatorINS_9allocatorIPNS_16__hash_node_baseIPNS_11__hash_nodeINS_17__hash_value_typeINS_12basic_stringIcNS_11char_traitsIcEENS2_IcEEEEP9InstanceGEEPvEEEEEEEELi1ELb0EE5__getB8ue170006Ev, symObjAddr: 0x10E64, symBinAddr: 0x1000127BC, symSize: 0x14 }
  - { offsetInCU: 0x29FE2, offset: 0x29FE2, size: 0x8, addend: 0x0, symName: __ZNSt3__116allocator_traitsINS_9allocatorIPNS_16__hash_node_baseIPNS_11__hash_nodeINS_17__hash_value_typeINS_12basic_stringIcNS_11char_traitsIcEENS1_IcEEEEP9InstanceGEEPvEEEEEEE10deallocateB8ue170006ERSI_PSH_m, symObjAddr: 0x10E78, symBinAddr: 0x1000127D0, symSize: 0x34 }
  - { offsetInCU: 0x2A024, offset: 0x2A024, size: 0x8, addend: 0x0, symName: __ZNSt3__125__bucket_list_deallocatorINS_9allocatorIPNS_16__hash_node_baseIPNS_11__hash_nodeINS_17__hash_value_typeINS_12basic_stringIcNS_11char_traitsIcEENS1_IcEEEEP9InstanceGEEPvEEEEEEE7__allocB8ue170006Ev, symObjAddr: 0x10EAC, symBinAddr: 0x100012804, symSize: 0x24 }
  - { offsetInCU: 0x2A04A, offset: 0x2A04A, size: 0x8, addend: 0x0, symName: __ZNSt3__125__bucket_list_deallocatorINS_9allocatorIPNS_16__hash_node_baseIPNS_11__hash_nodeINS_17__hash_value_typeINS_12basic_stringIcNS_11char_traitsIcEENS1_IcEEEEP9InstanceGEEPvEEEEEEE4sizeB8ue170006Ev, symObjAddr: 0x10ED0, symBinAddr: 0x100012828, symSize: 0x24 }
  - { offsetInCU: 0x2A070, offset: 0x2A070, size: 0x8, addend: 0x0, symName: __ZNSt3__19allocatorIPNS_16__hash_node_baseIPNS_11__hash_nodeINS_17__hash_value_typeINS_12basic_stringIcNS_11char_traitsIcEENS0_IcEEEEP9InstanceGEEPvEEEEE10deallocateB8ue170006EPSG_m, symObjAddr: 0x10EF4, symBinAddr: 0x10001284C, symSize: 0x70 }
  - { offsetInCU: 0x2A0B2, offset: 0x2A0B2, size: 0x8, addend: 0x0, symName: __ZNSt3__117__compressed_pairImNS_9allocatorIPNS_16__hash_node_baseIPNS_11__hash_nodeINS_17__hash_value_typeINS_12basic_stringIcNS_11char_traitsIcEENS1_IcEEEEP9InstanceGEEPvEEEEEEE6secondB8ue170006Ev, symObjAddr: 0x10F64, symBinAddr: 0x1000128BC, symSize: 0x24 }
  - { offsetInCU: 0x2A0D8, offset: 0x2A0D8, size: 0x8, addend: 0x0, symName: __ZNSt3__122__compressed_pair_elemINS_9allocatorIPNS_16__hash_node_baseIPNS_11__hash_nodeINS_17__hash_value_typeINS_12basic_stringIcNS_11char_traitsIcEENS1_IcEEEEP9InstanceGEEPvEEEEEELi1ELb1EE5__getB8ue170006Ev, symObjAddr: 0x10F88, symBinAddr: 0x1000128E0, symSize: 0x14 }
  - { offsetInCU: 0x2A0FE, offset: 0x2A0FE, size: 0x8, addend: 0x0, symName: __ZNSt3__117__compressed_pairImNS_9allocatorIPNS_16__hash_node_baseIPNS_11__hash_nodeINS_17__hash_value_typeINS_12basic_stringIcNS_11char_traitsIcEENS1_IcEEEEP9InstanceGEEPvEEEEEEE5firstB8ue170006Ev, symObjAddr: 0x10F9C, symBinAddr: 0x1000128F4, symSize: 0x24 }
  - { offsetInCU: 0x2A124, offset: 0x2A124, size: 0x8, addend: 0x0, symName: __ZNSt3__113unordered_mapINS_12basic_stringIcNS_11char_traitsIcEENS_9allocatorIcEEEEP9InstanceGNS_4hashIS6_EENS_8equal_toIS6_EENS4_INS_4pairIKS6_S8_EEEEED2B8ue170006Ev, symObjAddr: 0x10FC0, symBinAddr: 0x100012918, symSize: 0x2C }
  - { offsetInCU: 0x2A14E, offset: 0x2A14E, size: 0x8, addend: 0x0, symName: __ZNSt3__112__hash_tableINS_17__hash_value_typeINS_12basic_stringIcNS_11char_traitsIcEENS_9allocatorIcEEEEP9InstanceGEENS_22__unordered_map_hasherIS7_SA_NS_4hashIS7_EENS_8equal_toIS7_EELb1EEENS_21__unordered_map_equalIS7_SA_SF_SD_Lb1EEENS5_ISA_EEED1Ev, symObjAddr: 0x10FEC, symBinAddr: 0x100012944, symSize: 0x2C }
  - { offsetInCU: 0x2A17A, offset: 0x2A17A, size: 0x8, addend: 0x0, symName: __ZNSt3__112__hash_tableINS_17__hash_value_typeINS_12basic_stringIcNS_11char_traitsIcEENS_9allocatorIcEEEEP9InstanceGEENS_22__unordered_map_hasherIS7_SA_NS_4hashIS7_EENS_8equal_toIS7_EELb1EEENS_21__unordered_map_equalIS7_SA_SF_SD_Lb1EEENS5_ISA_EEED2Ev, symObjAddr: 0x11018, symBinAddr: 0x100012970, symSize: 0x48 }
  - { offsetInCU: 0x2A1A6, offset: 0x2A1A6, size: 0x8, addend: 0x0, symName: __ZNSt3__112__hash_tableINS_17__hash_value_typeINS_12basic_stringIcNS_11char_traitsIcEENS_9allocatorIcEEEEP9InstanceGEENS_22__unordered_map_hasherIS7_SA_NS_4hashIS7_EENS_8equal_toIS7_EELb1EEENS_21__unordered_map_equalIS7_SA_SF_SD_Lb1EEENS5_ISA_EEE17__deallocate_nodeEPNS_16__hash_node_baseIPNS_11__hash_nodeISA_PvEEEE, symObjAddr: 0x11060, symBinAddr: 0x1000129B8, symSize: 0xBC }
  - { offsetInCU: 0x2A210, offset: 0x2A210, size: 0x8, addend: 0x0, symName: __ZNSt3__117__compressed_pairINS_16__hash_node_baseIPNS_11__hash_nodeINS_17__hash_value_typeINS_12basic_stringIcNS_11char_traitsIcEENS_9allocatorIcEEEEP9InstanceGEEPvEEEENS7_ISE_EEE5firstB8ue170006Ev, symObjAddr: 0x1111C, symBinAddr: 0x100012A74, symSize: 0x24 }
  - { offsetInCU: 0x2A236, offset: 0x2A236, size: 0x8, addend: 0x0, symName: __ZNSt3__112__hash_tableINS_17__hash_value_typeINS_12basic_stringIcNS_11char_traitsIcEENS_9allocatorIcEEEEP9InstanceGEENS_22__unordered_map_hasherIS7_SA_NS_4hashIS7_EENS_8equal_toIS7_EELb1EEENS_21__unordered_map_equalIS7_SA_SF_SD_Lb1EEENS5_ISA_EEE12__node_allocB8ue170006Ev, symObjAddr: 0x11140, symBinAddr: 0x100012A98, symSize: 0x28 }
  - { offsetInCU: 0x2A25C, offset: 0x2A25C, size: 0x8, addend: 0x0, symName: __ZNSt3__116__hash_node_baseIPNS_11__hash_nodeINS_17__hash_value_typeINS_12basic_stringIcNS_11char_traitsIcEENS_9allocatorIcEEEEP9InstanceGEEPvEEE8__upcastB8ue170006Ev, symObjAddr: 0x11168, symBinAddr: 0x100012AC0, symSize: 0x24 }
  - { offsetInCU: 0x2A282, offset: 0x2A282, size: 0x8, addend: 0x0, symName: __ZNSt3__116allocator_traitsINS_9allocatorINS_11__hash_nodeINS_17__hash_value_typeINS_12basic_stringIcNS_11char_traitsIcEENS1_IcEEEEP9InstanceGEEPvEEEEE7destroyB8ue170006INS_4pairIKS8_SA_EEvvEEvRSE_PT_, symObjAddr: 0x1118C, symBinAddr: 0x100012AE4, symSize: 0x28 }
  - { offsetInCU: 0x2A2BD, offset: 0x2A2BD, size: 0x8, addend: 0x0, symName: __ZNSt3__122__hash_key_value_typesINS_17__hash_value_typeINS_12basic_stringIcNS_11char_traitsIcEENS_9allocatorIcEEEEP9InstanceGEEE9__get_ptrB8ue170006ERSA_, symObjAddr: 0x111B4, symBinAddr: 0x100012B0C, symSize: 0x24 }
  - { offsetInCU: 0x2A2E0, offset: 0x2A2E0, size: 0x8, addend: 0x0, symName: __ZNSt3__116allocator_traitsINS_9allocatorINS_11__hash_nodeINS_17__hash_value_typeINS_12basic_stringIcNS_11char_traitsIcEENS1_IcEEEEP9InstanceGEEPvEEEEE10deallocateB8ue170006ERSE_PSD_m, symObjAddr: 0x111D8, symBinAddr: 0x100012B30, symSize: 0x34 }
  - { offsetInCU: 0x2A322, offset: 0x2A322, size: 0x8, addend: 0x0, symName: __ZNSt3__117__compressed_pairINS_16__hash_node_baseIPNS_11__hash_nodeINS_17__hash_value_typeINS_12basic_stringIcNS_11char_traitsIcEENS_9allocatorIcEEEEP9InstanceGEEPvEEEENS7_ISE_EEE6secondB8ue170006Ev, symObjAddr: 0x1120C, symBinAddr: 0x100012B64, symSize: 0x24 }
  - { offsetInCU: 0x2A348, offset: 0x2A348, size: 0x8, addend: 0x0, symName: __ZNSt3__122__compressed_pair_elemINS_9allocatorINS_11__hash_nodeINS_17__hash_value_typeINS_12basic_stringIcNS_11char_traitsIcEENS1_IcEEEEP9InstanceGEEPvEEEELi1ELb1EE5__getB8ue170006Ev, symObjAddr: 0x11230, symBinAddr: 0x100012B88, symSize: 0x14 }
  - { offsetInCU: 0x2A36E, offset: 0x2A36E, size: 0x8, addend: 0x0, symName: __ZNSt3__114pointer_traitsIPNS_16__hash_node_baseIPNS_11__hash_nodeINS_17__hash_value_typeINS_12basic_stringIcNS_11char_traitsIcEENS_9allocatorIcEEEEP9InstanceGEEPvEEEEE10pointer_toB8ue170006ERSG_, symObjAddr: 0x11244, symBinAddr: 0x100012B9C, symSize: 0x14 }
  - { offsetInCU: 0x2A391, offset: 0x2A391, size: 0x8, addend: 0x0, symName: __ZNSt3__14pairIKNS_12basic_stringIcNS_11char_traitsIcEENS_9allocatorIcEEEEP9InstanceGED1Ev, symObjAddr: 0x11258, symBinAddr: 0x100012BB0, symSize: 0x2C }
  - { offsetInCU: 0x2A3BD, offset: 0x2A3BD, size: 0x8, addend: 0x0, symName: __ZNSt3__14pairIKNS_12basic_stringIcNS_11char_traitsIcEENS_9allocatorIcEEEEP9InstanceGED2Ev, symObjAddr: 0x11284, symBinAddr: 0x100012BDC, symSize: 0x2C }
  - { offsetInCU: 0x2A3E9, offset: 0x2A3E9, size: 0x8, addend: 0x0, symName: __ZNSt3__117__hash_value_typeINS_12basic_stringIcNS_11char_traitsIcEENS_9allocatorIcEEEEP9InstanceGE11__get_valueB8ue170006Ev, symObjAddr: 0x112B0, symBinAddr: 0x100012C08, symSize: 0x14 }
  - { offsetInCU: 0x2A40F, offset: 0x2A40F, size: 0x8, addend: 0x0, symName: __ZNSt3__19allocatorINS_11__hash_nodeINS_17__hash_value_typeINS_12basic_stringIcNS_11char_traitsIcEENS0_IcEEEEP9InstanceGEEPvEEE10deallocateB8ue170006EPSC_m, symObjAddr: 0x112C4, symBinAddr: 0x100012C1C, symSize: 0x74 }
  - { offsetInCU: 0x2A451, offset: 0x2A451, size: 0x8, addend: 0x0, symName: __ZNSt3__122__compressed_pair_elemINS_16__hash_node_baseIPNS_11__hash_nodeINS_17__hash_value_typeINS_12basic_stringIcNS_11char_traitsIcEENS_9allocatorIcEEEEP9InstanceGEEPvEEEELi0ELb0EE5__getB8ue170006Ev, symObjAddr: 0x11338, symBinAddr: 0x100012C90, symSize: 0x14 }
  - { offsetInCU: 0x2A477, offset: 0x2A477, size: 0x8, addend: 0x0, symName: __ZNSt3__113unordered_mapINS_12basic_stringIcNS_11char_traitsIcEENS_9allocatorIcEEEEP3NetNS_4hashIS6_EENS_8equal_toIS6_EENS4_INS_4pairIKS6_S8_EEEEEC2B8ue170006Ev, symObjAddr: 0x1134C, symBinAddr: 0x100012CA4, symSize: 0x2C }
  - { offsetInCU: 0x2A4A1, offset: 0x2A4A1, size: 0x8, addend: 0x0, symName: __ZNSt3__112__hash_tableINS_17__hash_value_typeINS_12basic_stringIcNS_11char_traitsIcEENS_9allocatorIcEEEEP3NetEENS_22__unordered_map_hasherIS7_SA_NS_4hashIS7_EENS_8equal_toIS7_EELb1EEENS_21__unordered_map_equalIS7_SA_SF_SD_Lb1EEENS5_ISA_EEEC1Ev, symObjAddr: 0x11378, symBinAddr: 0x100012CD0, symSize: 0x2C }
  - { offsetInCU: 0x2A4CD, offset: 0x2A4CD, size: 0x8, addend: 0x0, symName: __ZNSt3__112__hash_tableINS_17__hash_value_typeINS_12basic_stringIcNS_11char_traitsIcEENS_9allocatorIcEEEEP3NetEENS_22__unordered_map_hasherIS7_SA_NS_4hashIS7_EENS_8equal_toIS7_EELb1EEENS_21__unordered_map_equalIS7_SA_SF_SD_Lb1EEENS5_ISA_EEEC2Ev, symObjAddr: 0x113A4, symBinAddr: 0x100012CFC, symSize: 0xA4 }
  - { offsetInCU: 0x2A4F9, offset: 0x2A4F9, size: 0x8, addend: 0x0, symName: __ZNSt3__110unique_ptrIA_PNS_16__hash_node_baseIPNS_11__hash_nodeINS_17__hash_value_typeINS_12basic_stringIcNS_11char_traitsIcEENS_9allocatorIcEEEEP3NetEEPvEEEENS_25__bucket_list_deallocatorINS7_ISH_EEEEEC1B8ue170006ILb1EvEEv, symObjAddr: 0x11448, symBinAddr: 0x100012DA0, symSize: 0x2C }
  - { offsetInCU: 0x2A52E, offset: 0x2A52E, size: 0x8, addend: 0x0, symName: __ZNSt3__117__compressed_pairINS_16__hash_node_baseIPNS_11__hash_nodeINS_17__hash_value_typeINS_12basic_stringIcNS_11char_traitsIcEENS_9allocatorIcEEEEP3NetEEPvEEEENS7_ISE_EEEC1B8ue170006ILb1EvEEv, symObjAddr: 0x11474, symBinAddr: 0x100012DCC, symSize: 0x2C }
  - { offsetInCU: 0x2A563, offset: 0x2A563, size: 0x8, addend: 0x0, symName: __ZNSt3__117__compressed_pairImNS_22__unordered_map_hasherINS_12basic_stringIcNS_11char_traitsIcEENS_9allocatorIcEEEENS_17__hash_value_typeIS7_P3NetEENS_4hashIS7_EENS_8equal_toIS7_EELb1EEEEC1B8ue170006IiNS_18__default_init_tagEEEOT_OT0_, symObjAddr: 0x114A0, symBinAddr: 0x100012DF8, symSize: 0x3C }
  - { offsetInCU: 0x2A5BB, offset: 0x2A5BB, size: 0x8, addend: 0x0, symName: __ZNSt3__117__compressed_pairIfNS_21__unordered_map_equalINS_12basic_stringIcNS_11char_traitsIcEENS_9allocatorIcEEEENS_17__hash_value_typeIS7_P3NetEENS_8equal_toIS7_EENS_4hashIS7_EELb1EEEEC1B8ue170006IfNS_18__default_init_tagEEEOT_OT0_, symObjAddr: 0x114DC, symBinAddr: 0x100012E34, symSize: 0x3C }
  - { offsetInCU: 0x2A613, offset: 0x2A613, size: 0x8, addend: 0x0, symName: __ZNSt3__110unique_ptrIA_PNS_16__hash_node_baseIPNS_11__hash_nodeINS_17__hash_value_typeINS_12basic_stringIcNS_11char_traitsIcEENS_9allocatorIcEEEEP3NetEEPvEEEENS_25__bucket_list_deallocatorINS7_ISH_EEEEED1B8ue170006Ev, symObjAddr: 0x11518, symBinAddr: 0x100012E70, symSize: 0x2C }
  - { offsetInCU: 0x2A63D, offset: 0x2A63D, size: 0x8, addend: 0x0, symName: __ZNSt3__110unique_ptrIA_PNS_16__hash_node_baseIPNS_11__hash_nodeINS_17__hash_value_typeINS_12basic_stringIcNS_11char_traitsIcEENS_9allocatorIcEEEEP3NetEEPvEEEENS_25__bucket_list_deallocatorINS7_ISH_EEEEEC2B8ue170006ILb1EvEEv, symObjAddr: 0x11544, symBinAddr: 0x100012E9C, symSize: 0x50 }
  - { offsetInCU: 0x2A672, offset: 0x2A672, size: 0x8, addend: 0x0, symName: __ZNSt3__117__compressed_pairIPPNS_16__hash_node_baseIPNS_11__hash_nodeINS_17__hash_value_typeINS_12basic_stringIcNS_11char_traitsIcEENS_9allocatorIcEEEEP3NetEEPvEEEENS_25__bucket_list_deallocatorINS7_ISH_EEEEEC1B8ue170006INS_16__value_init_tagESO_EEOT_OT0_, symObjAddr: 0x11594, symBinAddr: 0x100012EEC, symSize: 0x3C }
  - { offsetInCU: 0x2A6CA, offset: 0x2A6CA, size: 0x8, addend: 0x0, symName: __ZNSt3__117__compressed_pairIPPNS_16__hash_node_baseIPNS_11__hash_nodeINS_17__hash_value_typeINS_12basic_stringIcNS_11char_traitsIcEENS_9allocatorIcEEEEP3NetEEPvEEEENS_25__bucket_list_deallocatorINS7_ISH_EEEEEC2B8ue170006INS_16__value_init_tagESO_EEOT_OT0_, symObjAddr: 0x115D0, symBinAddr: 0x100012F28, symSize: 0x40 }
  - { offsetInCU: 0x2A722, offset: 0x2A722, size: 0x8, addend: 0x0, symName: __ZNSt3__122__compressed_pair_elemIPPNS_16__hash_node_baseIPNS_11__hash_nodeINS_17__hash_value_typeINS_12basic_stringIcNS_11char_traitsIcEENS_9allocatorIcEEEEP3NetEEPvEEEELi0ELb0EEC2B8ue170006ENS_16__value_init_tagE, symObjAddr: 0x11610, symBinAddr: 0x100012F68, symSize: 0x18 }
  - { offsetInCU: 0x2A757, offset: 0x2A757, size: 0x8, addend: 0x0, symName: __ZNSt3__122__compressed_pair_elemINS_25__bucket_list_deallocatorINS_9allocatorIPNS_16__hash_node_baseIPNS_11__hash_nodeINS_17__hash_value_typeINS_12basic_stringIcNS_11char_traitsIcEENS2_IcEEEEP3NetEEPvEEEEEEEELi1ELb0EEC2B8ue170006ENS_16__value_init_tagE, symObjAddr: 0x11628, symBinAddr: 0x100012F80, symSize: 0x2C }
  - { offsetInCU: 0x2A78C, offset: 0x2A78C, size: 0x8, addend: 0x0, symName: __ZNSt3__125__bucket_list_deallocatorINS_9allocatorIPNS_16__hash_node_baseIPNS_11__hash_nodeINS_17__hash_value_typeINS_12basic_stringIcNS_11char_traitsIcEENS1_IcEEEEP3NetEEPvEEEEEEEC1B8ue170006Ev, symObjAddr: 0x11654, symBinAddr: 0x100012FAC, symSize: 0x2C }
  - { offsetInCU: 0x2A7B6, offset: 0x2A7B6, size: 0x8, addend: 0x0, symName: __ZNSt3__125__bucket_list_deallocatorINS_9allocatorIPNS_16__hash_node_baseIPNS_11__hash_nodeINS_17__hash_value_typeINS_12basic_stringIcNS_11char_traitsIcEENS1_IcEEEEP3NetEEPvEEEEEEEC2B8ue170006Ev, symObjAddr: 0x11680, symBinAddr: 0x100012FD8, symSize: 0x38 }
  - { offsetInCU: 0x2A7E0, offset: 0x2A7E0, size: 0x8, addend: 0x0, symName: __ZNSt3__117__compressed_pairImNS_9allocatorIPNS_16__hash_node_baseIPNS_11__hash_nodeINS_17__hash_value_typeINS_12basic_stringIcNS_11char_traitsIcEENS1_IcEEEEP3NetEEPvEEEEEEEC1B8ue170006IiNS_18__default_init_tagEEEOT_OT0_, symObjAddr: 0x116B8, symBinAddr: 0x100013010, symSize: 0x3C }
  - { offsetInCU: 0x2A838, offset: 0x2A838, size: 0x8, addend: 0x0, symName: __ZNSt3__117__compressed_pairImNS_9allocatorIPNS_16__hash_node_baseIPNS_11__hash_nodeINS_17__hash_value_typeINS_12basic_stringIcNS_11char_traitsIcEENS1_IcEEEEP3NetEEPvEEEEEEEC2B8ue170006IiNS_18__default_init_tagEEEOT_OT0_, symObjAddr: 0x116F4, symBinAddr: 0x10001304C, symSize: 0x40 }
  - { offsetInCU: 0x2A890, offset: 0x2A890, size: 0x8, addend: 0x0, symName: __ZNSt3__122__compressed_pair_elemINS_9allocatorIPNS_16__hash_node_baseIPNS_11__hash_nodeINS_17__hash_value_typeINS_12basic_stringIcNS_11char_traitsIcEENS1_IcEEEEP3NetEEPvEEEEEELi1ELb1EEC2B8ue170006ENS_18__default_init_tagE, symObjAddr: 0x11734, symBinAddr: 0x10001308C, symSize: 0x2C }
  - { offsetInCU: 0x2A8C5, offset: 0x2A8C5, size: 0x8, addend: 0x0, symName: __ZNSt3__19allocatorIPNS_16__hash_node_baseIPNS_11__hash_nodeINS_17__hash_value_typeINS_12basic_stringIcNS_11char_traitsIcEENS0_IcEEEEP3NetEEPvEEEEEC2B8ue170006Ev, symObjAddr: 0x11760, symBinAddr: 0x1000130B8, symSize: 0x2C }
  - { offsetInCU: 0x2A8EF, offset: 0x2A8EF, size: 0x8, addend: 0x0, symName: __ZNSt3__116__non_trivial_ifILb1ENS_9allocatorIPNS_16__hash_node_baseIPNS_11__hash_nodeINS_17__hash_value_typeINS_12basic_stringIcNS_11char_traitsIcEENS1_IcEEEEP3NetEEPvEEEEEEEC2B8ue170006Ev, symObjAddr: 0x1178C, symBinAddr: 0x1000130E4, symSize: 0x14 }
  - { offsetInCU: 0x2A919, offset: 0x2A919, size: 0x8, addend: 0x0, symName: __ZNSt3__117__compressed_pairINS_16__hash_node_baseIPNS_11__hash_nodeINS_17__hash_value_typeINS_12basic_stringIcNS_11char_traitsIcEENS_9allocatorIcEEEEP3NetEEPvEEEENS7_ISE_EEEC2B8ue170006ILb1EvEEv, symObjAddr: 0x117A0, symBinAddr: 0x1000130F8, symSize: 0x34 }
  - { offsetInCU: 0x2A94E, offset: 0x2A94E, size: 0x8, addend: 0x0, symName: __ZNSt3__122__compressed_pair_elemINS_16__hash_node_baseIPNS_11__hash_nodeINS_17__hash_value_typeINS_12basic_stringIcNS_11char_traitsIcEENS_9allocatorIcEEEEP3NetEEPvEEEELi0ELb0EEC2B8ue170006ENS_16__value_init_tagE, symObjAddr: 0x117D4, symBinAddr: 0x10001312C, symSize: 0x2C }
  - { offsetInCU: 0x2A983, offset: 0x2A983, size: 0x8, addend: 0x0, symName: __ZNSt3__122__compressed_pair_elemINS_9allocatorINS_11__hash_nodeINS_17__hash_value_typeINS_12basic_stringIcNS_11char_traitsIcEENS1_IcEEEEP3NetEEPvEEEELi1ELb1EEC2B8ue170006ENS_16__value_init_tagE, symObjAddr: 0x11800, symBinAddr: 0x100013158, symSize: 0x2C }
  - { offsetInCU: 0x2A9B8, offset: 0x2A9B8, size: 0x8, addend: 0x0, symName: __ZNSt3__116__hash_node_baseIPNS_11__hash_nodeINS_17__hash_value_typeINS_12basic_stringIcNS_11char_traitsIcEENS_9allocatorIcEEEEP3NetEEPvEEEC1B8ue170006Ev, symObjAddr: 0x1182C, symBinAddr: 0x100013184, symSize: 0x2C }
  - { offsetInCU: 0x2A9E2, offset: 0x2A9E2, size: 0x8, addend: 0x0, symName: __ZNSt3__116__hash_node_baseIPNS_11__hash_nodeINS_17__hash_value_typeINS_12basic_stringIcNS_11char_traitsIcEENS_9allocatorIcEEEEP3NetEEPvEEEC2B8ue170006Ev, symObjAddr: 0x11858, symBinAddr: 0x1000131B0, symSize: 0x18 }
  - { offsetInCU: 0x2AA0C, offset: 0x2AA0C, size: 0x8, addend: 0x0, symName: __ZNSt3__19allocatorINS_11__hash_nodeINS_17__hash_value_typeINS_12basic_stringIcNS_11char_traitsIcEENS0_IcEEEEP3NetEEPvEEEC2B8ue170006Ev, symObjAddr: 0x11870, symBinAddr: 0x1000131C8, symSize: 0x2C }
  - { offsetInCU: 0x2AA36, offset: 0x2AA36, size: 0x8, addend: 0x0, symName: __ZNSt3__116__non_trivial_ifILb1ENS_9allocatorINS_11__hash_nodeINS_17__hash_value_typeINS_12basic_stringIcNS_11char_traitsIcEENS1_IcEEEEP3NetEEPvEEEEEC2B8ue170006Ev, symObjAddr: 0x1189C, symBinAddr: 0x1000131F4, symSize: 0x14 }
  - { offsetInCU: 0x2AA60, offset: 0x2AA60, size: 0x8, addend: 0x0, symName: __ZNSt3__117__compressed_pairImNS_22__unordered_map_hasherINS_12basic_stringIcNS_11char_traitsIcEENS_9allocatorIcEEEENS_17__hash_value_typeIS7_P3NetEENS_4hashIS7_EENS_8equal_toIS7_EELb1EEEEC2B8ue170006IiNS_18__default_init_tagEEEOT_OT0_, symObjAddr: 0x118B0, symBinAddr: 0x100013208, symSize: 0x40 }
  - { offsetInCU: 0x2AAB8, offset: 0x2AAB8, size: 0x8, addend: 0x0, symName: __ZNSt3__122__compressed_pair_elemINS_22__unordered_map_hasherINS_12basic_stringIcNS_11char_traitsIcEENS_9allocatorIcEEEENS_17__hash_value_typeIS7_P3NetEENS_4hashIS7_EENS_8equal_toIS7_EELb1EEELi1ELb1EEC2B8ue170006ENS_18__default_init_tagE, symObjAddr: 0x118F0, symBinAddr: 0x100013248, symSize: 0x2C }
  - { offsetInCU: 0x2AAED, offset: 0x2AAED, size: 0x8, addend: 0x0, symName: __ZNSt3__122__unordered_map_hasherINS_12basic_stringIcNS_11char_traitsIcEENS_9allocatorIcEEEENS_17__hash_value_typeIS6_P3NetEENS_4hashIS6_EENS_8equal_toIS6_EELb1EEC2B8ue170006Ev, symObjAddr: 0x1191C, symBinAddr: 0x100013274, symSize: 0x14 }
  - { offsetInCU: 0x2AB17, offset: 0x2AB17, size: 0x8, addend: 0x0, symName: __ZNSt3__117__compressed_pairIfNS_21__unordered_map_equalINS_12basic_stringIcNS_11char_traitsIcEENS_9allocatorIcEEEENS_17__hash_value_typeIS7_P3NetEENS_8equal_toIS7_EENS_4hashIS7_EELb1EEEEC2B8ue170006IfNS_18__default_init_tagEEEOT_OT0_, symObjAddr: 0x11930, symBinAddr: 0x100013288, symSize: 0x40 }
  - { offsetInCU: 0x2AB6F, offset: 0x2AB6F, size: 0x8, addend: 0x0, symName: __ZNSt3__122__compressed_pair_elemINS_21__unordered_map_equalINS_12basic_stringIcNS_11char_traitsIcEENS_9allocatorIcEEEENS_17__hash_value_typeIS7_P3NetEENS_8equal_toIS7_EENS_4hashIS7_EELb1EEELi1ELb1EEC2B8ue170006ENS_18__default_init_tagE, symObjAddr: 0x11970, symBinAddr: 0x1000132C8, symSize: 0x2C }
  - { offsetInCU: 0x2ABA4, offset: 0x2ABA4, size: 0x8, addend: 0x0, symName: __ZNSt3__121__unordered_map_equalINS_12basic_stringIcNS_11char_traitsIcEENS_9allocatorIcEEEENS_17__hash_value_typeIS6_P3NetEENS_8equal_toIS6_EENS_4hashIS6_EELb1EEC2B8ue170006Ev, symObjAddr: 0x1199C, symBinAddr: 0x1000132F4, symSize: 0x14 }
  - { offsetInCU: 0x2ABCE, offset: 0x2ABCE, size: 0x8, addend: 0x0, symName: __ZNSt3__110unique_ptrIA_PNS_16__hash_node_baseIPNS_11__hash_nodeINS_17__hash_value_typeINS_12basic_stringIcNS_11char_traitsIcEENS_9allocatorIcEEEEP3NetEEPvEEEENS_25__bucket_list_deallocatorINS7_ISH_EEEEED2B8ue170006Ev, symObjAddr: 0x119B0, symBinAddr: 0x100013308, symSize: 0x30 }
  - { offsetInCU: 0x2ABF8, offset: 0x2ABF8, size: 0x8, addend: 0x0, symName: __ZNSt3__110unique_ptrIA_PNS_16__hash_node_baseIPNS_11__hash_nodeINS_17__hash_value_typeINS_12basic_stringIcNS_11char_traitsIcEENS_9allocatorIcEEEEP3NetEEPvEEEENS_25__bucket_list_deallocatorINS7_ISH_EEEEE5resetB8ue170006EDn, symObjAddr: 0x119E0, symBinAddr: 0x100013338, symSize: 0x6C }
  - { offsetInCU: 0x2AC39, offset: 0x2AC39, size: 0x8, addend: 0x0, symName: __ZNSt3__117__compressed_pairIPPNS_16__hash_node_baseIPNS_11__hash_nodeINS_17__hash_value_typeINS_12basic_stringIcNS_11char_traitsIcEENS_9allocatorIcEEEEP3NetEEPvEEEENS_25__bucket_list_deallocatorINS7_ISH_EEEEE5firstB8ue170006Ev, symObjAddr: 0x11A4C, symBinAddr: 0x1000133A4, symSize: 0x24 }
  - { offsetInCU: 0x2AC5F, offset: 0x2AC5F, size: 0x8, addend: 0x0, symName: __ZNSt3__117__compressed_pairIPPNS_16__hash_node_baseIPNS_11__hash_nodeINS_17__hash_value_typeINS_12basic_stringIcNS_11char_traitsIcEENS_9allocatorIcEEEEP3NetEEPvEEEENS_25__bucket_list_deallocatorINS7_ISH_EEEEE6secondB8ue170006Ev, symObjAddr: 0x11A70, symBinAddr: 0x1000133C8, symSize: 0x28 }
  - { offsetInCU: 0x2AC85, offset: 0x2AC85, size: 0x8, addend: 0x0, symName: __ZNSt3__125__bucket_list_deallocatorINS_9allocatorIPNS_16__hash_node_baseIPNS_11__hash_nodeINS_17__hash_value_typeINS_12basic_stringIcNS_11char_traitsIcEENS1_IcEEEEP3NetEEPvEEEEEEEclB8ue170006EPSH_, symObjAddr: 0x11A98, symBinAddr: 0x1000133F0, symSize: 0x58 }
  - { offsetInCU: 0x2ACBA, offset: 0x2ACBA, size: 0x8, addend: 0x0, symName: __ZNSt3__122__compressed_pair_elemIPPNS_16__hash_node_baseIPNS_11__hash_nodeINS_17__hash_value_typeINS_12basic_stringIcNS_11char_traitsIcEENS_9allocatorIcEEEEP3NetEEPvEEEELi0ELb0EE5__getB8ue170006Ev, symObjAddr: 0x11AF0, symBinAddr: 0x100013448, symSize: 0x14 }
  - { offsetInCU: 0x2ACE0, offset: 0x2ACE0, size: 0x8, addend: 0x0, symName: __ZNSt3__122__compressed_pair_elemINS_25__bucket_list_deallocatorINS_9allocatorIPNS_16__hash_node_baseIPNS_11__hash_nodeINS_17__hash_value_typeINS_12basic_stringIcNS_11char_traitsIcEENS2_IcEEEEP3NetEEPvEEEEEEEELi1ELb0EE5__getB8ue170006Ev, symObjAddr: 0x11B04, symBinAddr: 0x10001345C, symSize: 0x14 }
  - { offsetInCU: 0x2AD06, offset: 0x2AD06, size: 0x8, addend: 0x0, symName: __ZNSt3__116allocator_traitsINS_9allocatorIPNS_16__hash_node_baseIPNS_11__hash_nodeINS_17__hash_value_typeINS_12basic_stringIcNS_11char_traitsIcEENS1_IcEEEEP3NetEEPvEEEEEEE10deallocateB8ue170006ERSI_PSH_m, symObjAddr: 0x11B18, symBinAddr: 0x100013470, symSize: 0x34 }
  - { offsetInCU: 0x2AD48, offset: 0x2AD48, size: 0x8, addend: 0x0, symName: __ZNSt3__125__bucket_list_deallocatorINS_9allocatorIPNS_16__hash_node_baseIPNS_11__hash_nodeINS_17__hash_value_typeINS_12basic_stringIcNS_11char_traitsIcEENS1_IcEEEEP3NetEEPvEEEEEEE7__allocB8ue170006Ev, symObjAddr: 0x11B4C, symBinAddr: 0x1000134A4, symSize: 0x24 }
  - { offsetInCU: 0x2AD6E, offset: 0x2AD6E, size: 0x8, addend: 0x0, symName: __ZNSt3__125__bucket_list_deallocatorINS_9allocatorIPNS_16__hash_node_baseIPNS_11__hash_nodeINS_17__hash_value_typeINS_12basic_stringIcNS_11char_traitsIcEENS1_IcEEEEP3NetEEPvEEEEEEE4sizeB8ue170006Ev, symObjAddr: 0x11B70, symBinAddr: 0x1000134C8, symSize: 0x24 }
  - { offsetInCU: 0x2AD94, offset: 0x2AD94, size: 0x8, addend: 0x0, symName: __ZNSt3__19allocatorIPNS_16__hash_node_baseIPNS_11__hash_nodeINS_17__hash_value_typeINS_12basic_stringIcNS_11char_traitsIcEENS0_IcEEEEP3NetEEPvEEEEE10deallocateB8ue170006EPSG_m, symObjAddr: 0x11B94, symBinAddr: 0x1000134EC, symSize: 0x70 }
  - { offsetInCU: 0x2ADD6, offset: 0x2ADD6, size: 0x8, addend: 0x0, symName: __ZNSt3__117__compressed_pairImNS_9allocatorIPNS_16__hash_node_baseIPNS_11__hash_nodeINS_17__hash_value_typeINS_12basic_stringIcNS_11char_traitsIcEENS1_IcEEEEP3NetEEPvEEEEEEE6secondB8ue170006Ev, symObjAddr: 0x11C04, symBinAddr: 0x10001355C, symSize: 0x24 }
  - { offsetInCU: 0x2ADFC, offset: 0x2ADFC, size: 0x8, addend: 0x0, symName: __ZNSt3__122__compressed_pair_elemINS_9allocatorIPNS_16__hash_node_baseIPNS_11__hash_nodeINS_17__hash_value_typeINS_12basic_stringIcNS_11char_traitsIcEENS1_IcEEEEP3NetEEPvEEEEEELi1ELb1EE5__getB8ue170006Ev, symObjAddr: 0x11C28, symBinAddr: 0x100013580, symSize: 0x14 }
  - { offsetInCU: 0x2AE22, offset: 0x2AE22, size: 0x8, addend: 0x0, symName: __ZNSt3__117__compressed_pairImNS_9allocatorIPNS_16__hash_node_baseIPNS_11__hash_nodeINS_17__hash_value_typeINS_12basic_stringIcNS_11char_traitsIcEENS1_IcEEEEP3NetEEPvEEEEEEE5firstB8ue170006Ev, symObjAddr: 0x11C3C, symBinAddr: 0x100013594, symSize: 0x24 }
  - { offsetInCU: 0x2AE48, offset: 0x2AE48, size: 0x8, addend: 0x0, symName: __ZNSt3__113unordered_mapINS_12basic_stringIcNS_11char_traitsIcEENS_9allocatorIcEEEEP3NetNS_4hashIS6_EENS_8equal_toIS6_EENS4_INS_4pairIKS6_S8_EEEEED2B8ue170006Ev, symObjAddr: 0x11C60, symBinAddr: 0x1000135B8, symSize: 0x2C }
  - { offsetInCU: 0x2AE72, offset: 0x2AE72, size: 0x8, addend: 0x0, symName: __ZNSt3__112__hash_tableINS_17__hash_value_typeINS_12basic_stringIcNS_11char_traitsIcEENS_9allocatorIcEEEEP3NetEENS_22__unordered_map_hasherIS7_SA_NS_4hashIS7_EENS_8equal_toIS7_EELb1EEENS_21__unordered_map_equalIS7_SA_SF_SD_Lb1EEENS5_ISA_EEED1Ev, symObjAddr: 0x11C8C, symBinAddr: 0x1000135E4, symSize: 0x2C }
  - { offsetInCU: 0x2AE9E, offset: 0x2AE9E, size: 0x8, addend: 0x0, symName: __ZNSt3__112__hash_tableINS_17__hash_value_typeINS_12basic_stringIcNS_11char_traitsIcEENS_9allocatorIcEEEEP3NetEENS_22__unordered_map_hasherIS7_SA_NS_4hashIS7_EENS_8equal_toIS7_EELb1EEENS_21__unordered_map_equalIS7_SA_SF_SD_Lb1EEENS5_ISA_EEED2Ev, symObjAddr: 0x11CB8, symBinAddr: 0x100013610, symSize: 0x48 }
  - { offsetInCU: 0x2AECA, offset: 0x2AECA, size: 0x8, addend: 0x0, symName: __ZNSt3__112__hash_tableINS_17__hash_value_typeINS_12basic_stringIcNS_11char_traitsIcEENS_9allocatorIcEEEEP3NetEENS_22__unordered_map_hasherIS7_SA_NS_4hashIS7_EENS_8equal_toIS7_EELb1EEENS_21__unordered_map_equalIS7_SA_SF_SD_Lb1EEENS5_ISA_EEE17__deallocate_nodeEPNS_16__hash_node_baseIPNS_11__hash_nodeISA_PvEEEE, symObjAddr: 0x11D00, symBinAddr: 0x100013658, symSize: 0xBC }
  - { offsetInCU: 0x2AF34, offset: 0x2AF34, size: 0x8, addend: 0x0, symName: __ZNSt3__117__compressed_pairINS_16__hash_node_baseIPNS_11__hash_nodeINS_17__hash_value_typeINS_12basic_stringIcNS_11char_traitsIcEENS_9allocatorIcEEEEP3NetEEPvEEEENS7_ISE_EEE5firstB8ue170006Ev, symObjAddr: 0x11DBC, symBinAddr: 0x100013714, symSize: 0x24 }
  - { offsetInCU: 0x2AF5A, offset: 0x2AF5A, size: 0x8, addend: 0x0, symName: __ZNSt3__112__hash_tableINS_17__hash_value_typeINS_12basic_stringIcNS_11char_traitsIcEENS_9allocatorIcEEEEP3NetEENS_22__unordered_map_hasherIS7_SA_NS_4hashIS7_EENS_8equal_toIS7_EELb1EEENS_21__unordered_map_equalIS7_SA_SF_SD_Lb1EEENS5_ISA_EEE12__node_allocB8ue170006Ev, symObjAddr: 0x11DE0, symBinAddr: 0x100013738, symSize: 0x28 }
  - { offsetInCU: 0x2AF80, offset: 0x2AF80, size: 0x8, addend: 0x0, symName: __ZNSt3__116__hash_node_baseIPNS_11__hash_nodeINS_17__hash_value_typeINS_12basic_stringIcNS_11char_traitsIcEENS_9allocatorIcEEEEP3NetEEPvEEE8__upcastB8ue170006Ev, symObjAddr: 0x11E08, symBinAddr: 0x100013760, symSize: 0x24 }
  - { offsetInCU: 0x2AFA6, offset: 0x2AFA6, size: 0x8, addend: 0x0, symName: __ZNSt3__116allocator_traitsINS_9allocatorINS_11__hash_nodeINS_17__hash_value_typeINS_12basic_stringIcNS_11char_traitsIcEENS1_IcEEEEP3NetEEPvEEEEE7destroyB8ue170006INS_4pairIKS8_SA_EEvvEEvRSE_PT_, symObjAddr: 0x11E2C, symBinAddr: 0x100013784, symSize: 0x28 }
  - { offsetInCU: 0x2AFE1, offset: 0x2AFE1, size: 0x8, addend: 0x0, symName: __ZNSt3__122__hash_key_value_typesINS_17__hash_value_typeINS_12basic_stringIcNS_11char_traitsIcEENS_9allocatorIcEEEEP3NetEEE9__get_ptrB8ue170006ERSA_, symObjAddr: 0x11E54, symBinAddr: 0x1000137AC, symSize: 0x24 }
  - { offsetInCU: 0x2B004, offset: 0x2B004, size: 0x8, addend: 0x0, symName: __ZNSt3__116allocator_traitsINS_9allocatorINS_11__hash_nodeINS_17__hash_value_typeINS_12basic_stringIcNS_11char_traitsIcEENS1_IcEEEEP3NetEEPvEEEEE10deallocateB8ue170006ERSE_PSD_m, symObjAddr: 0x11E78, symBinAddr: 0x1000137D0, symSize: 0x34 }
  - { offsetInCU: 0x2B046, offset: 0x2B046, size: 0x8, addend: 0x0, symName: __ZNSt3__117__compressed_pairINS_16__hash_node_baseIPNS_11__hash_nodeINS_17__hash_value_typeINS_12basic_stringIcNS_11char_traitsIcEENS_9allocatorIcEEEEP3NetEEPvEEEENS7_ISE_EEE6secondB8ue170006Ev, symObjAddr: 0x11EAC, symBinAddr: 0x100013804, symSize: 0x24 }
  - { offsetInCU: 0x2B06C, offset: 0x2B06C, size: 0x8, addend: 0x0, symName: __ZNSt3__122__compressed_pair_elemINS_9allocatorINS_11__hash_nodeINS_17__hash_value_typeINS_12basic_stringIcNS_11char_traitsIcEENS1_IcEEEEP3NetEEPvEEEELi1ELb1EE5__getB8ue170006Ev, symObjAddr: 0x11ED0, symBinAddr: 0x100013828, symSize: 0x14 }
  - { offsetInCU: 0x2B092, offset: 0x2B092, size: 0x8, addend: 0x0, symName: __ZNSt3__114pointer_traitsIPNS_16__hash_node_baseIPNS_11__hash_nodeINS_17__hash_value_typeINS_12basic_stringIcNS_11char_traitsIcEENS_9allocatorIcEEEEP3NetEEPvEEEEE10pointer_toB8ue170006ERSG_, symObjAddr: 0x11EE4, symBinAddr: 0x10001383C, symSize: 0x14 }
  - { offsetInCU: 0x2B0B5, offset: 0x2B0B5, size: 0x8, addend: 0x0, symName: __ZNSt3__14pairIKNS_12basic_stringIcNS_11char_traitsIcEENS_9allocatorIcEEEEP3NetED1Ev, symObjAddr: 0x11EF8, symBinAddr: 0x100013850, symSize: 0x2C }
  - { offsetInCU: 0x2B0E1, offset: 0x2B0E1, size: 0x8, addend: 0x0, symName: __ZNSt3__14pairIKNS_12basic_stringIcNS_11char_traitsIcEENS_9allocatorIcEEEEP3NetED2Ev, symObjAddr: 0x11F24, symBinAddr: 0x10001387C, symSize: 0x2C }
  - { offsetInCU: 0x2B10D, offset: 0x2B10D, size: 0x8, addend: 0x0, symName: __ZNSt3__117__hash_value_typeINS_12basic_stringIcNS_11char_traitsIcEENS_9allocatorIcEEEEP3NetE11__get_valueB8ue170006Ev, symObjAddr: 0x11F50, symBinAddr: 0x1000138A8, symSize: 0x14 }
  - { offsetInCU: 0x2B133, offset: 0x2B133, size: 0x8, addend: 0x0, symName: __ZNSt3__19allocatorINS_11__hash_nodeINS_17__hash_value_typeINS_12basic_stringIcNS_11char_traitsIcEENS0_IcEEEEP3NetEEPvEEE10deallocateB8ue170006EPSC_m, symObjAddr: 0x11F64, symBinAddr: 0x1000138BC, symSize: 0x74 }
  - { offsetInCU: 0x2B175, offset: 0x2B175, size: 0x8, addend: 0x0, symName: __ZNSt3__122__compressed_pair_elemINS_16__hash_node_baseIPNS_11__hash_nodeINS_17__hash_value_typeINS_12basic_stringIcNS_11char_traitsIcEENS_9allocatorIcEEEEP3NetEEPvEEEELi0ELb0EE5__getB8ue170006Ev, symObjAddr: 0x11FD8, symBinAddr: 0x100013930, symSize: 0x14 }
  - { offsetInCU: 0x2B19B, offset: 0x2B19B, size: 0x8, addend: 0x0, symName: __ZNSt3__19basic_iosIcNS_11char_traitsIcEEEC2B8ue170006Ev, symObjAddr: 0x11FEC, symBinAddr: 0x100013944, symSize: 0x44 }
  - { offsetInCU: 0x2B1C5, offset: 0x2B1C5, size: 0x8, addend: 0x0, symName: __ZNSt3__113basic_istreamIcNS_11char_traitsIcEEEC2B8ue170006EPNS_15basic_streambufIcS2_EE, symObjAddr: 0x12030, symBinAddr: 0x100013988, symSize: 0x64 }
  - { offsetInCU: 0x2B20A, offset: 0x2B20A, size: 0x8, addend: 0x0, symName: __ZNSt3__113basic_filebufIcNS_11char_traitsIcEEE4openERKNS_12basic_stringIcS2_NS_9allocatorIcEEEEj, symObjAddr: 0x12094, symBinAddr: 0x1000139EC, symSize: 0x44 }
  - { offsetInCU: 0x2B24E, offset: 0x2B24E, size: 0x8, addend: 0x0, symName: __ZNSt3__18ios_baseC2B8ue170006Ev, symObjAddr: 0x120D8, symBinAddr: 0x100013A30, symSize: 0x24 }
  - { offsetInCU: 0x2B278, offset: 0x2B278, size: 0x8, addend: 0x0, symName: __ZNSt3__19basic_iosIcNS_11char_traitsIcEEE4initB8ue170006EPNS_15basic_streambufIcS2_EE, symObjAddr: 0x120FC, symBinAddr: 0x100013A54, symSize: 0x44 }
  - { offsetInCU: 0x2B2AF, offset: 0x2B2AF, size: 0x8, addend: 0x0, symName: __ZNKSt3__112basic_stringIcNS_11char_traitsIcEENS_9allocatorIcEEE5c_strB8ue170006Ev, symObjAddr: 0x12140, symBinAddr: 0x100013A98, symSize: 0x24 }
  - { offsetInCU: 0x2B2D5, offset: 0x2B2D5, size: 0x8, addend: 0x0, symName: __ZNKSt3__113basic_filebufIcNS_11char_traitsIcEEE7is_openEv, symObjAddr: 0x12164, symBinAddr: 0x100013ABC, symSize: 0x24 }
  - { offsetInCU: 0x2B2FD, offset: 0x2B2FD, size: 0x8, addend: 0x0, symName: __ZNKSt3__19basic_iosIcNS_11char_traitsIcEEE4failB8ue170006Ev, symObjAddr: 0x12188, symBinAddr: 0x100013AE0, symSize: 0x28 }
  - { offsetInCU: 0x2B323, offset: 0x2B323, size: 0x8, addend: 0x0, symName: __ZNKSt3__18ios_base4failB8ue170006Ev, symObjAddr: 0x121B0, symBinAddr: 0x100013B08, symSize: 0x28 }
  - { offsetInCU: 0x2B34B, offset: 0x2B34B, size: 0x8, addend: 0x0, symName: __ZNSt3__115basic_stringbufIcNS_11char_traitsIcEENS_9allocatorIcEEEC1B8ue170006ERKNS_12basic_stringIcS2_S4_EEj, symObjAddr: 0x121D8, symBinAddr: 0x100013B30, symSize: 0x3C }
  - { offsetInCU: 0x2B393, offset: 0x2B393, size: 0x8, addend: 0x0, symName: __ZNSt3__115basic_stringbufIcNS_11char_traitsIcEENS_9allocatorIcEEEC2B8ue170006ERKNS_12basic_stringIcS2_S4_EEj, symObjAddr: 0x12214, symBinAddr: 0x100013B6C, symSize: 0xD8 }
  - { offsetInCU: 0x2B3DB, offset: 0x2B3DB, size: 0x8, addend: 0x0, symName: __ZNKSt3__112basic_stringIcNS_11char_traitsIcEENS_9allocatorIcEEE13get_allocatorB8ue170006Ev, symObjAddr: 0x122EC, symBinAddr: 0x100013C44, symSize: 0x24 }
  - { offsetInCU: 0x2B401, offset: 0x2B401, size: 0x8, addend: 0x0, symName: __ZNSt3__112basic_stringIcNS_11char_traitsIcEENS_9allocatorIcEEEC1B8ue170006ERKS4_, symObjAddr: 0x12310, symBinAddr: 0x100013C68, symSize: 0x34 }
  - { offsetInCU: 0x2B43A, offset: 0x2B43A, size: 0x8, addend: 0x0, symName: __ZNKSt3__112basic_stringIcNS_11char_traitsIcEENS_9allocatorIcEEE7__allocB8ue170006Ev, symObjAddr: 0x12344, symBinAddr: 0x100013C9C, symSize: 0x24 }
  - { offsetInCU: 0x2B460, offset: 0x2B460, size: 0x8, addend: 0x0, symName: __ZNKSt3__117__compressed_pairINS_12basic_stringIcNS_11char_traitsIcEENS_9allocatorIcEEE5__repES5_E6secondB8ue170006Ev, symObjAddr: 0x12368, symBinAddr: 0x100013CC0, symSize: 0x24 }
  - { offsetInCU: 0x2B486, offset: 0x2B486, size: 0x8, addend: 0x0, symName: __ZNKSt3__122__compressed_pair_elemINS_9allocatorIcEELi1ELb1EE5__getB8ue170006Ev, symObjAddr: 0x1238C, symBinAddr: 0x100013CE4, symSize: 0x14 }
  - { offsetInCU: 0x2B4AC, offset: 0x2B4AC, size: 0x8, addend: 0x0, symName: __ZNSt3__112basic_stringIcNS_11char_traitsIcEENS_9allocatorIcEEEC2B8ue170006ERKS4_, symObjAddr: 0x123A0, symBinAddr: 0x100013CF8, symSize: 0x40 }
  - { offsetInCU: 0x2B4E5, offset: 0x2B4E5, size: 0x8, addend: 0x0, symName: __ZNSt3__117__compressed_pairINS_12basic_stringIcNS_11char_traitsIcEENS_9allocatorIcEEE5__repES5_EC1B8ue170006INS_18__default_init_tagERKS5_EEOT_OT0_, symObjAddr: 0x123E0, symBinAddr: 0x100013D38, symSize: 0x3C }
  - { offsetInCU: 0x2B53D, offset: 0x2B53D, size: 0x8, addend: 0x0, symName: __ZNSt3__117__compressed_pairINS_12basic_stringIcNS_11char_traitsIcEENS_9allocatorIcEEE5__repES5_EC2B8ue170006INS_18__default_init_tagERKS5_EEOT_OT0_, symObjAddr: 0x1241C, symBinAddr: 0x100013D74, symSize: 0x40 }
  - { offsetInCU: 0x2B595, offset: 0x2B595, size: 0x8, addend: 0x0, symName: __ZNSt3__122__compressed_pair_elemINS_9allocatorIcEELi1ELb1EEC2B8ue170006IRKS2_vEEOT_, symObjAddr: 0x1245C, symBinAddr: 0x100013DB4, symSize: 0x18 }
  - { offsetInCU: 0x2B5F5, offset: 0x2B5F5, size: 0x8, addend: 0x0, symName: __ZNKSt3__113basic_istreamIcNS_11char_traitsIcEEE6sentrycvbB8ue170006Ev, symObjAddr: 0x12474, symBinAddr: 0x100013DCC, symSize: 0x1C }
  - { offsetInCU: 0x2B61B, offset: 0x2B61B, size: 0x8, addend: 0x0, symName: __ZNSt3__112basic_stringIcNS_11char_traitsIcEENS_9allocatorIcEEE5clearB8ue170006Ev, symObjAddr: 0x12490, symBinAddr: 0x100013DE8, symSize: 0x78 }
  - { offsetInCU: 0x2B643, offset: 0x2B643, size: 0x8, addend: 0x0, symName: __ZNKSt3__112basic_stringIcNS_11char_traitsIcEENS_9allocatorIcEEE8max_sizeB8ue170006Ev, symObjAddr: 0x12508, symBinAddr: 0x100013E60, symSize: 0xAC }
  - { offsetInCU: 0x2B696, offset: 0x2B696, size: 0x8, addend: 0x0, symName: __ZNSt3__114numeric_limitsIlE3maxB8ue170006Ev, symObjAddr: 0x125B4, symBinAddr: 0x100013F0C, symSize: 0x14 }
  - { offsetInCU: 0x2B6AA, offset: 0x2B6AA, size: 0x8, addend: 0x0, symName: __ZNSt3__115basic_streambufIcNS_11char_traitsIcEEE5sgetcB8ue170006Ev, symObjAddr: 0x125C8, symBinAddr: 0x100013F20, symSize: 0x70 }
  - { offsetInCU: 0x2B6D0, offset: 0x2B6D0, size: 0x8, addend: 0x0, symName: __ZNSt3__111char_traitsIcE12to_char_typeB8ue170006Ei, symObjAddr: 0x12638, symBinAddr: 0x100013F90, symSize: 0x18 }
  - { offsetInCU: 0x2B6F3, offset: 0x2B6F3, size: 0x8, addend: 0x0, symName: __ZNKSt3__15ctypeIcE2isB8ue170006Ejc, symObjAddr: 0x12650, symBinAddr: 0x100013FA8, symSize: 0x7C }
  - { offsetInCU: 0x2B737, offset: 0x2B737, size: 0x8, addend: 0x0, symName: __ZNSt3__115basic_streambufIcNS_11char_traitsIcEEE6sbumpcB8ue170006Ev, symObjAddr: 0x126CC, symBinAddr: 0x100014024, symSize: 0x78 }
  - { offsetInCU: 0x2B75D, offset: 0x2B75D, size: 0x8, addend: 0x0, symName: __ZNSt3__18ios_base18__setstate_nothrowB8ue170006Ej, symObjAddr: 0x12744, symBinAddr: 0x10001409C, symSize: 0x64 }
  - { offsetInCU: 0x2B792, offset: 0x2B792, size: 0x8, addend: 0x0, symName: __ZNKSt3__19basic_iosIcNS_11char_traitsIcEEE10exceptionsB8ue170006Ev, symObjAddr: 0x127A8, symBinAddr: 0x100014100, symSize: 0x24 }
  - { offsetInCU: 0x2B7B8, offset: 0x2B7B8, size: 0x8, addend: 0x0, symName: __ZNSt3__111char_traitsIcE6assignB8ue170006ERcRKc, symObjAddr: 0x127CC, symBinAddr: 0x100014124, symSize: 0x24 }
  - { offsetInCU: 0x2B7E9, offset: 0x2B7E9, size: 0x8, addend: 0x0, symName: __ZNSt3__112basic_stringIcNS_11char_traitsIcEENS_9allocatorIcEEE18__get_long_pointerB8ue170006Ev, symObjAddr: 0x127F0, symBinAddr: 0x100014148, symSize: 0x28 }
  - { offsetInCU: 0x2B80F, offset: 0x2B80F, size: 0x8, addend: 0x0, symName: __ZNSt3__112basic_stringIcNS_11char_traitsIcEENS_9allocatorIcEEE19__get_short_pointerB8ue170006Ev, symObjAddr: 0x12818, symBinAddr: 0x100014170, symSize: 0x28 }
  - { offsetInCU: 0x2B835, offset: 0x2B835, size: 0x8, addend: 0x0, symName: __ZNSt3__112basic_stringIcNS_11char_traitsIcEENS_9allocatorIcEEE16__set_short_sizeB8ue170006Em, symObjAddr: 0x12840, symBinAddr: 0x100014198, symSize: 0x78 }
  - { offsetInCU: 0x2B86A, offset: 0x2B86A, size: 0x8, addend: 0x0, symName: __ZNSt3__114pointer_traitsIPcE10pointer_toB8ue170006ERc, symObjAddr: 0x128B8, symBinAddr: 0x100014210, symSize: 0x14 }
  - { offsetInCU: 0x2B88D, offset: 0x2B88D, size: 0x8, addend: 0x0, symName: __ZNSt3__114numeric_limitsImE3maxB8ue170006Ev, symObjAddr: 0x128CC, symBinAddr: 0x100014224, symSize: 0x14 }
  - { offsetInCU: 0x2B8A1, offset: 0x2B8A1, size: 0x8, addend: 0x0, symName: __ZNSt3__123__libcpp_numeric_limitsImLb1EE3maxB8ue170006Ev, symObjAddr: 0x128E0, symBinAddr: 0x100014238, symSize: 0x8 }
  - { offsetInCU: 0x2B8B5, offset: 0x2B8B5, size: 0x8, addend: 0x0, symName: __ZNSt3__123__libcpp_numeric_limitsIlLb1EE3maxB8ue170006Ev, symObjAddr: 0x128E8, symBinAddr: 0x100014240, symSize: 0x8 }
  - { offsetInCU: 0x2B8C9, offset: 0x2B8C9, size: 0x8, addend: 0x0, symName: __ZNSt3__111char_traitsIcE11to_int_typeB8ue170006Ec, symObjAddr: 0x128F0, symBinAddr: 0x100014248, symSize: 0x14 }
  - { offsetInCU: 0x2B8EC, offset: 0x2B8EC, size: 0x8, addend: 0x0, symName: __Z7isasciii, symObjAddr: 0x12904, symBinAddr: 0x10001425C, symSize: 0x24 }
  - { offsetInCU: 0x2B919, offset: 0x2B919, size: 0x8, addend: 0x0, symName: __ZNKSt3__18ios_base10exceptionsB8ue170006Ev, symObjAddr: 0x12928, symBinAddr: 0x100014280, symSize: 0x18 }
  - { offsetInCU: 0x2B941, offset: 0x2B941, size: 0x8, addend: 0x0, symName: __ZNSt3__112__hash_tableINS_17__hash_value_typeINS_12basic_stringIcNS_11char_traitsIcEENS_9allocatorIcEEEE8FlipFlopEENS_22__unordered_map_hasherIS7_S9_NS_4hashIS7_EENS_8equal_toIS7_EELb1EEENS_21__unordered_map_equalIS7_S9_SE_SC_Lb1EEENS5_IS9_EEE4findIS7_EENS_15__hash_iteratorIPNS_11__hash_nodeIS9_PvEEEERKT_, symObjAddr: 0x12940, symBinAddr: 0x100014298, symSize: 0x1B0 }
  - { offsetInCU: 0x2B9CC, offset: 0x2B9CC, size: 0x8, addend: 0x0, symName: __ZNKSt3__122__unordered_map_hasherINS_12basic_stringIcNS_11char_traitsIcEENS_9allocatorIcEEEENS_17__hash_value_typeIS6_8FlipFlopEENS_4hashIS6_EENS_8equal_toIS6_EELb1EEclB8ue170006ERKS6_, symObjAddr: 0x12AF0, symBinAddr: 0x100014448, symSize: 0x2C }
  - { offsetInCU: 0x2BA01, offset: 0x2BA01, size: 0x8, addend: 0x0, symName: __ZNKSt3__121__unordered_map_equalINS_12basic_stringIcNS_11char_traitsIcEENS_9allocatorIcEEEENS_17__hash_value_typeIS6_8FlipFlopEENS_8equal_toIS6_EENS_4hashIS6_EELb1EEclB8ue170006ERKS9_RKS6_, symObjAddr: 0x12B1C, symBinAddr: 0x100014474, symSize: 0x48 }
  - { offsetInCU: 0x2BA45, offset: 0x2BA45, size: 0x8, addend: 0x0, symName: __ZNSt3__112__hash_tableINS_17__hash_value_typeINS_12basic_stringIcNS_11char_traitsIcEENS_9allocatorIcEEEE8FlipFlopEENS_22__unordered_map_hasherIS7_S9_NS_4hashIS7_EENS_8equal_toIS7_EELb1EEENS_21__unordered_map_equalIS7_S9_SE_SC_Lb1EEENS5_IS9_EEE3endEv, symObjAddr: 0x12B64, symBinAddr: 0x1000144BC, symSize: 0x2C }
  - { offsetInCU: 0x2BA6D, offset: 0x2BA6D, size: 0x8, addend: 0x0, symName: __ZNKSt3__119__hash_map_iteratorINS_15__hash_iteratorIPNS_11__hash_nodeINS_17__hash_value_typeINS_12basic_stringIcNS_11char_traitsIcEENS_9allocatorIcEEEEP9InstanceFEEPvEEEEEptB8ue170006Ev, symObjAddr: 0x12BF4, symBinAddr: 0x10001454C, symSize: 0x2C }
  - { offsetInCU: 0x2BA93, offset: 0x2BA93, size: 0x8, addend: 0x0, symName: __ZNSt3__113unordered_mapINS_12basic_stringIcNS_11char_traitsIcEENS_9allocatorIcEEEEP9InstanceFNS_4hashIS6_EENS_8equal_toIS6_EENS4_INS_4pairIKS6_S8_EEEEE25__construct_node_with_keyERSE_, symObjAddr: 0x12C20, symBinAddr: 0x100014578, symSize: 0x144 }
  - { offsetInCU: 0x2BAE9, offset: 0x2BAE9, size: 0x8, addend: 0x0, symName: __ZNSt3__112__hash_tableINS_17__hash_value_typeINS_12basic_stringIcNS_11char_traitsIcEENS_9allocatorIcEEEEP9InstanceFEENS_22__unordered_map_hasherIS7_SA_NS_4hashIS7_EENS_8equal_toIS7_EELb1EEENS_21__unordered_map_equalIS7_SA_SF_SD_Lb1EEENS5_ISA_EEE20__node_insert_uniqueEPNS_11__hash_nodeISA_PvEE, symObjAddr: 0x12D64, symBinAddr: 0x1000146BC, symSize: 0xC4 }
  - { offsetInCU: 0x2BB3E, offset: 0x2BB3E, size: 0x8, addend: 0x0, symName: __ZNKSt3__110unique_ptrINS_11__hash_nodeINS_17__hash_value_typeINS_12basic_stringIcNS_11char_traitsIcEENS_9allocatorIcEEEEP9InstanceFEEPvEENS_26__hash_map_node_destructorINS6_ISD_EEEEE3getB8ue170006Ev, symObjAddr: 0x12E28, symBinAddr: 0x100014780, symSize: 0x28 }
  - { offsetInCU: 0x2BB64, offset: 0x2BB64, size: 0x8, addend: 0x0, symName: __ZNSt3__14pairINS_19__hash_map_iteratorINS_15__hash_iteratorIPNS_11__hash_nodeINS_17__hash_value_typeINS_12basic_stringIcNS_11char_traitsIcEENS_9allocatorIcEEEEP9InstanceFEEPvEEEEEEbEC1B8ue170006ISH_bEERKNS0_IT_T0_EE, symObjAddr: 0x12E50, symBinAddr: 0x1000147A8, symSize: 0x34 }
  - { offsetInCU: 0x2BBAE, offset: 0x2BBAE, size: 0x8, addend: 0x0, symName: __ZNSt3__110unique_ptrINS_11__hash_nodeINS_17__hash_value_typeINS_12basic_stringIcNS_11char_traitsIcEENS_9allocatorIcEEEEP9InstanceFEEPvEENS_26__hash_map_node_destructorINS6_ISD_EEEEE7releaseB8ue170006Ev, symObjAddr: 0x12E84, symBinAddr: 0x1000147DC, symSize: 0x44 }
  - { offsetInCU: 0x2BBE3, offset: 0x2BBE3, size: 0x8, addend: 0x0, symName: __ZNSt3__110unique_ptrINS_11__hash_nodeINS_17__hash_value_typeINS_12basic_stringIcNS_11char_traitsIcEENS_9allocatorIcEEEEP9InstanceFEEPvEENS_26__hash_map_node_destructorINS6_ISD_EEEEED1B8ue170006Ev, symObjAddr: 0x12EC8, symBinAddr: 0x100014820, symSize: 0x2C }
  - { offsetInCU: 0x2BC0D, offset: 0x2BC0D, size: 0x8, addend: 0x0, symName: __ZNSt3__114pointer_traitsIPNS_4pairIKNS_12basic_stringIcNS_11char_traitsIcEENS_9allocatorIcEEEEP9InstanceFEEE10pointer_toB8ue170006ERSB_, symObjAddr: 0x12EF4, symBinAddr: 0x10001484C, symSize: 0x14 }
  - { offsetInCU: 0x2BC30, offset: 0x2BC30, size: 0x8, addend: 0x0, symName: __ZNKSt3__115__hash_iteratorIPNS_11__hash_nodeINS_17__hash_value_typeINS_12basic_stringIcNS_11char_traitsIcEENS_9allocatorIcEEEEP9InstanceFEEPvEEEptB8ue170006Ev, symObjAddr: 0x12F08, symBinAddr: 0x100014860, symSize: 0x30 }
  - { offsetInCU: 0x2BC56, offset: 0x2BC56, size: 0x8, addend: 0x0, symName: __ZNSt3__114pointer_traitsIPNS_17__hash_value_typeINS_12basic_stringIcNS_11char_traitsIcEENS_9allocatorIcEEEEP9InstanceFEEE10pointer_toB8ue170006ERSA_, symObjAddr: 0x12F38, symBinAddr: 0x100014890, symSize: 0x14 }
  - { offsetInCU: 0x2BC79, offset: 0x2BC79, size: 0x8, addend: 0x0, symName: __ZNSt3__116allocator_traitsINS_9allocatorINS_11__hash_nodeINS_17__hash_value_typeINS_12basic_stringIcNS_11char_traitsIcEENS1_IcEEEEP9InstanceFEEPvEEEEE8allocateB8ue170006ERSE_m, symObjAddr: 0x12F4C, symBinAddr: 0x1000148A4, symSize: 0x2C }
  - { offsetInCU: 0x2BCAC, offset: 0x2BCAC, size: 0x8, addend: 0x0, symName: __ZNSt3__126__hash_map_node_destructorINS_9allocatorINS_11__hash_nodeINS_17__hash_value_typeINS_12basic_stringIcNS_11char_traitsIcEENS1_IcEEEEP9InstanceFEEPvEEEEEC1B8ue170006ERSE_, symObjAddr: 0x12F78, symBinAddr: 0x1000148D0, symSize: 0x34 }
  - { offsetInCU: 0x2BCEA, offset: 0x2BCEA, size: 0x8, addend: 0x0, symName: __ZNSt3__110unique_ptrINS_11__hash_nodeINS_17__hash_value_typeINS_12basic_stringIcNS_11char_traitsIcEENS_9allocatorIcEEEEP9InstanceFEEPvEENS_26__hash_map_node_destructorINS6_ISD_EEEEEC1B8ue170006ILb1EvEEPSD_NS_16__dependent_typeINS_27__unique_ptr_deleter_sfinaeISG_EEXT_EE20__good_rval_ref_typeE, symObjAddr: 0x12FAC, symBinAddr: 0x100014904, symSize: 0x3C }
  - { offsetInCU: 0x2BD3B, offset: 0x2BD3B, size: 0x8, addend: 0x0, symName: __ZNSt3__116allocator_traitsINS_9allocatorINS_11__hash_nodeINS_17__hash_value_typeINS_12basic_stringIcNS_11char_traitsIcEENS1_IcEEEEP9InstanceFEEPvEEEEE9constructB8ue170006IKS8_JRSH_EvEEvRSE_PT_DpOT0_, symObjAddr: 0x12FE8, symBinAddr: 0x100014940, symSize: 0x34 }
  - { offsetInCU: 0x2BD92, offset: 0x2BD92, size: 0x8, addend: 0x0, symName: __ZNKSt3__110unique_ptrINS_11__hash_nodeINS_17__hash_value_typeINS_12basic_stringIcNS_11char_traitsIcEENS_9allocatorIcEEEEP9InstanceFEEPvEENS_26__hash_map_node_destructorINS6_ISD_EEEEEptB8ue170006Ev, symObjAddr: 0x1301C, symBinAddr: 0x100014974, symSize: 0x28 }
  - { offsetInCU: 0x2BDB8, offset: 0x2BDB8, size: 0x8, addend: 0x0, symName: __ZNSt3__110unique_ptrINS_11__hash_nodeINS_17__hash_value_typeINS_12basic_stringIcNS_11char_traitsIcEENS_9allocatorIcEEEEP9InstanceFEEPvEENS_26__hash_map_node_destructorINS6_ISD_EEEEE11get_deleterB8ue170006Ev, symObjAddr: 0x13044, symBinAddr: 0x10001499C, symSize: 0x24 }
  - { offsetInCU: 0x2BDE3, offset: 0x2BDE3, size: 0x8, addend: 0x0, symName: __ZNSt3__116allocator_traitsINS_9allocatorINS_11__hash_nodeINS_17__hash_value_typeINS_12basic_stringIcNS_11char_traitsIcEENS1_IcEEEEP9InstanceFEEPvEEEEE9constructB8ue170006ISA_JEvEEvRSE_PT_DpOT0_, symObjAddr: 0x13068, symBinAddr: 0x1000149C0, symSize: 0x2C }
  - { offsetInCU: 0x2BE25, offset: 0x2BE25, size: 0x8, addend: 0x0, symName: __ZNSt3__19allocatorINS_11__hash_nodeINS_17__hash_value_typeINS_12basic_stringIcNS_11char_traitsIcEENS0_IcEEEEP9InstanceFEEPvEEE8allocateB8ue170006Em, symObjAddr: 0x13094, symBinAddr: 0x1000149EC, symSize: 0x8C }
  - { offsetInCU: 0x2BE63, offset: 0x2BE63, size: 0x8, addend: 0x0, symName: __ZNSt3__116allocator_traitsINS_9allocatorINS_11__hash_nodeINS_17__hash_value_typeINS_12basic_stringIcNS_11char_traitsIcEENS1_IcEEEEP9InstanceFEEPvEEEEE8max_sizeB8ue170006ISE_vEEmRKSE_, symObjAddr: 0x13120, symBinAddr: 0x100014A78, symSize: 0x24 }
  - { offsetInCU: 0x2BE91, offset: 0x2BE91, size: 0x8, addend: 0x0, symName: __ZNKSt3__19allocatorINS_11__hash_nodeINS_17__hash_value_typeINS_12basic_stringIcNS_11char_traitsIcEENS0_IcEEEEP9InstanceFEEPvEEE8max_sizeB8ue170006Ev, symObjAddr: 0x13144, symBinAddr: 0x100014A9C, symSize: 0x18 }
  - { offsetInCU: 0x2BEB7, offset: 0x2BEB7, size: 0x8, addend: 0x0, symName: __ZNSt3__126__hash_map_node_destructorINS_9allocatorINS_11__hash_nodeINS_17__hash_value_typeINS_12basic_stringIcNS_11char_traitsIcEENS1_IcEEEEP9InstanceFEEPvEEEEEC2B8ue170006ERSE_, symObjAddr: 0x1315C, symBinAddr: 0x100014AB4, symSize: 0x28 }
  - { offsetInCU: 0x2BEF0, offset: 0x2BEF0, size: 0x8, addend: 0x0, symName: __ZNSt3__110unique_ptrINS_11__hash_nodeINS_17__hash_value_typeINS_12basic_stringIcNS_11char_traitsIcEENS_9allocatorIcEEEEP9InstanceFEEPvEENS_26__hash_map_node_destructorINS6_ISD_EEEEEC2B8ue170006ILb1EvEEPSD_NS_16__dependent_typeINS_27__unique_ptr_deleter_sfinaeISG_EEXT_EE20__good_rval_ref_typeE, symObjAddr: 0x13184, symBinAddr: 0x100014ADC, symSize: 0x5C }
  - { offsetInCU: 0x2BF41, offset: 0x2BF41, size: 0x8, addend: 0x0, symName: __ZNSt3__117__compressed_pairIPNS_11__hash_nodeINS_17__hash_value_typeINS_12basic_stringIcNS_11char_traitsIcEENS_9allocatorIcEEEEP9InstanceFEEPvEENS_26__hash_map_node_destructorINS6_ISD_EEEEEC1B8ue170006IRSE_SH_EEOT_OT0_, symObjAddr: 0x131E0, symBinAddr: 0x100014B38, symSize: 0x3C }
  - { offsetInCU: 0x2BF99, offset: 0x2BF99, size: 0x8, addend: 0x0, symName: __ZNSt3__117__compressed_pairIPNS_11__hash_nodeINS_17__hash_value_typeINS_12basic_stringIcNS_11char_traitsIcEENS_9allocatorIcEEEEP9InstanceFEEPvEENS_26__hash_map_node_destructorINS6_ISD_EEEEEC2B8ue170006IRSE_SH_EEOT_OT0_, symObjAddr: 0x1321C, symBinAddr: 0x100014B74, symSize: 0x48 }
  - { offsetInCU: 0x2BFF1, offset: 0x2BFF1, size: 0x8, addend: 0x0, symName: __ZNSt3__122__compressed_pair_elemIPNS_11__hash_nodeINS_17__hash_value_typeINS_12basic_stringIcNS_11char_traitsIcEENS_9allocatorIcEEEEP9InstanceFEEPvEELi0ELb0EEC2B8ue170006IRSE_vEEOT_, symObjAddr: 0x13264, symBinAddr: 0x100014BBC, symSize: 0x24 }
  - { offsetInCU: 0x2C033, offset: 0x2C033, size: 0x8, addend: 0x0, symName: __ZNSt3__122__compressed_pair_elemINS_26__hash_map_node_destructorINS_9allocatorINS_11__hash_nodeINS_17__hash_value_typeINS_12basic_stringIcNS_11char_traitsIcEENS2_IcEEEEP9InstanceFEEPvEEEEEELi1ELb0EEC2B8ue170006ISG_vEEOT_, symObjAddr: 0x13288, symBinAddr: 0x100014BE0, symSize: 0x24 }
  - { offsetInCU: 0x2C075, offset: 0x2C075, size: 0x8, addend: 0x0, symName: __ZNSt3__19allocatorINS_11__hash_nodeINS_17__hash_value_typeINS_12basic_stringIcNS_11char_traitsIcEENS0_IcEEEEP9InstanceFEEPvEEE9constructB8ue170006IKS7_JRSF_EEEvPT_DpOT0_, symObjAddr: 0x132AC, symBinAddr: 0x100014C04, symSize: 0x30 }
  - { offsetInCU: 0x2C0CB, offset: 0x2C0CB, size: 0x8, addend: 0x0, symName: __ZNKSt3__117__compressed_pairIPNS_11__hash_nodeINS_17__hash_value_typeINS_12basic_stringIcNS_11char_traitsIcEENS_9allocatorIcEEEEP9InstanceFEEPvEENS_26__hash_map_node_destructorINS6_ISD_EEEEE5firstB8ue170006Ev, symObjAddr: 0x132DC, symBinAddr: 0x100014C34, symSize: 0x24 }
  - { offsetInCU: 0x2C0F1, offset: 0x2C0F1, size: 0x8, addend: 0x0, symName: __ZNKSt3__122__compressed_pair_elemIPNS_11__hash_nodeINS_17__hash_value_typeINS_12basic_stringIcNS_11char_traitsIcEENS_9allocatorIcEEEEP9InstanceFEEPvEELi0ELb0EE5__getB8ue170006Ev, symObjAddr: 0x13300, symBinAddr: 0x100014C58, symSize: 0x14 }
  - { offsetInCU: 0x2C117, offset: 0x2C117, size: 0x8, addend: 0x0, symName: __ZNSt3__117__compressed_pairIPNS_11__hash_nodeINS_17__hash_value_typeINS_12basic_stringIcNS_11char_traitsIcEENS_9allocatorIcEEEEP9InstanceFEEPvEENS_26__hash_map_node_destructorINS6_ISD_EEEEE6secondB8ue170006Ev, symObjAddr: 0x13314, symBinAddr: 0x100014C6C, symSize: 0x28 }
  - { offsetInCU: 0x2C13D, offset: 0x2C13D, size: 0x8, addend: 0x0, symName: __ZNSt3__122__compressed_pair_elemINS_26__hash_map_node_destructorINS_9allocatorINS_11__hash_nodeINS_17__hash_value_typeINS_12basic_stringIcNS_11char_traitsIcEENS2_IcEEEEP9InstanceFEEPvEEEEEELi1ELb0EE5__getB8ue170006Ev, symObjAddr: 0x1333C, symBinAddr: 0x100014C94, symSize: 0x14 }
  - { offsetInCU: 0x2C163, offset: 0x2C163, size: 0x8, addend: 0x0, symName: __ZNSt3__19allocatorINS_11__hash_nodeINS_17__hash_value_typeINS_12basic_stringIcNS_11char_traitsIcEENS0_IcEEEEP9InstanceFEEPvEEE9constructB8ue170006IS9_JEEEvPT_DpOT0_, symObjAddr: 0x13350, symBinAddr: 0x100014CA8, symSize: 0x1C }
  - { offsetInCU: 0x2C1A5, offset: 0x2C1A5, size: 0x8, addend: 0x0, symName: __ZNSt3__112__hash_tableINS_17__hash_value_typeINS_12basic_stringIcNS_11char_traitsIcEENS_9allocatorIcEEEEP9InstanceFEENS_22__unordered_map_hasherIS7_SA_NS_4hashIS7_EENS_8equal_toIS7_EELb1EEENS_21__unordered_map_equalIS7_SA_SF_SD_Lb1EEENS5_ISA_EEE13hash_functionB8ue170006Ev, symObjAddr: 0x1336C, symBinAddr: 0x100014CC4, symSize: 0x28 }
  - { offsetInCU: 0x2C1CB, offset: 0x2C1CB, size: 0x8, addend: 0x0, symName: __ZNKSt3__122__unordered_map_hasherINS_12basic_stringIcNS_11char_traitsIcEENS_9allocatorIcEEEENS_17__hash_value_typeIS6_P9InstanceFEENS_4hashIS6_EENS_8equal_toIS6_EELb1EEclB8ue170006ERKSA_, symObjAddr: 0x13394, symBinAddr: 0x100014CEC, symSize: 0x3C }
  - { offsetInCU: 0x2C200, offset: 0x2C200, size: 0x8, addend: 0x0, symName: __ZNSt3__112__hash_tableINS_17__hash_value_typeINS_12basic_stringIcNS_11char_traitsIcEENS_9allocatorIcEEEEP9InstanceFEENS_22__unordered_map_hasherIS7_SA_NS_4hashIS7_EENS_8equal_toIS7_EELb1EEENS_21__unordered_map_equalIS7_SA_SF_SD_Lb1EEENS5_ISA_EEE28__node_insert_unique_prepareB8ue170006EmRSA_, symObjAddr: 0x133D0, symBinAddr: 0x100014D28, symSize: 0x290 }
  - { offsetInCU: 0x2C282, offset: 0x2C282, size: 0x8, addend: 0x0, symName: __ZNKSt3__116__hash_node_baseIPNS_11__hash_nodeINS_17__hash_value_typeINS_12basic_stringIcNS_11char_traitsIcEENS_9allocatorIcEEEEP9InstanceFEEPvEEE6__hashB8ue170006Ev, symObjAddr: 0x13660, symBinAddr: 0x100014FB8, symSize: 0x18 }
  - { offsetInCU: 0x2C2A8, offset: 0x2C2A8, size: 0x8, addend: 0x0, symName: __ZNSt3__112__hash_tableINS_17__hash_value_typeINS_12basic_stringIcNS_11char_traitsIcEENS_9allocatorIcEEEEP9InstanceFEENS_22__unordered_map_hasherIS7_SA_NS_4hashIS7_EENS_8equal_toIS7_EELb1EEENS_21__unordered_map_equalIS7_SA_SF_SD_Lb1EEENS5_ISA_EEE28__node_insert_unique_performB8ue170006EPNS_11__hash_nodeISA_PvEE, symObjAddr: 0x13678, symBinAddr: 0x100014FD0, symSize: 0x154 }
  - { offsetInCU: 0x2C30C, offset: 0x2C30C, size: 0x8, addend: 0x0, symName: __ZNSt3__116__hash_node_baseIPNS_11__hash_nodeINS_17__hash_value_typeINS_12basic_stringIcNS_11char_traitsIcEENS_9allocatorIcEEEEP9InstanceFEEPvEEE5__ptrB8ue170006Ev, symObjAddr: 0x137CC, symBinAddr: 0x100015124, symSize: 0x24 }
  - { offsetInCU: 0x2C332, offset: 0x2C332, size: 0x8, addend: 0x0, symName: __ZNSt3__115__hash_iteratorIPNS_11__hash_nodeINS_17__hash_value_typeINS_12basic_stringIcNS_11char_traitsIcEENS_9allocatorIcEEEEP9InstanceFEEPvEEEC1B8ue170006EPNS_16__hash_node_baseISE_EE, symObjAddr: 0x137F0, symBinAddr: 0x100015148, symSize: 0x34 }
  - { offsetInCU: 0x2C36B, offset: 0x2C36B, size: 0x8, addend: 0x0, symName: __ZNSt3__14pairINS_15__hash_iteratorIPNS_11__hash_nodeINS_17__hash_value_typeINS_12basic_stringIcNS_11char_traitsIcEENS_9allocatorIcEEEEP9InstanceFEEPvEEEEbEC1B8ue170006ERKSG_RKb, symObjAddr: 0x13824, symBinAddr: 0x10001517C, symSize: 0x3C }
  - { offsetInCU: 0x2C3B1, offset: 0x2C3B1, size: 0x8, addend: 0x0, symName: __ZNSt3__117__compressed_pairImNS_22__unordered_map_hasherINS_12basic_stringIcNS_11char_traitsIcEENS_9allocatorIcEEEENS_17__hash_value_typeIS7_P9InstanceFEENS_4hashIS7_EENS_8equal_toIS7_EELb1EEEE6secondB8ue170006Ev, symObjAddr: 0x13860, symBinAddr: 0x1000151B8, symSize: 0x24 }
  - { offsetInCU: 0x2C3D7, offset: 0x2C3D7, size: 0x8, addend: 0x0, symName: __ZNSt3__122__compressed_pair_elemINS_22__unordered_map_hasherINS_12basic_stringIcNS_11char_traitsIcEENS_9allocatorIcEEEENS_17__hash_value_typeIS7_P9InstanceFEENS_4hashIS7_EENS_8equal_toIS7_EELb1EEELi1ELb1EE5__getB8ue170006Ev, symObjAddr: 0x13884, symBinAddr: 0x1000151DC, symSize: 0x14 }
  - { offsetInCU: 0x2C3FD, offset: 0x2C3FD, size: 0x8, addend: 0x0, symName: __ZNKSt3__117__hash_value_typeINS_12basic_stringIcNS_11char_traitsIcEENS_9allocatorIcEEEEP9InstanceFE11__get_valueB8ue170006Ev, symObjAddr: 0x13898, symBinAddr: 0x1000151F0, symSize: 0x14 }
  - { offsetInCU: 0x2C423, offset: 0x2C423, size: 0x8, addend: 0x0, symName: __ZNKSt3__112__hash_tableINS_17__hash_value_typeINS_12basic_stringIcNS_11char_traitsIcEENS_9allocatorIcEEEEP9InstanceFEENS_22__unordered_map_hasherIS7_SA_NS_4hashIS7_EENS_8equal_toIS7_EELb1EEENS_21__unordered_map_equalIS7_SA_SF_SD_Lb1EEENS5_ISA_EEE12bucket_countB8ue170006Ev, symObjAddr: 0x138AC, symBinAddr: 0x100015204, symSize: 0x28 }
  - { offsetInCU: 0x2C449, offset: 0x2C449, size: 0x8, addend: 0x0, symName: __ZNKSt3__110unique_ptrIA_PNS_16__hash_node_baseIPNS_11__hash_nodeINS_17__hash_value_typeINS_12basic_stringIcNS_11char_traitsIcEENS_9allocatorIcEEEEP9InstanceFEEPvEEEENS_25__bucket_list_deallocatorINS7_ISH_EEEEEixB8ue170006Em, symObjAddr: 0x138D4, symBinAddr: 0x10001522C, symSize: 0x34 }
  - { offsetInCU: 0x2C47E, offset: 0x2C47E, size: 0x8, addend: 0x0, symName: __ZNSt3__112__hash_tableINS_17__hash_value_typeINS_12basic_stringIcNS_11char_traitsIcEENS_9allocatorIcEEEEP9InstanceFEENS_22__unordered_map_hasherIS7_SA_NS_4hashIS7_EENS_8equal_toIS7_EELb1EEENS_21__unordered_map_equalIS7_SA_SF_SD_Lb1EEENS5_ISA_EEE6key_eqB8ue170006Ev, symObjAddr: 0x13908, symBinAddr: 0x100015260, symSize: 0x28 }
  - { offsetInCU: 0x2C4A4, offset: 0x2C4A4, size: 0x8, addend: 0x0, symName: __ZNKSt3__121__unordered_map_equalINS_12basic_stringIcNS_11char_traitsIcEENS_9allocatorIcEEEENS_17__hash_value_typeIS6_P9InstanceFEENS_8equal_toIS6_EENS_4hashIS6_EELb1EEclB8ue170006ERKSA_SH_, symObjAddr: 0x13930, symBinAddr: 0x100015288, symSize: 0x54 }
  - { offsetInCU: 0x2C4E8, offset: 0x2C4E8, size: 0x8, addend: 0x0, symName: __ZNSt3__112__hash_tableINS_17__hash_value_typeINS_12basic_stringIcNS_11char_traitsIcEENS_9allocatorIcEEEEP9InstanceFEENS_22__unordered_map_hasherIS7_SA_NS_4hashIS7_EENS_8equal_toIS7_EELb1EEENS_21__unordered_map_equalIS7_SA_SF_SD_Lb1EEENS5_ISA_EEE4sizeB8ue170006Ev, symObjAddr: 0x13984, symBinAddr: 0x1000152DC, symSize: 0x28 }
  - { offsetInCU: 0x2C50E, offset: 0x2C50E, size: 0x8, addend: 0x0, symName: __ZNSt3__112__hash_tableINS_17__hash_value_typeINS_12basic_stringIcNS_11char_traitsIcEENS_9allocatorIcEEEEP9InstanceFEENS_22__unordered_map_hasherIS7_SA_NS_4hashIS7_EENS_8equal_toIS7_EELb1EEENS_21__unordered_map_equalIS7_SA_SF_SD_Lb1EEENS5_ISA_EEE15max_load_factorB8ue170006Ev, symObjAddr: 0x139AC, symBinAddr: 0x100015304, symSize: 0x28 }
  - { offsetInCU: 0x2C534, offset: 0x2C534, size: 0x8, addend: 0x0, symName: __ZNSt3__112__hash_tableINS_17__hash_value_typeINS_12basic_stringIcNS_11char_traitsIcEENS_9allocatorIcEEEEP9InstanceFEENS_22__unordered_map_hasherIS7_SA_NS_4hashIS7_EENS_8equal_toIS7_EELb1EEENS_21__unordered_map_equalIS7_SA_SF_SD_Lb1EEENS5_ISA_EEE15__rehash_uniqueB8ue170006Em, symObjAddr: 0x139D4, symBinAddr: 0x10001532C, symSize: 0x2C }
  - { offsetInCU: 0x2C569, offset: 0x2C569, size: 0x8, addend: 0x0, symName: __ZNKSt3__110unique_ptrIA_PNS_16__hash_node_baseIPNS_11__hash_nodeINS_17__hash_value_typeINS_12basic_stringIcNS_11char_traitsIcEENS_9allocatorIcEEEEP9InstanceFEEPvEEEENS_25__bucket_list_deallocatorINS7_ISH_EEEEE11get_deleterB8ue170006Ev, symObjAddr: 0x13A00, symBinAddr: 0x100015358, symSize: 0x24 }
  - { offsetInCU: 0x2C58F, offset: 0x2C58F, size: 0x8, addend: 0x0, symName: __ZNKSt3__125__bucket_list_deallocatorINS_9allocatorIPNS_16__hash_node_baseIPNS_11__hash_nodeINS_17__hash_value_typeINS_12basic_stringIcNS_11char_traitsIcEENS1_IcEEEEP9InstanceFEEPvEEEEEEE4sizeB8ue170006Ev, symObjAddr: 0x13A24, symBinAddr: 0x10001537C, symSize: 0x28 }
  - { offsetInCU: 0x2C5B5, offset: 0x2C5B5, size: 0x8, addend: 0x0, symName: __ZNKSt3__117__compressed_pairIPPNS_16__hash_node_baseIPNS_11__hash_nodeINS_17__hash_value_typeINS_12basic_stringIcNS_11char_traitsIcEENS_9allocatorIcEEEEP9InstanceFEEPvEEEENS_25__bucket_list_deallocatorINS7_ISH_EEEEE6secondB8ue170006Ev, symObjAddr: 0x13A4C, symBinAddr: 0x1000153A4, symSize: 0x28 }
  - { offsetInCU: 0x2C5DB, offset: 0x2C5DB, size: 0x8, addend: 0x0, symName: __ZNKSt3__122__compressed_pair_elemINS_25__bucket_list_deallocatorINS_9allocatorIPNS_16__hash_node_baseIPNS_11__hash_nodeINS_17__hash_value_typeINS_12basic_stringIcNS_11char_traitsIcEENS2_IcEEEEP9InstanceFEEPvEEEEEEEELi1ELb0EE5__getB8ue170006Ev, symObjAddr: 0x13A74, symBinAddr: 0x1000153CC, symSize: 0x14 }
  - { offsetInCU: 0x2C601, offset: 0x2C601, size: 0x8, addend: 0x0, symName: __ZNKSt3__117__compressed_pairImNS_9allocatorIPNS_16__hash_node_baseIPNS_11__hash_nodeINS_17__hash_value_typeINS_12basic_stringIcNS_11char_traitsIcEENS1_IcEEEEP9InstanceFEEPvEEEEEEE5firstB8ue170006Ev, symObjAddr: 0x13A88, symBinAddr: 0x1000153E0, symSize: 0x24 }
  - { offsetInCU: 0x2C627, offset: 0x2C627, size: 0x8, addend: 0x0, symName: __ZNKSt3__117__compressed_pairIPPNS_16__hash_node_baseIPNS_11__hash_nodeINS_17__hash_value_typeINS_12basic_stringIcNS_11char_traitsIcEENS_9allocatorIcEEEEP9InstanceFEEPvEEEENS_25__bucket_list_deallocatorINS7_ISH_EEEEE5firstB8ue170006Ev, symObjAddr: 0x13AAC, symBinAddr: 0x100015404, symSize: 0x24 }
  - { offsetInCU: 0x2C64D, offset: 0x2C64D, size: 0x8, addend: 0x0, symName: __ZNKSt3__122__compressed_pair_elemIPPNS_16__hash_node_baseIPNS_11__hash_nodeINS_17__hash_value_typeINS_12basic_stringIcNS_11char_traitsIcEENS_9allocatorIcEEEEP9InstanceFEEPvEEEELi0ELb0EE5__getB8ue170006Ev, symObjAddr: 0x13AD0, symBinAddr: 0x100015428, symSize: 0x14 }
  - { offsetInCU: 0x2C673, offset: 0x2C673, size: 0x8, addend: 0x0, symName: __ZNSt3__117__compressed_pairIfNS_21__unordered_map_equalINS_12basic_stringIcNS_11char_traitsIcEENS_9allocatorIcEEEENS_17__hash_value_typeIS7_P9InstanceFEENS_8equal_toIS7_EENS_4hashIS7_EELb1EEEE6secondB8ue170006Ev, symObjAddr: 0x13AE4, symBinAddr: 0x10001543C, symSize: 0x24 }
  - { offsetInCU: 0x2C699, offset: 0x2C699, size: 0x8, addend: 0x0, symName: __ZNSt3__122__compressed_pair_elemINS_21__unordered_map_equalINS_12basic_stringIcNS_11char_traitsIcEENS_9allocatorIcEEEENS_17__hash_value_typeIS7_P9InstanceFEENS_8equal_toIS7_EENS_4hashIS7_EELb1EEELi1ELb1EE5__getB8ue170006Ev, symObjAddr: 0x13B08, symBinAddr: 0x100015460, symSize: 0x14 }
  - { offsetInCU: 0x2C6BF, offset: 0x2C6BF, size: 0x8, addend: 0x0, symName: __ZNSt3__117__compressed_pairImNS_22__unordered_map_hasherINS_12basic_stringIcNS_11char_traitsIcEENS_9allocatorIcEEEENS_17__hash_value_typeIS7_P9InstanceFEENS_4hashIS7_EENS_8equal_toIS7_EELb1EEEE5firstB8ue170006Ev, symObjAddr: 0x13B1C, symBinAddr: 0x100015474, symSize: 0x24 }
  - { offsetInCU: 0x2C6E5, offset: 0x2C6E5, size: 0x8, addend: 0x0, symName: __ZNSt3__117__compressed_pairIfNS_21__unordered_map_equalINS_12basic_stringIcNS_11char_traitsIcEENS_9allocatorIcEEEENS_17__hash_value_typeIS7_P9InstanceFEENS_8equal_toIS7_EENS_4hashIS7_EELb1EEEE5firstB8ue170006Ev, symObjAddr: 0x13B40, symBinAddr: 0x100015498, symSize: 0x24 }
  - { offsetInCU: 0x2C70B, offset: 0x2C70B, size: 0x8, addend: 0x0, symName: __ZNSt3__112__hash_tableINS_17__hash_value_typeINS_12basic_stringIcNS_11char_traitsIcEENS_9allocatorIcEEEEP9InstanceFEENS_22__unordered_map_hasherIS7_SA_NS_4hashIS7_EENS_8equal_toIS7_EELb1EEENS_21__unordered_map_equalIS7_SA_SF_SD_Lb1EEENS5_ISA_EEE8__rehashILb1EEEvm, symObjAddr: 0x13B64, symBinAddr: 0x1000154BC, symSize: 0x1A8 }
  - { offsetInCU: 0x2C75B, offset: 0x2C75B, size: 0x8, addend: 0x0, symName: __ZNSt3__112__hash_tableINS_17__hash_value_typeINS_12basic_stringIcNS_11char_traitsIcEENS_9allocatorIcEEEEP9InstanceFEENS_22__unordered_map_hasherIS7_SA_NS_4hashIS7_EENS_8equal_toIS7_EELb1EEENS_21__unordered_map_equalIS7_SA_SF_SD_Lb1EEENS5_ISA_EEE11__do_rehashILb1EEEvm, symObjAddr: 0x13D0C, symBinAddr: 0x100015664, symSize: 0x288 }
  - { offsetInCU: 0x2C842, offset: 0x2C842, size: 0x8, addend: 0x0, symName: __ZNSt3__110unique_ptrIA_PNS_16__hash_node_baseIPNS_11__hash_nodeINS_17__hash_value_typeINS_12basic_stringIcNS_11char_traitsIcEENS_9allocatorIcEEEEP9InstanceFEEPvEEEENS_25__bucket_list_deallocatorINS7_ISH_EEEEE11get_deleterB8ue170006Ev, symObjAddr: 0x13F94, symBinAddr: 0x1000158EC, symSize: 0x24 }
  - { offsetInCU: 0x2C868, offset: 0x2C868, size: 0x8, addend: 0x0, symName: __ZNSt3__110unique_ptrIA_PNS_16__hash_node_baseIPNS_11__hash_nodeINS_17__hash_value_typeINS_12basic_stringIcNS_11char_traitsIcEENS_9allocatorIcEEEEP9InstanceFEEPvEEEENS_25__bucket_list_deallocatorINS7_ISH_EEEEE5resetB8ue170006IPSH_EENS_9enable_ifIXsr28_CheckArrayPointerConversionIT_EE5valueEvE4typeESQ_, symObjAddr: 0x13FB8, symBinAddr: 0x100015910, symSize: 0x78 }
  - { offsetInCU: 0x2C8B5, offset: 0x2C8B5, size: 0x8, addend: 0x0, symName: __ZNSt3__116allocator_traitsINS_9allocatorIPNS_16__hash_node_baseIPNS_11__hash_nodeINS_17__hash_value_typeINS_12basic_stringIcNS_11char_traitsIcEENS1_IcEEEEP9InstanceFEEPvEEEEEEE8allocateB8ue170006ERSI_m, symObjAddr: 0x14030, symBinAddr: 0x100015988, symSize: 0x2C }
  - { offsetInCU: 0x2C8E8, offset: 0x2C8E8, size: 0x8, addend: 0x0, symName: __ZNSt3__19allocatorIPNS_16__hash_node_baseIPNS_11__hash_nodeINS_17__hash_value_typeINS_12basic_stringIcNS_11char_traitsIcEENS0_IcEEEEP9InstanceFEEPvEEEEE8allocateB8ue170006Em, symObjAddr: 0x1405C, symBinAddr: 0x1000159B4, symSize: 0x84 }
  - { offsetInCU: 0x2C926, offset: 0x2C926, size: 0x8, addend: 0x0, symName: __ZNSt3__116allocator_traitsINS_9allocatorIPNS_16__hash_node_baseIPNS_11__hash_nodeINS_17__hash_value_typeINS_12basic_stringIcNS_11char_traitsIcEENS1_IcEEEEP9InstanceFEEPvEEEEEEE8max_sizeB8ue170006ISI_vEEmRKSI_, symObjAddr: 0x140E0, symBinAddr: 0x100015A38, symSize: 0x24 }
  - { offsetInCU: 0x2C954, offset: 0x2C954, size: 0x8, addend: 0x0, symName: __ZNKSt3__19allocatorIPNS_16__hash_node_baseIPNS_11__hash_nodeINS_17__hash_value_typeINS_12basic_stringIcNS_11char_traitsIcEENS0_IcEEEEP9InstanceFEEPvEEEEE8max_sizeB8ue170006Ev, symObjAddr: 0x14104, symBinAddr: 0x100015A5C, symSize: 0x14 }
  - { offsetInCU: 0x2C97A, offset: 0x2C97A, size: 0x8, addend: 0x0, symName: __ZNSt3__115__hash_iteratorIPNS_11__hash_nodeINS_17__hash_value_typeINS_12basic_stringIcNS_11char_traitsIcEENS_9allocatorIcEEEEP9InstanceFEEPvEEEC2B8ue170006EPNS_16__hash_node_baseISE_EE, symObjAddr: 0x14118, symBinAddr: 0x100015A70, symSize: 0x20 }
  - { offsetInCU: 0x2C9B3, offset: 0x2C9B3, size: 0x8, addend: 0x0, symName: __ZNSt3__14pairINS_15__hash_iteratorIPNS_11__hash_nodeINS_17__hash_value_typeINS_12basic_stringIcNS_11char_traitsIcEENS_9allocatorIcEEEEP9InstanceFEEPvEEEEbEC2B8ue170006ERKSG_RKb, symObjAddr: 0x14138, symBinAddr: 0x100015A90, symSize: 0x38 }
  - { offsetInCU: 0x2C9F9, offset: 0x2C9F9, size: 0x8, addend: 0x0, symName: __ZNSt3__14pairINS_19__hash_map_iteratorINS_15__hash_iteratorIPNS_11__hash_nodeINS_17__hash_value_typeINS_12basic_stringIcNS_11char_traitsIcEENS_9allocatorIcEEEEP9InstanceFEEPvEEEEEEbEC2B8ue170006ISH_bEERKNS0_IT_T0_EE, symObjAddr: 0x14170, symBinAddr: 0x100015AC8, symSize: 0x50 }
  - { offsetInCU: 0x2CA43, offset: 0x2CA43, size: 0x8, addend: 0x0, symName: __ZNSt3__119__hash_map_iteratorINS_15__hash_iteratorIPNS_11__hash_nodeINS_17__hash_value_typeINS_12basic_stringIcNS_11char_traitsIcEENS_9allocatorIcEEEEP9InstanceFEEPvEEEEEC1B8ue170006ESG_, symObjAddr: 0x141C0, symBinAddr: 0x100015B18, symSize: 0x34 }
  - { offsetInCU: 0x2CA7C, offset: 0x2CA7C, size: 0x8, addend: 0x0, symName: __ZNSt3__119__hash_map_iteratorINS_15__hash_iteratorIPNS_11__hash_nodeINS_17__hash_value_typeINS_12basic_stringIcNS_11char_traitsIcEENS_9allocatorIcEEEEP9InstanceFEEPvEEEEEC2B8ue170006ESG_, symObjAddr: 0x141F4, symBinAddr: 0x100015B4C, symSize: 0x20 }
  - { offsetInCU: 0x2CAB5, offset: 0x2CAB5, size: 0x8, addend: 0x0, symName: __ZNSt3__117__compressed_pairIPNS_11__hash_nodeINS_17__hash_value_typeINS_12basic_stringIcNS_11char_traitsIcEENS_9allocatorIcEEEEP9InstanceFEEPvEENS_26__hash_map_node_destructorINS6_ISD_EEEEE5firstB8ue170006Ev, symObjAddr: 0x14214, symBinAddr: 0x100015B6C, symSize: 0x24 }
  - { offsetInCU: 0x2CADB, offset: 0x2CADB, size: 0x8, addend: 0x0, symName: __ZNSt3__122__compressed_pair_elemIPNS_11__hash_nodeINS_17__hash_value_typeINS_12basic_stringIcNS_11char_traitsIcEENS_9allocatorIcEEEEP9InstanceFEEPvEELi0ELb0EE5__getB8ue170006Ev, symObjAddr: 0x14238, symBinAddr: 0x100015B90, symSize: 0x14 }
  - { offsetInCU: 0x2CB01, offset: 0x2CB01, size: 0x8, addend: 0x0, symName: __ZNSt3__110unique_ptrINS_11__hash_nodeINS_17__hash_value_typeINS_12basic_stringIcNS_11char_traitsIcEENS_9allocatorIcEEEEP9InstanceFEEPvEENS_26__hash_map_node_destructorINS6_ISD_EEEEED2B8ue170006Ev, symObjAddr: 0x1424C, symBinAddr: 0x100015BA4, symSize: 0x30 }
  - { offsetInCU: 0x2CB2B, offset: 0x2CB2B, size: 0x8, addend: 0x0, symName: __ZNSt3__110unique_ptrINS_11__hash_nodeINS_17__hash_value_typeINS_12basic_stringIcNS_11char_traitsIcEENS_9allocatorIcEEEEP9InstanceFEEPvEENS_26__hash_map_node_destructorINS6_ISD_EEEEE5resetB8ue170006EPSD_, symObjAddr: 0x1427C, symBinAddr: 0x100015BD4, symSize: 0x78 }
  - { offsetInCU: 0x2CB6F, offset: 0x2CB6F, size: 0x8, addend: 0x0, symName: __ZNSt3__126__hash_map_node_destructorINS_9allocatorINS_11__hash_nodeINS_17__hash_value_typeINS_12basic_stringIcNS_11char_traitsIcEENS1_IcEEEEP9InstanceFEEPvEEEEEclB8ue170006EPSD_, symObjAddr: 0x142F4, symBinAddr: 0x100015C4C, symSize: 0xE4 }
  - { offsetInCU: 0x2CBA4, offset: 0x2CBA4, size: 0x8, addend: 0x0, symName: __ZNSt3__116allocator_traitsINS_9allocatorINS_11__hash_nodeINS_17__hash_value_typeINS_12basic_stringIcNS_11char_traitsIcEENS1_IcEEEEP9InstanceFEEPvEEEEE7destroyB8ue170006ISA_vvEEvRSE_PT_, symObjAddr: 0x143D8, symBinAddr: 0x100015D30, symSize: 0x14 }
  - { offsetInCU: 0x2CBDF, offset: 0x2CBDF, size: 0x8, addend: 0x0, symName: __ZNSt3__116allocator_traitsINS_9allocatorINS_11__hash_nodeINS_17__hash_value_typeINS_12basic_stringIcNS_11char_traitsIcEENS1_IcEEEEP9InstanceFEEPvEEEEE7destroyB8ue170006IKS8_vvEEvRSE_PT_, symObjAddr: 0x143EC, symBinAddr: 0x100015D44, symSize: 0x28 }
  - { offsetInCU: 0x2CC1A, offset: 0x2CC1A, size: 0x8, addend: 0x0, symName: __ZNSt3__113unordered_mapINS_12basic_stringIcNS_11char_traitsIcEENS_9allocatorIcEEEEP9InstanceGNS_4hashIS6_EENS_8equal_toIS6_EENS4_INS_4pairIKS6_S8_EEEEE4findB8ue170006ERSE_, symObjAddr: 0x14414, symBinAddr: 0x100015D6C, symSize: 0x40 }
  - { offsetInCU: 0x2CC4F, offset: 0x2CC4F, size: 0x8, addend: 0x0, symName: __ZNSt3__113unordered_mapINS_12basic_stringIcNS_11char_traitsIcEENS_9allocatorIcEEEEP9InstanceGNS_4hashIS6_EENS_8equal_toIS6_EENS4_INS_4pairIKS6_S8_EEEEE3endB8ue170006Ev, symObjAddr: 0x14484, symBinAddr: 0x100015DDC, symSize: 0x38 }
  - { offsetInCU: 0x2CC75, offset: 0x2CC75, size: 0x8, addend: 0x0, symName: __ZNKSt3__119__hash_map_iteratorINS_15__hash_iteratorIPNS_11__hash_nodeINS_17__hash_value_typeINS_12basic_stringIcNS_11char_traitsIcEENS_9allocatorIcEEEEP9InstanceGEEPvEEEEEptB8ue170006Ev, symObjAddr: 0x144BC, symBinAddr: 0x100015E14, symSize: 0x2C }
  - { offsetInCU: 0x2CC9B, offset: 0x2CC9B, size: 0x8, addend: 0x0, symName: __ZNSt3__113unordered_mapINS_12basic_stringIcNS_11char_traitsIcEENS_9allocatorIcEEEEP9InstanceGNS_4hashIS6_EENS_8equal_toIS6_EENS4_INS_4pairIKS6_S8_EEEEE25__construct_node_with_keyERSE_, symObjAddr: 0x144E8, symBinAddr: 0x100015E40, symSize: 0x144 }
  - { offsetInCU: 0x2CCF1, offset: 0x2CCF1, size: 0x8, addend: 0x0, symName: __ZNSt3__112__hash_tableINS_17__hash_value_typeINS_12basic_stringIcNS_11char_traitsIcEENS_9allocatorIcEEEEP9InstanceGEENS_22__unordered_map_hasherIS7_SA_NS_4hashIS7_EENS_8equal_toIS7_EELb1EEENS_21__unordered_map_equalIS7_SA_SF_SD_Lb1EEENS5_ISA_EEE20__node_insert_uniqueEPNS_11__hash_nodeISA_PvEE, symObjAddr: 0x1462C, symBinAddr: 0x100015F84, symSize: 0xC4 }
  - { offsetInCU: 0x2CD46, offset: 0x2CD46, size: 0x8, addend: 0x0, symName: __ZNKSt3__110unique_ptrINS_11__hash_nodeINS_17__hash_value_typeINS_12basic_stringIcNS_11char_traitsIcEENS_9allocatorIcEEEEP9InstanceGEEPvEENS_26__hash_map_node_destructorINS6_ISD_EEEEE3getB8ue170006Ev, symObjAddr: 0x146F0, symBinAddr: 0x100016048, symSize: 0x28 }
  - { offsetInCU: 0x2CD6C, offset: 0x2CD6C, size: 0x8, addend: 0x0, symName: __ZNSt3__14pairINS_19__hash_map_iteratorINS_15__hash_iteratorIPNS_11__hash_nodeINS_17__hash_value_typeINS_12basic_stringIcNS_11char_traitsIcEENS_9allocatorIcEEEEP9InstanceGEEPvEEEEEEbEC1B8ue170006ISH_bEERKNS0_IT_T0_EE, symObjAddr: 0x14718, symBinAddr: 0x100016070, symSize: 0x34 }
  - { offsetInCU: 0x2CDB6, offset: 0x2CDB6, size: 0x8, addend: 0x0, symName: __ZNSt3__110unique_ptrINS_11__hash_nodeINS_17__hash_value_typeINS_12basic_stringIcNS_11char_traitsIcEENS_9allocatorIcEEEEP9InstanceGEEPvEENS_26__hash_map_node_destructorINS6_ISD_EEEEE7releaseB8ue170006Ev, symObjAddr: 0x1474C, symBinAddr: 0x1000160A4, symSize: 0x44 }
  - { offsetInCU: 0x2CDEB, offset: 0x2CDEB, size: 0x8, addend: 0x0, symName: __ZNSt3__110unique_ptrINS_11__hash_nodeINS_17__hash_value_typeINS_12basic_stringIcNS_11char_traitsIcEENS_9allocatorIcEEEEP9InstanceGEEPvEENS_26__hash_map_node_destructorINS6_ISD_EEEEED1B8ue170006Ev, symObjAddr: 0x14790, symBinAddr: 0x1000160E8, symSize: 0x2C }
  - { offsetInCU: 0x2CE15, offset: 0x2CE15, size: 0x8, addend: 0x0, symName: __ZNSt3__112__hash_tableINS_17__hash_value_typeINS_12basic_stringIcNS_11char_traitsIcEENS_9allocatorIcEEEEP9InstanceGEENS_22__unordered_map_hasherIS7_SA_NS_4hashIS7_EENS_8equal_toIS7_EELb1EEENS_21__unordered_map_equalIS7_SA_SF_SD_Lb1EEENS5_ISA_EEE4findIS7_EENS_15__hash_iteratorIPNS_11__hash_nodeISA_PvEEEERKT_, symObjAddr: 0x147BC, symBinAddr: 0x100016114, symSize: 0x1B0 }
  - { offsetInCU: 0x2CEA0, offset: 0x2CEA0, size: 0x8, addend: 0x0, symName: __ZNSt3__119__hash_map_iteratorINS_15__hash_iteratorIPNS_11__hash_nodeINS_17__hash_value_typeINS_12basic_stringIcNS_11char_traitsIcEENS_9allocatorIcEEEEP9InstanceGEEPvEEEEEC1B8ue170006ESG_, symObjAddr: 0x1496C, symBinAddr: 0x1000162C4, symSize: 0x34 }
  - { offsetInCU: 0x2CED9, offset: 0x2CED9, size: 0x8, addend: 0x0, symName: __ZNSt3__112__hash_tableINS_17__hash_value_typeINS_12basic_stringIcNS_11char_traitsIcEENS_9allocatorIcEEEEP9InstanceGEENS_22__unordered_map_hasherIS7_SA_NS_4hashIS7_EENS_8equal_toIS7_EELb1EEENS_21__unordered_map_equalIS7_SA_SF_SD_Lb1EEENS5_ISA_EEE13hash_functionB8ue170006Ev, symObjAddr: 0x149A0, symBinAddr: 0x1000162F8, symSize: 0x28 }
  - { offsetInCU: 0x2CEFF, offset: 0x2CEFF, size: 0x8, addend: 0x0, symName: __ZNKSt3__122__unordered_map_hasherINS_12basic_stringIcNS_11char_traitsIcEENS_9allocatorIcEEEENS_17__hash_value_typeIS6_P9InstanceGEENS_4hashIS6_EENS_8equal_toIS6_EELb1EEclB8ue170006ERKS6_, symObjAddr: 0x149C8, symBinAddr: 0x100016320, symSize: 0x2C }
  - { offsetInCU: 0x2CF34, offset: 0x2CF34, size: 0x8, addend: 0x0, symName: __ZNKSt3__112__hash_tableINS_17__hash_value_typeINS_12basic_stringIcNS_11char_traitsIcEENS_9allocatorIcEEEEP9InstanceGEENS_22__unordered_map_hasherIS7_SA_NS_4hashIS7_EENS_8equal_toIS7_EELb1EEENS_21__unordered_map_equalIS7_SA_SF_SD_Lb1EEENS5_ISA_EEE12bucket_countB8ue170006Ev, symObjAddr: 0x149F4, symBinAddr: 0x10001634C, symSize: 0x28 }
  - { offsetInCU: 0x2CF5A, offset: 0x2CF5A, size: 0x8, addend: 0x0, symName: __ZNKSt3__110unique_ptrIA_PNS_16__hash_node_baseIPNS_11__hash_nodeINS_17__hash_value_typeINS_12basic_stringIcNS_11char_traitsIcEENS_9allocatorIcEEEEP9InstanceGEEPvEEEENS_25__bucket_list_deallocatorINS7_ISH_EEEEEixB8ue170006Em, symObjAddr: 0x14A1C, symBinAddr: 0x100016374, symSize: 0x34 }
  - { offsetInCU: 0x2CF8F, offset: 0x2CF8F, size: 0x8, addend: 0x0, symName: __ZNKSt3__116__hash_node_baseIPNS_11__hash_nodeINS_17__hash_value_typeINS_12basic_stringIcNS_11char_traitsIcEENS_9allocatorIcEEEEP9InstanceGEEPvEEE6__hashB8ue170006Ev, symObjAddr: 0x14A50, symBinAddr: 0x1000163A8, symSize: 0x18 }
  - { offsetInCU: 0x2CFB5, offset: 0x2CFB5, size: 0x8, addend: 0x0, symName: __ZNSt3__112__hash_tableINS_17__hash_value_typeINS_12basic_stringIcNS_11char_traitsIcEENS_9allocatorIcEEEEP9InstanceGEENS_22__unordered_map_hasherIS7_SA_NS_4hashIS7_EENS_8equal_toIS7_EELb1EEENS_21__unordered_map_equalIS7_SA_SF_SD_Lb1EEENS5_ISA_EEE6key_eqB8ue170006Ev, symObjAddr: 0x14A68, symBinAddr: 0x1000163C0, symSize: 0x28 }
  - { offsetInCU: 0x2CFDB, offset: 0x2CFDB, size: 0x8, addend: 0x0, symName: __ZNKSt3__121__unordered_map_equalINS_12basic_stringIcNS_11char_traitsIcEENS_9allocatorIcEEEENS_17__hash_value_typeIS6_P9InstanceGEENS_8equal_toIS6_EENS_4hashIS6_EELb1EEclB8ue170006ERKSA_RKS6_, symObjAddr: 0x14A90, symBinAddr: 0x1000163E8, symSize: 0x48 }
  - { offsetInCU: 0x2D01F, offset: 0x2D01F, size: 0x8, addend: 0x0, symName: __ZNSt3__115__hash_iteratorIPNS_11__hash_nodeINS_17__hash_value_typeINS_12basic_stringIcNS_11char_traitsIcEENS_9allocatorIcEEEEP9InstanceGEEPvEEEC1B8ue170006EPNS_16__hash_node_baseISE_EE, symObjAddr: 0x14AD8, symBinAddr: 0x100016430, symSize: 0x34 }
  - { offsetInCU: 0x2D058, offset: 0x2D058, size: 0x8, addend: 0x0, symName: __ZNSt3__112__hash_tableINS_17__hash_value_typeINS_12basic_stringIcNS_11char_traitsIcEENS_9allocatorIcEEEEP9InstanceGEENS_22__unordered_map_hasherIS7_SA_NS_4hashIS7_EENS_8equal_toIS7_EELb1EEENS_21__unordered_map_equalIS7_SA_SF_SD_Lb1EEENS5_ISA_EEE3endEv, symObjAddr: 0x14B0C, symBinAddr: 0x100016464, symSize: 0x2C }
  - { offsetInCU: 0x2D080, offset: 0x2D080, size: 0x8, addend: 0x0, symName: __ZNSt3__117__compressed_pairImNS_22__unordered_map_hasherINS_12basic_stringIcNS_11char_traitsIcEENS_9allocatorIcEEEENS_17__hash_value_typeIS7_P9InstanceGEENS_4hashIS7_EENS_8equal_toIS7_EELb1EEEE6secondB8ue170006Ev, symObjAddr: 0x14B38, symBinAddr: 0x100016490, symSize: 0x24 }
  - { offsetInCU: 0x2D0A6, offset: 0x2D0A6, size: 0x8, addend: 0x0, symName: __ZNSt3__122__compressed_pair_elemINS_22__unordered_map_hasherINS_12basic_stringIcNS_11char_traitsIcEENS_9allocatorIcEEEENS_17__hash_value_typeIS7_P9InstanceGEENS_4hashIS7_EENS_8equal_toIS7_EELb1EEELi1ELb1EE5__getB8ue170006Ev, symObjAddr: 0x14B5C, symBinAddr: 0x1000164B4, symSize: 0x14 }
  - { offsetInCU: 0x2D0CC, offset: 0x2D0CC, size: 0x8, addend: 0x0, symName: __ZNKSt3__110unique_ptrIA_PNS_16__hash_node_baseIPNS_11__hash_nodeINS_17__hash_value_typeINS_12basic_stringIcNS_11char_traitsIcEENS_9allocatorIcEEEEP9InstanceGEEPvEEEENS_25__bucket_list_deallocatorINS7_ISH_EEEEE11get_deleterB8ue170006Ev, symObjAddr: 0x14B70, symBinAddr: 0x1000164C8, symSize: 0x24 }
  - { offsetInCU: 0x2D0F2, offset: 0x2D0F2, size: 0x8, addend: 0x0, symName: __ZNKSt3__125__bucket_list_deallocatorINS_9allocatorIPNS_16__hash_node_baseIPNS_11__hash_nodeINS_17__hash_value_typeINS_12basic_stringIcNS_11char_traitsIcEENS1_IcEEEEP9InstanceGEEPvEEEEEEE4sizeB8ue170006Ev, symObjAddr: 0x14B94, symBinAddr: 0x1000164EC, symSize: 0x28 }
  - { offsetInCU: 0x2D118, offset: 0x2D118, size: 0x8, addend: 0x0, symName: __ZNKSt3__117__compressed_pairIPPNS_16__hash_node_baseIPNS_11__hash_nodeINS_17__hash_value_typeINS_12basic_stringIcNS_11char_traitsIcEENS_9allocatorIcEEEEP9InstanceGEEPvEEEENS_25__bucket_list_deallocatorINS7_ISH_EEEEE6secondB8ue170006Ev, symObjAddr: 0x14BBC, symBinAddr: 0x100016514, symSize: 0x28 }
  - { offsetInCU: 0x2D13E, offset: 0x2D13E, size: 0x8, addend: 0x0, symName: __ZNKSt3__122__compressed_pair_elemINS_25__bucket_list_deallocatorINS_9allocatorIPNS_16__hash_node_baseIPNS_11__hash_nodeINS_17__hash_value_typeINS_12basic_stringIcNS_11char_traitsIcEENS2_IcEEEEP9InstanceGEEPvEEEEEEEELi1ELb0EE5__getB8ue170006Ev, symObjAddr: 0x14BE4, symBinAddr: 0x10001653C, symSize: 0x14 }
  - { offsetInCU: 0x2D164, offset: 0x2D164, size: 0x8, addend: 0x0, symName: __ZNKSt3__117__compressed_pairImNS_9allocatorIPNS_16__hash_node_baseIPNS_11__hash_nodeINS_17__hash_value_typeINS_12basic_stringIcNS_11char_traitsIcEENS1_IcEEEEP9InstanceGEEPvEEEEEEE5firstB8ue170006Ev, symObjAddr: 0x14BF8, symBinAddr: 0x100016550, symSize: 0x24 }
  - { offsetInCU: 0x2D18A, offset: 0x2D18A, size: 0x8, addend: 0x0, symName: __ZNKSt3__117__compressed_pairIPPNS_16__hash_node_baseIPNS_11__hash_nodeINS_17__hash_value_typeINS_12basic_stringIcNS_11char_traitsIcEENS_9allocatorIcEEEEP9InstanceGEEPvEEEENS_25__bucket_list_deallocatorINS7_ISH_EEEEE5firstB8ue170006Ev, symObjAddr: 0x14C1C, symBinAddr: 0x100016574, symSize: 0x24 }
  - { offsetInCU: 0x2D1B0, offset: 0x2D1B0, size: 0x8, addend: 0x0, symName: __ZNKSt3__122__compressed_pair_elemIPPNS_16__hash_node_baseIPNS_11__hash_nodeINS_17__hash_value_typeINS_12basic_stringIcNS_11char_traitsIcEENS_9allocatorIcEEEEP9InstanceGEEPvEEEELi0ELb0EE5__getB8ue170006Ev, symObjAddr: 0x14C40, symBinAddr: 0x100016598, symSize: 0x14 }
  - { offsetInCU: 0x2D1D6, offset: 0x2D1D6, size: 0x8, addend: 0x0, symName: __ZNSt3__117__compressed_pairIfNS_21__unordered_map_equalINS_12basic_stringIcNS_11char_traitsIcEENS_9allocatorIcEEEENS_17__hash_value_typeIS7_P9InstanceGEENS_8equal_toIS7_EENS_4hashIS7_EELb1EEEE6secondB8ue170006Ev, symObjAddr: 0x14C54, symBinAddr: 0x1000165AC, symSize: 0x24 }
  - { offsetInCU: 0x2D1FC, offset: 0x2D1FC, size: 0x8, addend: 0x0, symName: __ZNSt3__122__compressed_pair_elemINS_21__unordered_map_equalINS_12basic_stringIcNS_11char_traitsIcEENS_9allocatorIcEEEENS_17__hash_value_typeIS7_P9InstanceGEENS_8equal_toIS7_EENS_4hashIS7_EELb1EEELi1ELb1EE5__getB8ue170006Ev, symObjAddr: 0x14C78, symBinAddr: 0x1000165D0, symSize: 0x14 }
  - { offsetInCU: 0x2D222, offset: 0x2D222, size: 0x8, addend: 0x0, symName: __ZNKSt3__117__hash_value_typeINS_12basic_stringIcNS_11char_traitsIcEENS_9allocatorIcEEEEP9InstanceGE11__get_valueB8ue170006Ev, symObjAddr: 0x14C8C, symBinAddr: 0x1000165E4, symSize: 0x14 }
  - { offsetInCU: 0x2D248, offset: 0x2D248, size: 0x8, addend: 0x0, symName: __ZNSt3__115__hash_iteratorIPNS_11__hash_nodeINS_17__hash_value_typeINS_12basic_stringIcNS_11char_traitsIcEENS_9allocatorIcEEEEP9InstanceGEEPvEEEC2B8ue170006EPNS_16__hash_node_baseISE_EE, symObjAddr: 0x14CA0, symBinAddr: 0x1000165F8, symSize: 0x20 }
  - { offsetInCU: 0x2D281, offset: 0x2D281, size: 0x8, addend: 0x0, symName: __ZNSt3__119__hash_map_iteratorINS_15__hash_iteratorIPNS_11__hash_nodeINS_17__hash_value_typeINS_12basic_stringIcNS_11char_traitsIcEENS_9allocatorIcEEEEP9InstanceGEEPvEEEEEC2B8ue170006ESG_, symObjAddr: 0x14CC0, symBinAddr: 0x100016618, symSize: 0x20 }
  - { offsetInCU: 0x2D2BA, offset: 0x2D2BA, size: 0x8, addend: 0x0, symName: __ZNSt3__114pointer_traitsIPNS_4pairIKNS_12basic_stringIcNS_11char_traitsIcEENS_9allocatorIcEEEEP9InstanceGEEE10pointer_toB8ue170006ERSB_, symObjAddr: 0x14D44, symBinAddr: 0x10001669C, symSize: 0x14 }
  - { offsetInCU: 0x2D2DD, offset: 0x2D2DD, size: 0x8, addend: 0x0, symName: __ZNKSt3__115__hash_iteratorIPNS_11__hash_nodeINS_17__hash_value_typeINS_12basic_stringIcNS_11char_traitsIcEENS_9allocatorIcEEEEP9InstanceGEEPvEEEptB8ue170006Ev, symObjAddr: 0x14D58, symBinAddr: 0x1000166B0, symSize: 0x30 }
  - { offsetInCU: 0x2D303, offset: 0x2D303, size: 0x8, addend: 0x0, symName: __ZNSt3__114pointer_traitsIPNS_17__hash_value_typeINS_12basic_stringIcNS_11char_traitsIcEENS_9allocatorIcEEEEP9InstanceGEEE10pointer_toB8ue170006ERSA_, symObjAddr: 0x14D88, symBinAddr: 0x1000166E0, symSize: 0x14 }
  - { offsetInCU: 0x2D326, offset: 0x2D326, size: 0x8, addend: 0x0, symName: __ZNSt3__116allocator_traitsINS_9allocatorINS_11__hash_nodeINS_17__hash_value_typeINS_12basic_stringIcNS_11char_traitsIcEENS1_IcEEEEP9InstanceGEEPvEEEEE8allocateB8ue170006ERSE_m, symObjAddr: 0x14D9C, symBinAddr: 0x1000166F4, symSize: 0x2C }
  - { offsetInCU: 0x2D359, offset: 0x2D359, size: 0x8, addend: 0x0, symName: __ZNSt3__126__hash_map_node_destructorINS_9allocatorINS_11__hash_nodeINS_17__hash_value_typeINS_12basic_stringIcNS_11char_traitsIcEENS1_IcEEEEP9InstanceGEEPvEEEEEC1B8ue170006ERSE_, symObjAddr: 0x14DC8, symBinAddr: 0x100016720, symSize: 0x34 }
  - { offsetInCU: 0x2D397, offset: 0x2D397, size: 0x8, addend: 0x0, symName: __ZNSt3__110unique_ptrINS_11__hash_nodeINS_17__hash_value_typeINS_12basic_stringIcNS_11char_traitsIcEENS_9allocatorIcEEEEP9InstanceGEEPvEENS_26__hash_map_node_destructorINS6_ISD_EEEEEC1B8ue170006ILb1EvEEPSD_NS_16__dependent_typeINS_27__unique_ptr_deleter_sfinaeISG_EEXT_EE20__good_rval_ref_typeE, symObjAddr: 0x14DFC, symBinAddr: 0x100016754, symSize: 0x3C }
  - { offsetInCU: 0x2D3E8, offset: 0x2D3E8, size: 0x8, addend: 0x0, symName: __ZNSt3__116allocator_traitsINS_9allocatorINS_11__hash_nodeINS_17__hash_value_typeINS_12basic_stringIcNS_11char_traitsIcEENS1_IcEEEEP9InstanceGEEPvEEEEE9constructB8ue170006IKS8_JRSH_EvEEvRSE_PT_DpOT0_, symObjAddr: 0x14E38, symBinAddr: 0x100016790, symSize: 0x34 }
  - { offsetInCU: 0x2D43F, offset: 0x2D43F, size: 0x8, addend: 0x0, symName: __ZNKSt3__110unique_ptrINS_11__hash_nodeINS_17__hash_value_typeINS_12basic_stringIcNS_11char_traitsIcEENS_9allocatorIcEEEEP9InstanceGEEPvEENS_26__hash_map_node_destructorINS6_ISD_EEEEEptB8ue170006Ev, symObjAddr: 0x14E6C, symBinAddr: 0x1000167C4, symSize: 0x28 }
  - { offsetInCU: 0x2D465, offset: 0x2D465, size: 0x8, addend: 0x0, symName: __ZNSt3__110unique_ptrINS_11__hash_nodeINS_17__hash_value_typeINS_12basic_stringIcNS_11char_traitsIcEENS_9allocatorIcEEEEP9InstanceGEEPvEENS_26__hash_map_node_destructorINS6_ISD_EEEEE11get_deleterB8ue170006Ev, symObjAddr: 0x14E94, symBinAddr: 0x1000167EC, symSize: 0x24 }
  - { offsetInCU: 0x2D490, offset: 0x2D490, size: 0x8, addend: 0x0, symName: __ZNSt3__116allocator_traitsINS_9allocatorINS_11__hash_nodeINS_17__hash_value_typeINS_12basic_stringIcNS_11char_traitsIcEENS1_IcEEEEP9InstanceGEEPvEEEEE9constructB8ue170006ISA_JEvEEvRSE_PT_DpOT0_, symObjAddr: 0x14EB8, symBinAddr: 0x100016810, symSize: 0x2C }
  - { offsetInCU: 0x2D4D2, offset: 0x2D4D2, size: 0x8, addend: 0x0, symName: __ZNSt3__19allocatorINS_11__hash_nodeINS_17__hash_value_typeINS_12basic_stringIcNS_11char_traitsIcEENS0_IcEEEEP9InstanceGEEPvEEE8allocateB8ue170006Em, symObjAddr: 0x14EE4, symBinAddr: 0x10001683C, symSize: 0x8C }
  - { offsetInCU: 0x2D510, offset: 0x2D510, size: 0x8, addend: 0x0, symName: __ZNSt3__116allocator_traitsINS_9allocatorINS_11__hash_nodeINS_17__hash_value_typeINS_12basic_stringIcNS_11char_traitsIcEENS1_IcEEEEP9InstanceGEEPvEEEEE8max_sizeB8ue170006ISE_vEEmRKSE_, symObjAddr: 0x14F70, symBinAddr: 0x1000168C8, symSize: 0x24 }
  - { offsetInCU: 0x2D53E, offset: 0x2D53E, size: 0x8, addend: 0x0, symName: __ZNKSt3__19allocatorINS_11__hash_nodeINS_17__hash_value_typeINS_12basic_stringIcNS_11char_traitsIcEENS0_IcEEEEP9InstanceGEEPvEEE8max_sizeB8ue170006Ev, symObjAddr: 0x14F94, symBinAddr: 0x1000168EC, symSize: 0x18 }
  - { offsetInCU: 0x2D564, offset: 0x2D564, size: 0x8, addend: 0x0, symName: __ZNSt3__126__hash_map_node_destructorINS_9allocatorINS_11__hash_nodeINS_17__hash_value_typeINS_12basic_stringIcNS_11char_traitsIcEENS1_IcEEEEP9InstanceGEEPvEEEEEC2B8ue170006ERSE_, symObjAddr: 0x14FAC, symBinAddr: 0x100016904, symSize: 0x28 }
  - { offsetInCU: 0x2D59D, offset: 0x2D59D, size: 0x8, addend: 0x0, symName: __ZNSt3__110unique_ptrINS_11__hash_nodeINS_17__hash_value_typeINS_12basic_stringIcNS_11char_traitsIcEENS_9allocatorIcEEEEP9InstanceGEEPvEENS_26__hash_map_node_destructorINS6_ISD_EEEEEC2B8ue170006ILb1EvEEPSD_NS_16__dependent_typeINS_27__unique_ptr_deleter_sfinaeISG_EEXT_EE20__good_rval_ref_typeE, symObjAddr: 0x14FD4, symBinAddr: 0x10001692C, symSize: 0x5C }
  - { offsetInCU: 0x2D5EE, offset: 0x2D5EE, size: 0x8, addend: 0x0, symName: __ZNSt3__117__compressed_pairIPNS_11__hash_nodeINS_17__hash_value_typeINS_12basic_stringIcNS_11char_traitsIcEENS_9allocatorIcEEEEP9InstanceGEEPvEENS_26__hash_map_node_destructorINS6_ISD_EEEEEC1B8ue170006IRSE_SH_EEOT_OT0_, symObjAddr: 0x15030, symBinAddr: 0x100016988, symSize: 0x3C }
  - { offsetInCU: 0x2D646, offset: 0x2D646, size: 0x8, addend: 0x0, symName: __ZNSt3__117__compressed_pairIPNS_11__hash_nodeINS_17__hash_value_typeINS_12basic_stringIcNS_11char_traitsIcEENS_9allocatorIcEEEEP9InstanceGEEPvEENS_26__hash_map_node_destructorINS6_ISD_EEEEEC2B8ue170006IRSE_SH_EEOT_OT0_, symObjAddr: 0x1506C, symBinAddr: 0x1000169C4, symSize: 0x48 }
  - { offsetInCU: 0x2D69E, offset: 0x2D69E, size: 0x8, addend: 0x0, symName: __ZNSt3__122__compressed_pair_elemIPNS_11__hash_nodeINS_17__hash_value_typeINS_12basic_stringIcNS_11char_traitsIcEENS_9allocatorIcEEEEP9InstanceGEEPvEELi0ELb0EEC2B8ue170006IRSE_vEEOT_, symObjAddr: 0x150B4, symBinAddr: 0x100016A0C, symSize: 0x24 }
  - { offsetInCU: 0x2D6E0, offset: 0x2D6E0, size: 0x8, addend: 0x0, symName: __ZNSt3__122__compressed_pair_elemINS_26__hash_map_node_destructorINS_9allocatorINS_11__hash_nodeINS_17__hash_value_typeINS_12basic_stringIcNS_11char_traitsIcEENS2_IcEEEEP9InstanceGEEPvEEEEEELi1ELb0EEC2B8ue170006ISG_vEEOT_, symObjAddr: 0x150D8, symBinAddr: 0x100016A30, symSize: 0x24 }
  - { offsetInCU: 0x2D722, offset: 0x2D722, size: 0x8, addend: 0x0, symName: __ZNSt3__19allocatorINS_11__hash_nodeINS_17__hash_value_typeINS_12basic_stringIcNS_11char_traitsIcEENS0_IcEEEEP9InstanceGEEPvEEE9constructB8ue170006IKS7_JRSF_EEEvPT_DpOT0_, symObjAddr: 0x150FC, symBinAddr: 0x100016A54, symSize: 0x30 }
  - { offsetInCU: 0x2D778, offset: 0x2D778, size: 0x8, addend: 0x0, symName: __ZNKSt3__117__compressed_pairIPNS_11__hash_nodeINS_17__hash_value_typeINS_12basic_stringIcNS_11char_traitsIcEENS_9allocatorIcEEEEP9InstanceGEEPvEENS_26__hash_map_node_destructorINS6_ISD_EEEEE5firstB8ue170006Ev, symObjAddr: 0x1512C, symBinAddr: 0x100016A84, symSize: 0x24 }
  - { offsetInCU: 0x2D79E, offset: 0x2D79E, size: 0x8, addend: 0x0, symName: __ZNKSt3__122__compressed_pair_elemIPNS_11__hash_nodeINS_17__hash_value_typeINS_12basic_stringIcNS_11char_traitsIcEENS_9allocatorIcEEEEP9InstanceGEEPvEELi0ELb0EE5__getB8ue170006Ev, symObjAddr: 0x15150, symBinAddr: 0x100016AA8, symSize: 0x14 }
  - { offsetInCU: 0x2D7C4, offset: 0x2D7C4, size: 0x8, addend: 0x0, symName: __ZNSt3__117__compressed_pairIPNS_11__hash_nodeINS_17__hash_value_typeINS_12basic_stringIcNS_11char_traitsIcEENS_9allocatorIcEEEEP9InstanceGEEPvEENS_26__hash_map_node_destructorINS6_ISD_EEEEE6secondB8ue170006Ev, symObjAddr: 0x15164, symBinAddr: 0x100016ABC, symSize: 0x28 }
  - { offsetInCU: 0x2D7EA, offset: 0x2D7EA, size: 0x8, addend: 0x0, symName: __ZNSt3__122__compressed_pair_elemINS_26__hash_map_node_destructorINS_9allocatorINS_11__hash_nodeINS_17__hash_value_typeINS_12basic_stringIcNS_11char_traitsIcEENS2_IcEEEEP9InstanceGEEPvEEEEEELi1ELb0EE5__getB8ue170006Ev, symObjAddr: 0x1518C, symBinAddr: 0x100016AE4, symSize: 0x14 }
  - { offsetInCU: 0x2D810, offset: 0x2D810, size: 0x8, addend: 0x0, symName: __ZNSt3__19allocatorINS_11__hash_nodeINS_17__hash_value_typeINS_12basic_stringIcNS_11char_traitsIcEENS0_IcEEEEP9InstanceGEEPvEEE9constructB8ue170006IS9_JEEEvPT_DpOT0_, symObjAddr: 0x151A0, symBinAddr: 0x100016AF8, symSize: 0x1C }
  - { offsetInCU: 0x2D852, offset: 0x2D852, size: 0x8, addend: 0x0, symName: __ZNKSt3__122__unordered_map_hasherINS_12basic_stringIcNS_11char_traitsIcEENS_9allocatorIcEEEENS_17__hash_value_typeIS6_P9InstanceGEENS_4hashIS6_EENS_8equal_toIS6_EELb1EEclB8ue170006ERKSA_, symObjAddr: 0x151BC, symBinAddr: 0x100016B14, symSize: 0x3C }
  - { offsetInCU: 0x2D887, offset: 0x2D887, size: 0x8, addend: 0x0, symName: __ZNSt3__112__hash_tableINS_17__hash_value_typeINS_12basic_stringIcNS_11char_traitsIcEENS_9allocatorIcEEEEP9InstanceGEENS_22__unordered_map_hasherIS7_SA_NS_4hashIS7_EENS_8equal_toIS7_EELb1EEENS_21__unordered_map_equalIS7_SA_SF_SD_Lb1EEENS5_ISA_EEE28__node_insert_unique_prepareB8ue170006EmRSA_, symObjAddr: 0x151F8, symBinAddr: 0x100016B50, symSize: 0x290 }
  - { offsetInCU: 0x2D909, offset: 0x2D909, size: 0x8, addend: 0x0, symName: __ZNSt3__112__hash_tableINS_17__hash_value_typeINS_12basic_stringIcNS_11char_traitsIcEENS_9allocatorIcEEEEP9InstanceGEENS_22__unordered_map_hasherIS7_SA_NS_4hashIS7_EENS_8equal_toIS7_EELb1EEENS_21__unordered_map_equalIS7_SA_SF_SD_Lb1EEENS5_ISA_EEE28__node_insert_unique_performB8ue170006EPNS_11__hash_nodeISA_PvEE, symObjAddr: 0x15488, symBinAddr: 0x100016DE0, symSize: 0x154 }
  - { offsetInCU: 0x2D96D, offset: 0x2D96D, size: 0x8, addend: 0x0, symName: __ZNSt3__116__hash_node_baseIPNS_11__hash_nodeINS_17__hash_value_typeINS_12basic_stringIcNS_11char_traitsIcEENS_9allocatorIcEEEEP9InstanceGEEPvEEE5__ptrB8ue170006Ev, symObjAddr: 0x155DC, symBinAddr: 0x100016F34, symSize: 0x24 }
  - { offsetInCU: 0x2D993, offset: 0x2D993, size: 0x8, addend: 0x0, symName: __ZNSt3__14pairINS_15__hash_iteratorIPNS_11__hash_nodeINS_17__hash_value_typeINS_12basic_stringIcNS_11char_traitsIcEENS_9allocatorIcEEEEP9InstanceGEEPvEEEEbEC1B8ue170006ERKSG_RKb, symObjAddr: 0x15600, symBinAddr: 0x100016F58, symSize: 0x3C }
  - { offsetInCU: 0x2D9D9, offset: 0x2D9D9, size: 0x8, addend: 0x0, symName: __ZNKSt3__121__unordered_map_equalINS_12basic_stringIcNS_11char_traitsIcEENS_9allocatorIcEEEENS_17__hash_value_typeIS6_P9InstanceGEENS_8equal_toIS6_EENS_4hashIS6_EELb1EEclB8ue170006ERKSA_SH_, symObjAddr: 0x1563C, symBinAddr: 0x100016F94, symSize: 0x54 }
  - { offsetInCU: 0x2DA1D, offset: 0x2DA1D, size: 0x8, addend: 0x0, symName: __ZNSt3__112__hash_tableINS_17__hash_value_typeINS_12basic_stringIcNS_11char_traitsIcEENS_9allocatorIcEEEEP9InstanceGEENS_22__unordered_map_hasherIS7_SA_NS_4hashIS7_EENS_8equal_toIS7_EELb1EEENS_21__unordered_map_equalIS7_SA_SF_SD_Lb1EEENS5_ISA_EEE4sizeB8ue170006Ev, symObjAddr: 0x15690, symBinAddr: 0x100016FE8, symSize: 0x28 }
  - { offsetInCU: 0x2DA43, offset: 0x2DA43, size: 0x8, addend: 0x0, symName: __ZNSt3__112__hash_tableINS_17__hash_value_typeINS_12basic_stringIcNS_11char_traitsIcEENS_9allocatorIcEEEEP9InstanceGEENS_22__unordered_map_hasherIS7_SA_NS_4hashIS7_EENS_8equal_toIS7_EELb1EEENS_21__unordered_map_equalIS7_SA_SF_SD_Lb1EEENS5_ISA_EEE15max_load_factorB8ue170006Ev, symObjAddr: 0x156B8, symBinAddr: 0x100017010, symSize: 0x28 }
  - { offsetInCU: 0x2DA69, offset: 0x2DA69, size: 0x8, addend: 0x0, symName: __ZNSt3__112__hash_tableINS_17__hash_value_typeINS_12basic_stringIcNS_11char_traitsIcEENS_9allocatorIcEEEEP9InstanceGEENS_22__unordered_map_hasherIS7_SA_NS_4hashIS7_EENS_8equal_toIS7_EELb1EEENS_21__unordered_map_equalIS7_SA_SF_SD_Lb1EEENS5_ISA_EEE15__rehash_uniqueB8ue170006Em, symObjAddr: 0x156E0, symBinAddr: 0x100017038, symSize: 0x2C }
  - { offsetInCU: 0x2DA9E, offset: 0x2DA9E, size: 0x8, addend: 0x0, symName: __ZNSt3__117__compressed_pairImNS_22__unordered_map_hasherINS_12basic_stringIcNS_11char_traitsIcEENS_9allocatorIcEEEENS_17__hash_value_typeIS7_P9InstanceGEENS_4hashIS7_EENS_8equal_toIS7_EELb1EEEE5firstB8ue170006Ev, symObjAddr: 0x1570C, symBinAddr: 0x100017064, symSize: 0x24 }
  - { offsetInCU: 0x2DAC4, offset: 0x2DAC4, size: 0x8, addend: 0x0, symName: __ZNSt3__117__compressed_pairIfNS_21__unordered_map_equalINS_12basic_stringIcNS_11char_traitsIcEENS_9allocatorIcEEEENS_17__hash_value_typeIS7_P9InstanceGEENS_8equal_toIS7_EENS_4hashIS7_EELb1EEEE5firstB8ue170006Ev, symObjAddr: 0x15730, symBinAddr: 0x100017088, symSize: 0x24 }
  - { offsetInCU: 0x2DAEA, offset: 0x2DAEA, size: 0x8, addend: 0x0, symName: __ZNSt3__112__hash_tableINS_17__hash_value_typeINS_12basic_stringIcNS_11char_traitsIcEENS_9allocatorIcEEEEP9InstanceGEENS_22__unordered_map_hasherIS7_SA_NS_4hashIS7_EENS_8equal_toIS7_EELb1EEENS_21__unordered_map_equalIS7_SA_SF_SD_Lb1EEENS5_ISA_EEE8__rehashILb1EEEvm, symObjAddr: 0x15754, symBinAddr: 0x1000170AC, symSize: 0x1A8 }
  - { offsetInCU: 0x2DB3A, offset: 0x2DB3A, size: 0x8, addend: 0x0, symName: __ZNSt3__112__hash_tableINS_17__hash_value_typeINS_12basic_stringIcNS_11char_traitsIcEENS_9allocatorIcEEEEP9InstanceGEENS_22__unordered_map_hasherIS7_SA_NS_4hashIS7_EENS_8equal_toIS7_EELb1EEENS_21__unordered_map_equalIS7_SA_SF_SD_Lb1EEENS5_ISA_EEE11__do_rehashILb1EEEvm, symObjAddr: 0x158FC, symBinAddr: 0x100017254, symSize: 0x288 }
  - { offsetInCU: 0x2DC21, offset: 0x2DC21, size: 0x8, addend: 0x0, symName: __ZNSt3__110unique_ptrIA_PNS_16__hash_node_baseIPNS_11__hash_nodeINS_17__hash_value_typeINS_12basic_stringIcNS_11char_traitsIcEENS_9allocatorIcEEEEP9InstanceGEEPvEEEENS_25__bucket_list_deallocatorINS7_ISH_EEEEE11get_deleterB8ue170006Ev, symObjAddr: 0x15B84, symBinAddr: 0x1000174DC, symSize: 0x24 }
  - { offsetInCU: 0x2DC47, offset: 0x2DC47, size: 0x8, addend: 0x0, symName: __ZNSt3__110unique_ptrIA_PNS_16__hash_node_baseIPNS_11__hash_nodeINS_17__hash_value_typeINS_12basic_stringIcNS_11char_traitsIcEENS_9allocatorIcEEEEP9InstanceGEEPvEEEENS_25__bucket_list_deallocatorINS7_ISH_EEEEE5resetB8ue170006IPSH_EENS_9enable_ifIXsr28_CheckArrayPointerConversionIT_EE5valueEvE4typeESQ_, symObjAddr: 0x15BA8, symBinAddr: 0x100017500, symSize: 0x78 }
  - { offsetInCU: 0x2DC94, offset: 0x2DC94, size: 0x8, addend: 0x0, symName: __ZNSt3__116allocator_traitsINS_9allocatorIPNS_16__hash_node_baseIPNS_11__hash_nodeINS_17__hash_value_typeINS_12basic_stringIcNS_11char_traitsIcEENS1_IcEEEEP9InstanceGEEPvEEEEEEE8allocateB8ue170006ERSI_m, symObjAddr: 0x15C20, symBinAddr: 0x100017578, symSize: 0x2C }
  - { offsetInCU: 0x2DCC7, offset: 0x2DCC7, size: 0x8, addend: 0x0, symName: __ZNSt3__19allocatorIPNS_16__hash_node_baseIPNS_11__hash_nodeINS_17__hash_value_typeINS_12basic_stringIcNS_11char_traitsIcEENS0_IcEEEEP9InstanceGEEPvEEEEE8allocateB8ue170006Em, symObjAddr: 0x15C4C, symBinAddr: 0x1000175A4, symSize: 0x84 }
  - { offsetInCU: 0x2DD05, offset: 0x2DD05, size: 0x8, addend: 0x0, symName: __ZNSt3__116allocator_traitsINS_9allocatorIPNS_16__hash_node_baseIPNS_11__hash_nodeINS_17__hash_value_typeINS_12basic_stringIcNS_11char_traitsIcEENS1_IcEEEEP9InstanceGEEPvEEEEEEE8max_sizeB8ue170006ISI_vEEmRKSI_, symObjAddr: 0x15CD0, symBinAddr: 0x100017628, symSize: 0x24 }
  - { offsetInCU: 0x2DD33, offset: 0x2DD33, size: 0x8, addend: 0x0, symName: __ZNKSt3__19allocatorIPNS_16__hash_node_baseIPNS_11__hash_nodeINS_17__hash_value_typeINS_12basic_stringIcNS_11char_traitsIcEENS0_IcEEEEP9InstanceGEEPvEEEEE8max_sizeB8ue170006Ev, symObjAddr: 0x15CF4, symBinAddr: 0x10001764C, symSize: 0x14 }
  - { offsetInCU: 0x2DD59, offset: 0x2DD59, size: 0x8, addend: 0x0, symName: __ZNSt3__14pairINS_15__hash_iteratorIPNS_11__hash_nodeINS_17__hash_value_typeINS_12basic_stringIcNS_11char_traitsIcEENS_9allocatorIcEEEEP9InstanceGEEPvEEEEbEC2B8ue170006ERKSG_RKb, symObjAddr: 0x15D08, symBinAddr: 0x100017660, symSize: 0x38 }
  - { offsetInCU: 0x2DD9F, offset: 0x2DD9F, size: 0x8, addend: 0x0, symName: __ZNSt3__14pairINS_19__hash_map_iteratorINS_15__hash_iteratorIPNS_11__hash_nodeINS_17__hash_value_typeINS_12basic_stringIcNS_11char_traitsIcEENS_9allocatorIcEEEEP9InstanceGEEPvEEEEEEbEC2B8ue170006ISH_bEERKNS0_IT_T0_EE, symObjAddr: 0x15D40, symBinAddr: 0x100017698, symSize: 0x50 }
  - { offsetInCU: 0x2DDE9, offset: 0x2DDE9, size: 0x8, addend: 0x0, symName: __ZNSt3__117__compressed_pairIPNS_11__hash_nodeINS_17__hash_value_typeINS_12basic_stringIcNS_11char_traitsIcEENS_9allocatorIcEEEEP9InstanceGEEPvEENS_26__hash_map_node_destructorINS6_ISD_EEEEE5firstB8ue170006Ev, symObjAddr: 0x15D90, symBinAddr: 0x1000176E8, symSize: 0x24 }
  - { offsetInCU: 0x2DE0F, offset: 0x2DE0F, size: 0x8, addend: 0x0, symName: __ZNSt3__122__compressed_pair_elemIPNS_11__hash_nodeINS_17__hash_value_typeINS_12basic_stringIcNS_11char_traitsIcEENS_9allocatorIcEEEEP9InstanceGEEPvEELi0ELb0EE5__getB8ue170006Ev, symObjAddr: 0x15DB4, symBinAddr: 0x10001770C, symSize: 0x14 }
  - { offsetInCU: 0x2DE35, offset: 0x2DE35, size: 0x8, addend: 0x0, symName: __ZNSt3__110unique_ptrINS_11__hash_nodeINS_17__hash_value_typeINS_12basic_stringIcNS_11char_traitsIcEENS_9allocatorIcEEEEP9InstanceGEEPvEENS_26__hash_map_node_destructorINS6_ISD_EEEEED2B8ue170006Ev, symObjAddr: 0x15DC8, symBinAddr: 0x100017720, symSize: 0x30 }
  - { offsetInCU: 0x2DE5F, offset: 0x2DE5F, size: 0x8, addend: 0x0, symName: __ZNSt3__110unique_ptrINS_11__hash_nodeINS_17__hash_value_typeINS_12basic_stringIcNS_11char_traitsIcEENS_9allocatorIcEEEEP9InstanceGEEPvEENS_26__hash_map_node_destructorINS6_ISD_EEEEE5resetB8ue170006EPSD_, symObjAddr: 0x15DF8, symBinAddr: 0x100017750, symSize: 0x78 }
  - { offsetInCU: 0x2DEA3, offset: 0x2DEA3, size: 0x8, addend: 0x0, symName: __ZNSt3__126__hash_map_node_destructorINS_9allocatorINS_11__hash_nodeINS_17__hash_value_typeINS_12basic_stringIcNS_11char_traitsIcEENS1_IcEEEEP9InstanceGEEPvEEEEEclB8ue170006EPSD_, symObjAddr: 0x15E70, symBinAddr: 0x1000177C8, symSize: 0xE4 }
  - { offsetInCU: 0x2DED8, offset: 0x2DED8, size: 0x8, addend: 0x0, symName: __ZNSt3__116allocator_traitsINS_9allocatorINS_11__hash_nodeINS_17__hash_value_typeINS_12basic_stringIcNS_11char_traitsIcEENS1_IcEEEEP9InstanceGEEPvEEEEE7destroyB8ue170006ISA_vvEEvRSE_PT_, symObjAddr: 0x15F54, symBinAddr: 0x1000178AC, symSize: 0x14 }
  - { offsetInCU: 0x2DF13, offset: 0x2DF13, size: 0x8, addend: 0x0, symName: __ZNSt3__116allocator_traitsINS_9allocatorINS_11__hash_nodeINS_17__hash_value_typeINS_12basic_stringIcNS_11char_traitsIcEENS1_IcEEEEP9InstanceGEEPvEEEEE7destroyB8ue170006IKS8_vvEEvRSE_PT_, symObjAddr: 0x15F68, symBinAddr: 0x1000178C0, symSize: 0x28 }
  - { offsetInCU: 0x2DF4E, offset: 0x2DF4E, size: 0x8, addend: 0x0, symName: __ZNSt3__114basic_iostreamIcNS_11char_traitsIcEEEC2B8ue170006EPNS_15basic_streambufIcS2_EE, symObjAddr: 0x15F90, symBinAddr: 0x1000178E8, symSize: 0xB4 }
  - { offsetInCU: 0x2DF94, offset: 0x2DF94, size: 0x8, addend: 0x0, symName: __ZNSt3__113basic_ostreamIcNS_11char_traitsIcEEEC2B8ue170006Ev, symObjAddr: 0x16044, symBinAddr: 0x10001799C, symSize: 0x34 }
  - { offsetInCU: 0x2DFCB, offset: 0x2DFCB, size: 0x8, addend: 0x0, symName: __ZNSt3__111char_traitsIcE2eqEcc, symObjAddr: 0x16078, symBinAddr: 0x1000179D0, symSize: 0x28 }
  - { offsetInCU: 0x2DFFC, offset: 0x2DFFC, size: 0x8, addend: 0x0, symName: __ZNSt3__112__hash_tableINS_17__hash_value_typeINS_12basic_stringIcNS_11char_traitsIcEENS_9allocatorIcEEEEP9InstanceFEENS_22__unordered_map_hasherIS7_SA_NS_4hashIS7_EENS_8equal_toIS7_EELb1EEENS_21__unordered_map_equalIS7_SA_SF_SD_Lb1EEENS5_ISA_EEE4findIS7_EENS_15__hash_iteratorIPNS_11__hash_nodeISA_PvEEEERKT_, symObjAddr: 0x160A0, symBinAddr: 0x1000179F8, symSize: 0x1B0 }
  - { offsetInCU: 0x2E087, offset: 0x2E087, size: 0x8, addend: 0x0, symName: __ZNKSt3__122__unordered_map_hasherINS_12basic_stringIcNS_11char_traitsIcEENS_9allocatorIcEEEENS_17__hash_value_typeIS6_P9InstanceFEENS_4hashIS6_EENS_8equal_toIS6_EELb1EEclB8ue170006ERKS6_, symObjAddr: 0x16250, symBinAddr: 0x100017BA8, symSize: 0x2C }
  - { offsetInCU: 0x2E0BC, offset: 0x2E0BC, size: 0x8, addend: 0x0, symName: __ZNKSt3__121__unordered_map_equalINS_12basic_stringIcNS_11char_traitsIcEENS_9allocatorIcEEEENS_17__hash_value_typeIS6_P9InstanceFEENS_8equal_toIS6_EENS_4hashIS6_EELb1EEclB8ue170006ERKSA_RKS6_, symObjAddr: 0x1627C, symBinAddr: 0x100017BD4, symSize: 0x48 }
  - { offsetInCU: 0x2E100, offset: 0x2E100, size: 0x8, addend: 0x0, symName: __ZNSt3__112__hash_tableINS_17__hash_value_typeINS_12basic_stringIcNS_11char_traitsIcEENS_9allocatorIcEEEEP9InstanceFEENS_22__unordered_map_hasherIS7_SA_NS_4hashIS7_EENS_8equal_toIS7_EELb1EEENS_21__unordered_map_equalIS7_SA_SF_SD_Lb1EEENS5_ISA_EEE3endEv, symObjAddr: 0x162C4, symBinAddr: 0x100017C1C, symSize: 0x2C }
  - { offsetInCU: 0x2E128, offset: 0x2E128, size: 0x8, addend: 0x0, symName: __ZNSt3__112__hash_tableINS_17__hash_value_typeINS_12basic_stringIcNS_11char_traitsIcEENS_9allocatorIcEEEEP3PinEENS_22__unordered_map_hasherIS7_SA_NS_4hashIS7_EENS_8equal_toIS7_EELb1EEENS_21__unordered_map_equalIS7_SA_SF_SD_Lb1EEENS5_ISA_EEE4findIS7_EENS_15__hash_iteratorIPNS_11__hash_nodeISA_PvEEEERKT_, symObjAddr: 0x16354, symBinAddr: 0x100017CAC, symSize: 0x1B0 }
  - { offsetInCU: 0x2E1B3, offset: 0x2E1B3, size: 0x8, addend: 0x0, symName: __ZNSt3__113unordered_mapINS_12basic_stringIcNS_11char_traitsIcEENS_9allocatorIcEEEEP3NetNS_4hashIS6_EENS_8equal_toIS6_EENS4_INS_4pairIKS6_S8_EEEEE4findB8ue170006ERSE_, symObjAddr: 0x16504, symBinAddr: 0x100017E5C, symSize: 0x40 }
  - { offsetInCU: 0x2E1E8, offset: 0x2E1E8, size: 0x8, addend: 0x0, symName: __ZNSt3__113unordered_mapINS_12basic_stringIcNS_11char_traitsIcEENS_9allocatorIcEEEEP3NetNS_4hashIS6_EENS_8equal_toIS6_EENS4_INS_4pairIKS6_S8_EEEEE3endB8ue170006Ev, symObjAddr: 0x16574, symBinAddr: 0x100017ECC, symSize: 0x38 }
  - { offsetInCU: 0x2E20E, offset: 0x2E20E, size: 0x8, addend: 0x0, symName: __ZNKSt3__119__hash_map_iteratorINS_15__hash_iteratorIPNS_11__hash_nodeINS_17__hash_value_typeINS_12basic_stringIcNS_11char_traitsIcEENS_9allocatorIcEEEEP3NetEEPvEEEEEptB8ue170006Ev, symObjAddr: 0x165AC, symBinAddr: 0x100017F04, symSize: 0x2C }
  - { offsetInCU: 0x2E234, offset: 0x2E234, size: 0x8, addend: 0x0, symName: __ZNSt3__113unordered_mapINS_12basic_stringIcNS_11char_traitsIcEENS_9allocatorIcEEEEP3NetNS_4hashIS6_EENS_8equal_toIS6_EENS4_INS_4pairIKS6_S8_EEEEE25__construct_node_with_keyERSE_, symObjAddr: 0x165D8, symBinAddr: 0x100017F30, symSize: 0x144 }
  - { offsetInCU: 0x2E28A, offset: 0x2E28A, size: 0x8, addend: 0x0, symName: __ZNSt3__112__hash_tableINS_17__hash_value_typeINS_12basic_stringIcNS_11char_traitsIcEENS_9allocatorIcEEEEP3NetEENS_22__unordered_map_hasherIS7_SA_NS_4hashIS7_EENS_8equal_toIS7_EELb1EEENS_21__unordered_map_equalIS7_SA_SF_SD_Lb1EEENS5_ISA_EEE20__node_insert_uniqueEPNS_11__hash_nodeISA_PvEE, symObjAddr: 0x1671C, symBinAddr: 0x100018074, symSize: 0xC4 }
  - { offsetInCU: 0x2E2DF, offset: 0x2E2DF, size: 0x8, addend: 0x0, symName: __ZNKSt3__110unique_ptrINS_11__hash_nodeINS_17__hash_value_typeINS_12basic_stringIcNS_11char_traitsIcEENS_9allocatorIcEEEEP3NetEEPvEENS_26__hash_map_node_destructorINS6_ISD_EEEEE3getB8ue170006Ev, symObjAddr: 0x167E0, symBinAddr: 0x100018138, symSize: 0x28 }
  - { offsetInCU: 0x2E305, offset: 0x2E305, size: 0x8, addend: 0x0, symName: __ZNSt3__14pairINS_19__hash_map_iteratorINS_15__hash_iteratorIPNS_11__hash_nodeINS_17__hash_value_typeINS_12basic_stringIcNS_11char_traitsIcEENS_9allocatorIcEEEEP3NetEEPvEEEEEEbEC1B8ue170006ISH_bEERKNS0_IT_T0_EE, symObjAddr: 0x16808, symBinAddr: 0x100018160, symSize: 0x34 }
  - { offsetInCU: 0x2E34F, offset: 0x2E34F, size: 0x8, addend: 0x0, symName: __ZNSt3__110unique_ptrINS_11__hash_nodeINS_17__hash_value_typeINS_12basic_stringIcNS_11char_traitsIcEENS_9allocatorIcEEEEP3NetEEPvEENS_26__hash_map_node_destructorINS6_ISD_EEEEE7releaseB8ue170006Ev, symObjAddr: 0x1683C, symBinAddr: 0x100018194, symSize: 0x44 }
  - { offsetInCU: 0x2E384, offset: 0x2E384, size: 0x8, addend: 0x0, symName: __ZNSt3__110unique_ptrINS_11__hash_nodeINS_17__hash_value_typeINS_12basic_stringIcNS_11char_traitsIcEENS_9allocatorIcEEEEP3NetEEPvEENS_26__hash_map_node_destructorINS6_ISD_EEEEED1B8ue170006Ev, symObjAddr: 0x16880, symBinAddr: 0x1000181D8, symSize: 0x2C }
  - { offsetInCU: 0x2E3AE, offset: 0x2E3AE, size: 0x8, addend: 0x0, symName: __ZNSt3__112__hash_tableINS_17__hash_value_typeINS_12basic_stringIcNS_11char_traitsIcEENS_9allocatorIcEEEEP3NetEENS_22__unordered_map_hasherIS7_SA_NS_4hashIS7_EENS_8equal_toIS7_EELb1EEENS_21__unordered_map_equalIS7_SA_SF_SD_Lb1EEENS5_ISA_EEE4findIS7_EENS_15__hash_iteratorIPNS_11__hash_nodeISA_PvEEEERKT_, symObjAddr: 0x168AC, symBinAddr: 0x100018204, symSize: 0x1B0 }
  - { offsetInCU: 0x2E439, offset: 0x2E439, size: 0x8, addend: 0x0, symName: __ZNSt3__119__hash_map_iteratorINS_15__hash_iteratorIPNS_11__hash_nodeINS_17__hash_value_typeINS_12basic_stringIcNS_11char_traitsIcEENS_9allocatorIcEEEEP3NetEEPvEEEEEC1B8ue170006ESG_, symObjAddr: 0x16A5C, symBinAddr: 0x1000183B4, symSize: 0x34 }
  - { offsetInCU: 0x2E472, offset: 0x2E472, size: 0x8, addend: 0x0, symName: __ZNSt3__112__hash_tableINS_17__hash_value_typeINS_12basic_stringIcNS_11char_traitsIcEENS_9allocatorIcEEEEP3NetEENS_22__unordered_map_hasherIS7_SA_NS_4hashIS7_EENS_8equal_toIS7_EELb1EEENS_21__unordered_map_equalIS7_SA_SF_SD_Lb1EEENS5_ISA_EEE13hash_functionB8ue170006Ev, symObjAddr: 0x16A90, symBinAddr: 0x1000183E8, symSize: 0x28 }
  - { offsetInCU: 0x2E498, offset: 0x2E498, size: 0x8, addend: 0x0, symName: __ZNKSt3__122__unordered_map_hasherINS_12basic_stringIcNS_11char_traitsIcEENS_9allocatorIcEEEENS_17__hash_value_typeIS6_P3NetEENS_4hashIS6_EENS_8equal_toIS6_EELb1EEclB8ue170006ERKS6_, symObjAddr: 0x16AB8, symBinAddr: 0x100018410, symSize: 0x2C }
  - { offsetInCU: 0x2E4CD, offset: 0x2E4CD, size: 0x8, addend: 0x0, symName: __ZNKSt3__112__hash_tableINS_17__hash_value_typeINS_12basic_stringIcNS_11char_traitsIcEENS_9allocatorIcEEEEP3NetEENS_22__unordered_map_hasherIS7_SA_NS_4hashIS7_EENS_8equal_toIS7_EELb1EEENS_21__unordered_map_equalIS7_SA_SF_SD_Lb1EEENS5_ISA_EEE12bucket_countB8ue170006Ev, symObjAddr: 0x16AE4, symBinAddr: 0x10001843C, symSize: 0x28 }
  - { offsetInCU: 0x2E4F3, offset: 0x2E4F3, size: 0x8, addend: 0x0, symName: __ZNKSt3__110unique_ptrIA_PNS_16__hash_node_baseIPNS_11__hash_nodeINS_17__hash_value_typeINS_12basic_stringIcNS_11char_traitsIcEENS_9allocatorIcEEEEP3NetEEPvEEEENS_25__bucket_list_deallocatorINS7_ISH_EEEEEixB8ue170006Em, symObjAddr: 0x16B0C, symBinAddr: 0x100018464, symSize: 0x34 }
  - { offsetInCU: 0x2E528, offset: 0x2E528, size: 0x8, addend: 0x0, symName: __ZNKSt3__116__hash_node_baseIPNS_11__hash_nodeINS_17__hash_value_typeINS_12basic_stringIcNS_11char_traitsIcEENS_9allocatorIcEEEEP3NetEEPvEEE6__hashB8ue170006Ev, symObjAddr: 0x16B40, symBinAddr: 0x100018498, symSize: 0x18 }
  - { offsetInCU: 0x2E54E, offset: 0x2E54E, size: 0x8, addend: 0x0, symName: __ZNSt3__112__hash_tableINS_17__hash_value_typeINS_12basic_stringIcNS_11char_traitsIcEENS_9allocatorIcEEEEP3NetEENS_22__unordered_map_hasherIS7_SA_NS_4hashIS7_EENS_8equal_toIS7_EELb1EEENS_21__unordered_map_equalIS7_SA_SF_SD_Lb1EEENS5_ISA_EEE6key_eqB8ue170006Ev, symObjAddr: 0x16B58, symBinAddr: 0x1000184B0, symSize: 0x28 }
  - { offsetInCU: 0x2E574, offset: 0x2E574, size: 0x8, addend: 0x0, symName: __ZNKSt3__121__unordered_map_equalINS_12basic_stringIcNS_11char_traitsIcEENS_9allocatorIcEEEENS_17__hash_value_typeIS6_P3NetEENS_8equal_toIS6_EENS_4hashIS6_EELb1EEclB8ue170006ERKSA_RKS6_, symObjAddr: 0x16B80, symBinAddr: 0x1000184D8, symSize: 0x48 }
  - { offsetInCU: 0x2E5B8, offset: 0x2E5B8, size: 0x8, addend: 0x0, symName: __ZNSt3__115__hash_iteratorIPNS_11__hash_nodeINS_17__hash_value_typeINS_12basic_stringIcNS_11char_traitsIcEENS_9allocatorIcEEEEP3NetEEPvEEEC1B8ue170006EPNS_16__hash_node_baseISE_EE, symObjAddr: 0x16BC8, symBinAddr: 0x100018520, symSize: 0x34 }
  - { offsetInCU: 0x2E5F1, offset: 0x2E5F1, size: 0x8, addend: 0x0, symName: __ZNSt3__112__hash_tableINS_17__hash_value_typeINS_12basic_stringIcNS_11char_traitsIcEENS_9allocatorIcEEEEP3NetEENS_22__unordered_map_hasherIS7_SA_NS_4hashIS7_EENS_8equal_toIS7_EELb1EEENS_21__unordered_map_equalIS7_SA_SF_SD_Lb1EEENS5_ISA_EEE3endEv, symObjAddr: 0x16BFC, symBinAddr: 0x100018554, symSize: 0x2C }
  - { offsetInCU: 0x2E619, offset: 0x2E619, size: 0x8, addend: 0x0, symName: __ZNSt3__117__compressed_pairImNS_22__unordered_map_hasherINS_12basic_stringIcNS_11char_traitsIcEENS_9allocatorIcEEEENS_17__hash_value_typeIS7_P3NetEENS_4hashIS7_EENS_8equal_toIS7_EELb1EEEE6secondB8ue170006Ev, symObjAddr: 0x16C28, symBinAddr: 0x100018580, symSize: 0x24 }
  - { offsetInCU: 0x2E63F, offset: 0x2E63F, size: 0x8, addend: 0x0, symName: __ZNSt3__122__compressed_pair_elemINS_22__unordered_map_hasherINS_12basic_stringIcNS_11char_traitsIcEENS_9allocatorIcEEEENS_17__hash_value_typeIS7_P3NetEENS_4hashIS7_EENS_8equal_toIS7_EELb1EEELi1ELb1EE5__getB8ue170006Ev, symObjAddr: 0x16C4C, symBinAddr: 0x1000185A4, symSize: 0x14 }
  - { offsetInCU: 0x2E665, offset: 0x2E665, size: 0x8, addend: 0x0, symName: __ZNKSt3__110unique_ptrIA_PNS_16__hash_node_baseIPNS_11__hash_nodeINS_17__hash_value_typeINS_12basic_stringIcNS_11char_traitsIcEENS_9allocatorIcEEEEP3NetEEPvEEEENS_25__bucket_list_deallocatorINS7_ISH_EEEEE11get_deleterB8ue170006Ev, symObjAddr: 0x16C60, symBinAddr: 0x1000185B8, symSize: 0x24 }
  - { offsetInCU: 0x2E68B, offset: 0x2E68B, size: 0x8, addend: 0x0, symName: __ZNKSt3__125__bucket_list_deallocatorINS_9allocatorIPNS_16__hash_node_baseIPNS_11__hash_nodeINS_17__hash_value_typeINS_12basic_stringIcNS_11char_traitsIcEENS1_IcEEEEP3NetEEPvEEEEEEE4sizeB8ue170006Ev, symObjAddr: 0x16C84, symBinAddr: 0x1000185DC, symSize: 0x28 }
  - { offsetInCU: 0x2E6B1, offset: 0x2E6B1, size: 0x8, addend: 0x0, symName: __ZNKSt3__117__compressed_pairIPPNS_16__hash_node_baseIPNS_11__hash_nodeINS_17__hash_value_typeINS_12basic_stringIcNS_11char_traitsIcEENS_9allocatorIcEEEEP3NetEEPvEEEENS_25__bucket_list_deallocatorINS7_ISH_EEEEE6secondB8ue170006Ev, symObjAddr: 0x16CAC, symBinAddr: 0x100018604, symSize: 0x28 }
  - { offsetInCU: 0x2E6D7, offset: 0x2E6D7, size: 0x8, addend: 0x0, symName: __ZNKSt3__122__compressed_pair_elemINS_25__bucket_list_deallocatorINS_9allocatorIPNS_16__hash_node_baseIPNS_11__hash_nodeINS_17__hash_value_typeINS_12basic_stringIcNS_11char_traitsIcEENS2_IcEEEEP3NetEEPvEEEEEEEELi1ELb0EE5__getB8ue170006Ev, symObjAddr: 0x16CD4, symBinAddr: 0x10001862C, symSize: 0x14 }
  - { offsetInCU: 0x2E6FD, offset: 0x2E6FD, size: 0x8, addend: 0x0, symName: __ZNKSt3__117__compressed_pairImNS_9allocatorIPNS_16__hash_node_baseIPNS_11__hash_nodeINS_17__hash_value_typeINS_12basic_stringIcNS_11char_traitsIcEENS1_IcEEEEP3NetEEPvEEEEEEE5firstB8ue170006Ev, symObjAddr: 0x16CE8, symBinAddr: 0x100018640, symSize: 0x24 }
  - { offsetInCU: 0x2E723, offset: 0x2E723, size: 0x8, addend: 0x0, symName: __ZNKSt3__117__compressed_pairIPPNS_16__hash_node_baseIPNS_11__hash_nodeINS_17__hash_value_typeINS_12basic_stringIcNS_11char_traitsIcEENS_9allocatorIcEEEEP3NetEEPvEEEENS_25__bucket_list_deallocatorINS7_ISH_EEEEE5firstB8ue170006Ev, symObjAddr: 0x16D0C, symBinAddr: 0x100018664, symSize: 0x24 }
  - { offsetInCU: 0x2E749, offset: 0x2E749, size: 0x8, addend: 0x0, symName: __ZNKSt3__122__compressed_pair_elemIPPNS_16__hash_node_baseIPNS_11__hash_nodeINS_17__hash_value_typeINS_12basic_stringIcNS_11char_traitsIcEENS_9allocatorIcEEEEP3NetEEPvEEEELi0ELb0EE5__getB8ue170006Ev, symObjAddr: 0x16D30, symBinAddr: 0x100018688, symSize: 0x14 }
  - { offsetInCU: 0x2E76F, offset: 0x2E76F, size: 0x8, addend: 0x0, symName: __ZNSt3__117__compressed_pairIfNS_21__unordered_map_equalINS_12basic_stringIcNS_11char_traitsIcEENS_9allocatorIcEEEENS_17__hash_value_typeIS7_P3NetEENS_8equal_toIS7_EENS_4hashIS7_EELb1EEEE6secondB8ue170006Ev, symObjAddr: 0x16D44, symBinAddr: 0x10001869C, symSize: 0x24 }
  - { offsetInCU: 0x2E795, offset: 0x2E795, size: 0x8, addend: 0x0, symName: __ZNSt3__122__compressed_pair_elemINS_21__unordered_map_equalINS_12basic_stringIcNS_11char_traitsIcEENS_9allocatorIcEEEENS_17__hash_value_typeIS7_P3NetEENS_8equal_toIS7_EENS_4hashIS7_EELb1EEELi1ELb1EE5__getB8ue170006Ev, symObjAddr: 0x16D68, symBinAddr: 0x1000186C0, symSize: 0x14 }
  - { offsetInCU: 0x2E7BB, offset: 0x2E7BB, size: 0x8, addend: 0x0, symName: __ZNKSt3__117__hash_value_typeINS_12basic_stringIcNS_11char_traitsIcEENS_9allocatorIcEEEEP3NetE11__get_valueB8ue170006Ev, symObjAddr: 0x16D7C, symBinAddr: 0x1000186D4, symSize: 0x14 }
  - { offsetInCU: 0x2E7E1, offset: 0x2E7E1, size: 0x8, addend: 0x0, symName: __ZNSt3__115__hash_iteratorIPNS_11__hash_nodeINS_17__hash_value_typeINS_12basic_stringIcNS_11char_traitsIcEENS_9allocatorIcEEEEP3NetEEPvEEEC2B8ue170006EPNS_16__hash_node_baseISE_EE, symObjAddr: 0x16D90, symBinAddr: 0x1000186E8, symSize: 0x20 }
  - { offsetInCU: 0x2E81A, offset: 0x2E81A, size: 0x8, addend: 0x0, symName: __ZNSt3__119__hash_map_iteratorINS_15__hash_iteratorIPNS_11__hash_nodeINS_17__hash_value_typeINS_12basic_stringIcNS_11char_traitsIcEENS_9allocatorIcEEEEP3NetEEPvEEEEEC2B8ue170006ESG_, symObjAddr: 0x16DB0, symBinAddr: 0x100018708, symSize: 0x20 }
  - { offsetInCU: 0x2E853, offset: 0x2E853, size: 0x8, addend: 0x0, symName: __ZNSt3__114pointer_traitsIPNS_4pairIKNS_12basic_stringIcNS_11char_traitsIcEENS_9allocatorIcEEEEP3NetEEE10pointer_toB8ue170006ERSB_, symObjAddr: 0x16E34, symBinAddr: 0x10001878C, symSize: 0x14 }
  - { offsetInCU: 0x2E876, offset: 0x2E876, size: 0x8, addend: 0x0, symName: __ZNKSt3__115__hash_iteratorIPNS_11__hash_nodeINS_17__hash_value_typeINS_12basic_stringIcNS_11char_traitsIcEENS_9allocatorIcEEEEP3NetEEPvEEEptB8ue170006Ev, symObjAddr: 0x16E48, symBinAddr: 0x1000187A0, symSize: 0x30 }
  - { offsetInCU: 0x2E89C, offset: 0x2E89C, size: 0x8, addend: 0x0, symName: __ZNSt3__114pointer_traitsIPNS_17__hash_value_typeINS_12basic_stringIcNS_11char_traitsIcEENS_9allocatorIcEEEEP3NetEEE10pointer_toB8ue170006ERSA_, symObjAddr: 0x16E78, symBinAddr: 0x1000187D0, symSize: 0x14 }
  - { offsetInCU: 0x2E8BF, offset: 0x2E8BF, size: 0x8, addend: 0x0, symName: __ZNSt3__116allocator_traitsINS_9allocatorINS_11__hash_nodeINS_17__hash_value_typeINS_12basic_stringIcNS_11char_traitsIcEENS1_IcEEEEP3NetEEPvEEEEE8allocateB8ue170006ERSE_m, symObjAddr: 0x16E8C, symBinAddr: 0x1000187E4, symSize: 0x2C }
  - { offsetInCU: 0x2E8F2, offset: 0x2E8F2, size: 0x8, addend: 0x0, symName: __ZNSt3__126__hash_map_node_destructorINS_9allocatorINS_11__hash_nodeINS_17__hash_value_typeINS_12basic_stringIcNS_11char_traitsIcEENS1_IcEEEEP3NetEEPvEEEEEC1B8ue170006ERSE_, symObjAddr: 0x16EB8, symBinAddr: 0x100018810, symSize: 0x34 }
  - { offsetInCU: 0x2E930, offset: 0x2E930, size: 0x8, addend: 0x0, symName: __ZNSt3__110unique_ptrINS_11__hash_nodeINS_17__hash_value_typeINS_12basic_stringIcNS_11char_traitsIcEENS_9allocatorIcEEEEP3NetEEPvEENS_26__hash_map_node_destructorINS6_ISD_EEEEEC1B8ue170006ILb1EvEEPSD_NS_16__dependent_typeINS_27__unique_ptr_deleter_sfinaeISG_EEXT_EE20__good_rval_ref_typeE, symObjAddr: 0x16EEC, symBinAddr: 0x100018844, symSize: 0x3C }
  - { offsetInCU: 0x2E981, offset: 0x2E981, size: 0x8, addend: 0x0, symName: __ZNSt3__116allocator_traitsINS_9allocatorINS_11__hash_nodeINS_17__hash_value_typeINS_12basic_stringIcNS_11char_traitsIcEENS1_IcEEEEP3NetEEPvEEEEE9constructB8ue170006IKS8_JRSH_EvEEvRSE_PT_DpOT0_, symObjAddr: 0x16F28, symBinAddr: 0x100018880, symSize: 0x34 }
  - { offsetInCU: 0x2E9D8, offset: 0x2E9D8, size: 0x8, addend: 0x0, symName: __ZNKSt3__110unique_ptrINS_11__hash_nodeINS_17__hash_value_typeINS_12basic_stringIcNS_11char_traitsIcEENS_9allocatorIcEEEEP3NetEEPvEENS_26__hash_map_node_destructorINS6_ISD_EEEEEptB8ue170006Ev, symObjAddr: 0x16F5C, symBinAddr: 0x1000188B4, symSize: 0x28 }
  - { offsetInCU: 0x2E9FE, offset: 0x2E9FE, size: 0x8, addend: 0x0, symName: __ZNSt3__110unique_ptrINS_11__hash_nodeINS_17__hash_value_typeINS_12basic_stringIcNS_11char_traitsIcEENS_9allocatorIcEEEEP3NetEEPvEENS_26__hash_map_node_destructorINS6_ISD_EEEEE11get_deleterB8ue170006Ev, symObjAddr: 0x16F84, symBinAddr: 0x1000188DC, symSize: 0x24 }
  - { offsetInCU: 0x2EA29, offset: 0x2EA29, size: 0x8, addend: 0x0, symName: __ZNSt3__116allocator_traitsINS_9allocatorINS_11__hash_nodeINS_17__hash_value_typeINS_12basic_stringIcNS_11char_traitsIcEENS1_IcEEEEP3NetEEPvEEEEE9constructB8ue170006ISA_JEvEEvRSE_PT_DpOT0_, symObjAddr: 0x16FA8, symBinAddr: 0x100018900, symSize: 0x2C }
  - { offsetInCU: 0x2EA6B, offset: 0x2EA6B, size: 0x8, addend: 0x0, symName: __ZNSt3__19allocatorINS_11__hash_nodeINS_17__hash_value_typeINS_12basic_stringIcNS_11char_traitsIcEENS0_IcEEEEP3NetEEPvEEE8allocateB8ue170006Em, symObjAddr: 0x16FD4, symBinAddr: 0x10001892C, symSize: 0x8C }
  - { offsetInCU: 0x2EAA9, offset: 0x2EAA9, size: 0x8, addend: 0x0, symName: __ZNSt3__116allocator_traitsINS_9allocatorINS_11__hash_nodeINS_17__hash_value_typeINS_12basic_stringIcNS_11char_traitsIcEENS1_IcEEEEP3NetEEPvEEEEE8max_sizeB8ue170006ISE_vEEmRKSE_, symObjAddr: 0x17060, symBinAddr: 0x1000189B8, symSize: 0x24 }
  - { offsetInCU: 0x2EAD7, offset: 0x2EAD7, size: 0x8, addend: 0x0, symName: __ZNKSt3__19allocatorINS_11__hash_nodeINS_17__hash_value_typeINS_12basic_stringIcNS_11char_traitsIcEENS0_IcEEEEP3NetEEPvEEE8max_sizeB8ue170006Ev, symObjAddr: 0x17084, symBinAddr: 0x1000189DC, symSize: 0x18 }
  - { offsetInCU: 0x2EAFD, offset: 0x2EAFD, size: 0x8, addend: 0x0, symName: __ZNSt3__126__hash_map_node_destructorINS_9allocatorINS_11__hash_nodeINS_17__hash_value_typeINS_12basic_stringIcNS_11char_traitsIcEENS1_IcEEEEP3NetEEPvEEEEEC2B8ue170006ERSE_, symObjAddr: 0x1709C, symBinAddr: 0x1000189F4, symSize: 0x28 }
  - { offsetInCU: 0x2EB36, offset: 0x2EB36, size: 0x8, addend: 0x0, symName: __ZNSt3__110unique_ptrINS_11__hash_nodeINS_17__hash_value_typeINS_12basic_stringIcNS_11char_traitsIcEENS_9allocatorIcEEEEP3NetEEPvEENS_26__hash_map_node_destructorINS6_ISD_EEEEEC2B8ue170006ILb1EvEEPSD_NS_16__dependent_typeINS_27__unique_ptr_deleter_sfinaeISG_EEXT_EE20__good_rval_ref_typeE, symObjAddr: 0x170C4, symBinAddr: 0x100018A1C, symSize: 0x5C }
  - { offsetInCU: 0x2EB87, offset: 0x2EB87, size: 0x8, addend: 0x0, symName: __ZNSt3__117__compressed_pairIPNS_11__hash_nodeINS_17__hash_value_typeINS_12basic_stringIcNS_11char_traitsIcEENS_9allocatorIcEEEEP3NetEEPvEENS_26__hash_map_node_destructorINS6_ISD_EEEEEC1B8ue170006IRSE_SH_EEOT_OT0_, symObjAddr: 0x17120, symBinAddr: 0x100018A78, symSize: 0x3C }
  - { offsetInCU: 0x2EBDF, offset: 0x2EBDF, size: 0x8, addend: 0x0, symName: __ZNSt3__117__compressed_pairIPNS_11__hash_nodeINS_17__hash_value_typeINS_12basic_stringIcNS_11char_traitsIcEENS_9allocatorIcEEEEP3NetEEPvEENS_26__hash_map_node_destructorINS6_ISD_EEEEEC2B8ue170006IRSE_SH_EEOT_OT0_, symObjAddr: 0x1715C, symBinAddr: 0x100018AB4, symSize: 0x48 }
  - { offsetInCU: 0x2EC37, offset: 0x2EC37, size: 0x8, addend: 0x0, symName: __ZNSt3__122__compressed_pair_elemIPNS_11__hash_nodeINS_17__hash_value_typeINS_12basic_stringIcNS_11char_traitsIcEENS_9allocatorIcEEEEP3NetEEPvEELi0ELb0EEC2B8ue170006IRSE_vEEOT_, symObjAddr: 0x171A4, symBinAddr: 0x100018AFC, symSize: 0x24 }
  - { offsetInCU: 0x2EC79, offset: 0x2EC79, size: 0x8, addend: 0x0, symName: __ZNSt3__122__compressed_pair_elemINS_26__hash_map_node_destructorINS_9allocatorINS_11__hash_nodeINS_17__hash_value_typeINS_12basic_stringIcNS_11char_traitsIcEENS2_IcEEEEP3NetEEPvEEEEEELi1ELb0EEC2B8ue170006ISG_vEEOT_, symObjAddr: 0x171C8, symBinAddr: 0x100018B20, symSize: 0x24 }
  - { offsetInCU: 0x2ECBB, offset: 0x2ECBB, size: 0x8, addend: 0x0, symName: __ZNSt3__19allocatorINS_11__hash_nodeINS_17__hash_value_typeINS_12basic_stringIcNS_11char_traitsIcEENS0_IcEEEEP3NetEEPvEEE9constructB8ue170006IKS7_JRSF_EEEvPT_DpOT0_, symObjAddr: 0x171EC, symBinAddr: 0x100018B44, symSize: 0x30 }
  - { offsetInCU: 0x2ED11, offset: 0x2ED11, size: 0x8, addend: 0x0, symName: __ZNKSt3__117__compressed_pairIPNS_11__hash_nodeINS_17__hash_value_typeINS_12basic_stringIcNS_11char_traitsIcEENS_9allocatorIcEEEEP3NetEEPvEENS_26__hash_map_node_destructorINS6_ISD_EEEEE5firstB8ue170006Ev, symObjAddr: 0x1721C, symBinAddr: 0x100018B74, symSize: 0x24 }
  - { offsetInCU: 0x2ED37, offset: 0x2ED37, size: 0x8, addend: 0x0, symName: __ZNKSt3__122__compressed_pair_elemIPNS_11__hash_nodeINS_17__hash_value_typeINS_12basic_stringIcNS_11char_traitsIcEENS_9allocatorIcEEEEP3NetEEPvEELi0ELb0EE5__getB8ue170006Ev, symObjAddr: 0x17240, symBinAddr: 0x100018B98, symSize: 0x14 }
  - { offsetInCU: 0x2ED5D, offset: 0x2ED5D, size: 0x8, addend: 0x0, symName: __ZNSt3__117__compressed_pairIPNS_11__hash_nodeINS_17__hash_value_typeINS_12basic_stringIcNS_11char_traitsIcEENS_9allocatorIcEEEEP3NetEEPvEENS_26__hash_map_node_destructorINS6_ISD_EEEEE6secondB8ue170006Ev, symObjAddr: 0x17254, symBinAddr: 0x100018BAC, symSize: 0x28 }
  - { offsetInCU: 0x2ED83, offset: 0x2ED83, size: 0x8, addend: 0x0, symName: __ZNSt3__122__compressed_pair_elemINS_26__hash_map_node_destructorINS_9allocatorINS_11__hash_nodeINS_17__hash_value_typeINS_12basic_stringIcNS_11char_traitsIcEENS2_IcEEEEP3NetEEPvEEEEEELi1ELb0EE5__getB8ue170006Ev, symObjAddr: 0x1727C, symBinAddr: 0x100018BD4, symSize: 0x14 }
  - { offsetInCU: 0x2EDA9, offset: 0x2EDA9, size: 0x8, addend: 0x0, symName: __ZNSt3__19allocatorINS_11__hash_nodeINS_17__hash_value_typeINS_12basic_stringIcNS_11char_traitsIcEENS0_IcEEEEP3NetEEPvEEE9constructB8ue170006IS9_JEEEvPT_DpOT0_, symObjAddr: 0x17290, symBinAddr: 0x100018BE8, symSize: 0x1C }
  - { offsetInCU: 0x2EDEB, offset: 0x2EDEB, size: 0x8, addend: 0x0, symName: __ZNKSt3__122__unordered_map_hasherINS_12basic_stringIcNS_11char_traitsIcEENS_9allocatorIcEEEENS_17__hash_value_typeIS6_P3NetEENS_4hashIS6_EENS_8equal_toIS6_EELb1EEclB8ue170006ERKSA_, symObjAddr: 0x172AC, symBinAddr: 0x100018C04, symSize: 0x3C }
  - { offsetInCU: 0x2EE20, offset: 0x2EE20, size: 0x8, addend: 0x0, symName: __ZNSt3__112__hash_tableINS_17__hash_value_typeINS_12basic_stringIcNS_11char_traitsIcEENS_9allocatorIcEEEEP3NetEENS_22__unordered_map_hasherIS7_SA_NS_4hashIS7_EENS_8equal_toIS7_EELb1EEENS_21__unordered_map_equalIS7_SA_SF_SD_Lb1EEENS5_ISA_EEE28__node_insert_unique_prepareB8ue170006EmRSA_, symObjAddr: 0x172E8, symBinAddr: 0x100018C40, symSize: 0x290 }
  - { offsetInCU: 0x2EEA2, offset: 0x2EEA2, size: 0x8, addend: 0x0, symName: __ZNSt3__112__hash_tableINS_17__hash_value_typeINS_12basic_stringIcNS_11char_traitsIcEENS_9allocatorIcEEEEP3NetEENS_22__unordered_map_hasherIS7_SA_NS_4hashIS7_EENS_8equal_toIS7_EELb1EEENS_21__unordered_map_equalIS7_SA_SF_SD_Lb1EEENS5_ISA_EEE28__node_insert_unique_performB8ue170006EPNS_11__hash_nodeISA_PvEE, symObjAddr: 0x17578, symBinAddr: 0x100018ED0, symSize: 0x154 }
  - { offsetInCU: 0x2EF06, offset: 0x2EF06, size: 0x8, addend: 0x0, symName: __ZNSt3__116__hash_node_baseIPNS_11__hash_nodeINS_17__hash_value_typeINS_12basic_stringIcNS_11char_traitsIcEENS_9allocatorIcEEEEP3NetEEPvEEE5__ptrB8ue170006Ev, symObjAddr: 0x176CC, symBinAddr: 0x100019024, symSize: 0x24 }
  - { offsetInCU: 0x2EF2C, offset: 0x2EF2C, size: 0x8, addend: 0x0, symName: __ZNSt3__14pairINS_15__hash_iteratorIPNS_11__hash_nodeINS_17__hash_value_typeINS_12basic_stringIcNS_11char_traitsIcEENS_9allocatorIcEEEEP3NetEEPvEEEEbEC1B8ue170006ERKSG_RKb, symObjAddr: 0x176F0, symBinAddr: 0x100019048, symSize: 0x3C }
  - { offsetInCU: 0x2EF72, offset: 0x2EF72, size: 0x8, addend: 0x0, symName: __ZNKSt3__121__unordered_map_equalINS_12basic_stringIcNS_11char_traitsIcEENS_9allocatorIcEEEENS_17__hash_value_typeIS6_P3NetEENS_8equal_toIS6_EENS_4hashIS6_EELb1EEclB8ue170006ERKSA_SH_, symObjAddr: 0x1772C, symBinAddr: 0x100019084, symSize: 0x54 }
  - { offsetInCU: 0x2EFB6, offset: 0x2EFB6, size: 0x8, addend: 0x0, symName: __ZNSt3__112__hash_tableINS_17__hash_value_typeINS_12basic_stringIcNS_11char_traitsIcEENS_9allocatorIcEEEEP3NetEENS_22__unordered_map_hasherIS7_SA_NS_4hashIS7_EENS_8equal_toIS7_EELb1EEENS_21__unordered_map_equalIS7_SA_SF_SD_Lb1EEENS5_ISA_EEE4sizeB8ue170006Ev, symObjAddr: 0x17780, symBinAddr: 0x1000190D8, symSize: 0x28 }
  - { offsetInCU: 0x2EFDC, offset: 0x2EFDC, size: 0x8, addend: 0x0, symName: __ZNSt3__112__hash_tableINS_17__hash_value_typeINS_12basic_stringIcNS_11char_traitsIcEENS_9allocatorIcEEEEP3NetEENS_22__unordered_map_hasherIS7_SA_NS_4hashIS7_EENS_8equal_toIS7_EELb1EEENS_21__unordered_map_equalIS7_SA_SF_SD_Lb1EEENS5_ISA_EEE15max_load_factorB8ue170006Ev, symObjAddr: 0x177A8, symBinAddr: 0x100019100, symSize: 0x28 }
  - { offsetInCU: 0x2F002, offset: 0x2F002, size: 0x8, addend: 0x0, symName: __ZNSt3__112__hash_tableINS_17__hash_value_typeINS_12basic_stringIcNS_11char_traitsIcEENS_9allocatorIcEEEEP3NetEENS_22__unordered_map_hasherIS7_SA_NS_4hashIS7_EENS_8equal_toIS7_EELb1EEENS_21__unordered_map_equalIS7_SA_SF_SD_Lb1EEENS5_ISA_EEE15__rehash_uniqueB8ue170006Em, symObjAddr: 0x177D0, symBinAddr: 0x100019128, symSize: 0x2C }
  - { offsetInCU: 0x2F037, offset: 0x2F037, size: 0x8, addend: 0x0, symName: __ZNSt3__117__compressed_pairImNS_22__unordered_map_hasherINS_12basic_stringIcNS_11char_traitsIcEENS_9allocatorIcEEEENS_17__hash_value_typeIS7_P3NetEENS_4hashIS7_EENS_8equal_toIS7_EELb1EEEE5firstB8ue170006Ev, symObjAddr: 0x177FC, symBinAddr: 0x100019154, symSize: 0x24 }
  - { offsetInCU: 0x2F05D, offset: 0x2F05D, size: 0x8, addend: 0x0, symName: __ZNSt3__117__compressed_pairIfNS_21__unordered_map_equalINS_12basic_stringIcNS_11char_traitsIcEENS_9allocatorIcEEEENS_17__hash_value_typeIS7_P3NetEENS_8equal_toIS7_EENS_4hashIS7_EELb1EEEE5firstB8ue170006Ev, symObjAddr: 0x17820, symBinAddr: 0x100019178, symSize: 0x24 }
  - { offsetInCU: 0x2F083, offset: 0x2F083, size: 0x8, addend: 0x0, symName: __ZNSt3__112__hash_tableINS_17__hash_value_typeINS_12basic_stringIcNS_11char_traitsIcEENS_9allocatorIcEEEEP3NetEENS_22__unordered_map_hasherIS7_SA_NS_4hashIS7_EENS_8equal_toIS7_EELb1EEENS_21__unordered_map_equalIS7_SA_SF_SD_Lb1EEENS5_ISA_EEE8__rehashILb1EEEvm, symObjAddr: 0x17844, symBinAddr: 0x10001919C, symSize: 0x1A8 }
  - { offsetInCU: 0x2F0D3, offset: 0x2F0D3, size: 0x8, addend: 0x0, symName: __ZNSt3__112__hash_tableINS_17__hash_value_typeINS_12basic_stringIcNS_11char_traitsIcEENS_9allocatorIcEEEEP3NetEENS_22__unordered_map_hasherIS7_SA_NS_4hashIS7_EENS_8equal_toIS7_EELb1EEENS_21__unordered_map_equalIS7_SA_SF_SD_Lb1EEENS5_ISA_EEE11__do_rehashILb1EEEvm, symObjAddr: 0x179EC, symBinAddr: 0x100019344, symSize: 0x288 }
  - { offsetInCU: 0x2F1BA, offset: 0x2F1BA, size: 0x8, addend: 0x0, symName: __ZNSt3__110unique_ptrIA_PNS_16__hash_node_baseIPNS_11__hash_nodeINS_17__hash_value_typeINS_12basic_stringIcNS_11char_traitsIcEENS_9allocatorIcEEEEP3NetEEPvEEEENS_25__bucket_list_deallocatorINS7_ISH_EEEEE11get_deleterB8ue170006Ev, symObjAddr: 0x17C74, symBinAddr: 0x1000195CC, symSize: 0x24 }
  - { offsetInCU: 0x2F1E0, offset: 0x2F1E0, size: 0x8, addend: 0x0, symName: __ZNSt3__110unique_ptrIA_PNS_16__hash_node_baseIPNS_11__hash_nodeINS_17__hash_value_typeINS_12basic_stringIcNS_11char_traitsIcEENS_9allocatorIcEEEEP3NetEEPvEEEENS_25__bucket_list_deallocatorINS7_ISH_EEEEE5resetB8ue170006IPSH_EENS_9enable_ifIXsr28_CheckArrayPointerConversionIT_EE5valueEvE4typeESQ_, symObjAddr: 0x17C98, symBinAddr: 0x1000195F0, symSize: 0x78 }
  - { offsetInCU: 0x2F22D, offset: 0x2F22D, size: 0x8, addend: 0x0, symName: __ZNSt3__116allocator_traitsINS_9allocatorIPNS_16__hash_node_baseIPNS_11__hash_nodeINS_17__hash_value_typeINS_12basic_stringIcNS_11char_traitsIcEENS1_IcEEEEP3NetEEPvEEEEEEE8allocateB8ue170006ERSI_m, symObjAddr: 0x17D10, symBinAddr: 0x100019668, symSize: 0x2C }
  - { offsetInCU: 0x2F260, offset: 0x2F260, size: 0x8, addend: 0x0, symName: __ZNSt3__19allocatorIPNS_16__hash_node_baseIPNS_11__hash_nodeINS_17__hash_value_typeINS_12basic_stringIcNS_11char_traitsIcEENS0_IcEEEEP3NetEEPvEEEEE8allocateB8ue170006Em, symObjAddr: 0x17D3C, symBinAddr: 0x100019694, symSize: 0x84 }
  - { offsetInCU: 0x2F29E, offset: 0x2F29E, size: 0x8, addend: 0x0, symName: __ZNSt3__116allocator_traitsINS_9allocatorIPNS_16__hash_node_baseIPNS_11__hash_nodeINS_17__hash_value_typeINS_12basic_stringIcNS_11char_traitsIcEENS1_IcEEEEP3NetEEPvEEEEEEE8max_sizeB8ue170006ISI_vEEmRKSI_, symObjAddr: 0x17DC0, symBinAddr: 0x100019718, symSize: 0x24 }
  - { offsetInCU: 0x2F2CC, offset: 0x2F2CC, size: 0x8, addend: 0x0, symName: __ZNKSt3__19allocatorIPNS_16__hash_node_baseIPNS_11__hash_nodeINS_17__hash_value_typeINS_12basic_stringIcNS_11char_traitsIcEENS0_IcEEEEP3NetEEPvEEEEE8max_sizeB8ue170006Ev, symObjAddr: 0x17DE4, symBinAddr: 0x10001973C, symSize: 0x14 }
  - { offsetInCU: 0x2F2F2, offset: 0x2F2F2, size: 0x8, addend: 0x0, symName: __ZNSt3__14pairINS_15__hash_iteratorIPNS_11__hash_nodeINS_17__hash_value_typeINS_12basic_stringIcNS_11char_traitsIcEENS_9allocatorIcEEEEP3NetEEPvEEEEbEC2B8ue170006ERKSG_RKb, symObjAddr: 0x17DF8, symBinAddr: 0x100019750, symSize: 0x38 }
  - { offsetInCU: 0x2F338, offset: 0x2F338, size: 0x8, addend: 0x0, symName: __ZNSt3__14pairINS_19__hash_map_iteratorINS_15__hash_iteratorIPNS_11__hash_nodeINS_17__hash_value_typeINS_12basic_stringIcNS_11char_traitsIcEENS_9allocatorIcEEEEP3NetEEPvEEEEEEbEC2B8ue170006ISH_bEERKNS0_IT_T0_EE, symObjAddr: 0x17E30, symBinAddr: 0x100019788, symSize: 0x50 }
  - { offsetInCU: 0x2F382, offset: 0x2F382, size: 0x8, addend: 0x0, symName: __ZNSt3__117__compressed_pairIPNS_11__hash_nodeINS_17__hash_value_typeINS_12basic_stringIcNS_11char_traitsIcEENS_9allocatorIcEEEEP3NetEEPvEENS_26__hash_map_node_destructorINS6_ISD_EEEEE5firstB8ue170006Ev, symObjAddr: 0x17E80, symBinAddr: 0x1000197D8, symSize: 0x24 }
  - { offsetInCU: 0x2F3A8, offset: 0x2F3A8, size: 0x8, addend: 0x0, symName: __ZNSt3__122__compressed_pair_elemIPNS_11__hash_nodeINS_17__hash_value_typeINS_12basic_stringIcNS_11char_traitsIcEENS_9allocatorIcEEEEP3NetEEPvEELi0ELb0EE5__getB8ue170006Ev, symObjAddr: 0x17EA4, symBinAddr: 0x1000197FC, symSize: 0x14 }
  - { offsetInCU: 0x2F3CE, offset: 0x2F3CE, size: 0x8, addend: 0x0, symName: __ZNSt3__110unique_ptrINS_11__hash_nodeINS_17__hash_value_typeINS_12basic_stringIcNS_11char_traitsIcEENS_9allocatorIcEEEEP3NetEEPvEENS_26__hash_map_node_destructorINS6_ISD_EEEEED2B8ue170006Ev, symObjAddr: 0x17EB8, symBinAddr: 0x100019810, symSize: 0x30 }
  - { offsetInCU: 0x2F3F8, offset: 0x2F3F8, size: 0x8, addend: 0x0, symName: __ZNSt3__110unique_ptrINS_11__hash_nodeINS_17__hash_value_typeINS_12basic_stringIcNS_11char_traitsIcEENS_9allocatorIcEEEEP3NetEEPvEENS_26__hash_map_node_destructorINS6_ISD_EEEEE5resetB8ue170006EPSD_, symObjAddr: 0x17EE8, symBinAddr: 0x100019840, symSize: 0x78 }
  - { offsetInCU: 0x2F43C, offset: 0x2F43C, size: 0x8, addend: 0x0, symName: __ZNSt3__126__hash_map_node_destructorINS_9allocatorINS_11__hash_nodeINS_17__hash_value_typeINS_12basic_stringIcNS_11char_traitsIcEENS1_IcEEEEP3NetEEPvEEEEEclB8ue170006EPSD_, symObjAddr: 0x17F60, symBinAddr: 0x1000198B8, symSize: 0xE4 }
  - { offsetInCU: 0x2F471, offset: 0x2F471, size: 0x8, addend: 0x0, symName: __ZNSt3__116allocator_traitsINS_9allocatorINS_11__hash_nodeINS_17__hash_value_typeINS_12basic_stringIcNS_11char_traitsIcEENS1_IcEEEEP3NetEEPvEEEEE7destroyB8ue170006ISA_vvEEvRSE_PT_, symObjAddr: 0x18044, symBinAddr: 0x10001999C, symSize: 0x14 }
  - { offsetInCU: 0x2F4AC, offset: 0x2F4AC, size: 0x8, addend: 0x0, symName: __ZNSt3__116allocator_traitsINS_9allocatorINS_11__hash_nodeINS_17__hash_value_typeINS_12basic_stringIcNS_11char_traitsIcEENS1_IcEEEEP3NetEEPvEEEEE7destroyB8ue170006IKS8_vvEEvRSE_PT_, symObjAddr: 0x18058, symBinAddr: 0x1000199B0, symSize: 0x28 }
  - { offsetInCU: 0x2F4E7, offset: 0x2F4E7, size: 0x8, addend: 0x0, symName: __ZNSt3__112basic_stringIcNS_11char_traitsIcEENS_9allocatorIcEEEC2B8ue170006ILi0EEEPKc, symObjAddr: 0x18080, symBinAddr: 0x1000199D8, symSize: 0x58 }
...
