---
triple:          'arm64-apple-darwin'
binary-path:     '0609'
relocations:
  - { offsetInCU: 0x3F, offset: 0x3F, size: 0x8, addend: 0x0, symName: _Alpha, symObjAddr: 0x129610, symBinAddr: 0x100020000, symSize: 0x0 }
  - { offsetInCU: 0x5B, offset: 0x5B, size: 0x8, addend: 0x0, symName: _Beta, symObjAddr: 0x129618, symBinAddr: 0x100020008, symSize: 0x0 }
  - { offsetInCU: 0x70, offset: 0x70, size: 0x8, addend: 0x0, symName: _Gamma, symObjAddr: 0x129620, symBinAddr: 0x100020010, symSize: 0x0 }
  - { offsetInCU: 0x85, offset: 0x85, size: 0x8, addend: 0x0, symName: _Lambda, symObjAddr: 0x129628, symBinAddr: 0x100020018, symSize: 0x0 }
  - { offsetInCU: 0x9B, offset: 0x9B, size: 0x8, addend: 0x0, symName: _fflib, symObjAddr: 0x129630, symBinAddr: 0x100020020, symSize: 0x0 }
  - { offsetInCU: 0x1560F, offset: 0x1560F, size: 0x8, addend: 0x0, symName: __ZNSt3__119piecewise_constructE, symObjAddr: 0x19378, symBinAddr: 0x10001B2C4, symSize: 0x0 }
  - { offsetInCU: 0x1D2FE, offset: 0x1D2FE, size: 0x8, addend: 0x0, symName: __ZNSt3__124__put_character_sequenceB8ue170006IcNS_11char_traitsIcEEEERNS_13basic_ostreamIT_T0_EES7_PKS4_m, symObjAddr: 0x8ACC, symBinAddr: 0x10000A2B8, symSize: 0x1EC }
  - { offsetInCU: 0x20928, offset: 0x20928, size: 0x8, addend: 0x0, symName: __ZNSt3__17getlineB8ue170006IcNS_11char_traitsIcEENS_9allocatorIcEEEERNS_13basic_istreamIT_T0_EES9_RNS_12basic_stringIS6_S7_T1_EE, symObjAddr: 0x1CBC, symBinAddr: 0x1000034A8, symSize: 0x5C }
  - { offsetInCU: 0x20CFC, offset: 0x20CFC, size: 0x8, addend: 0x0, symName: __ZNSt3__1rsB8ue170006IcNS_11char_traitsIcEENS_9allocatorIcEEEERNS_13basic_istreamIT_T0_EES9_RNS_12basic_stringIS6_S7_T1_EE, symObjAddr: 0x1E40, symBinAddr: 0x10000362C, symSize: 0x30C }
  - { offsetInCU: 0x20DC9, offset: 0x20DC9, size: 0x8, addend: 0x0, symName: __ZNSt3__1eqB8ue170006IcNS_11char_traitsIcEENS_9allocatorIcEEEEbRKNS_12basic_stringIT_T0_T1_EEPKS6_, symObjAddr: 0x214C, symBinAddr: 0x100003938, symSize: 0xAC }
  - { offsetInCU: 0x20E3B, offset: 0x20E3B, size: 0x8, addend: 0x0, symName: __ZNSt3__1neB8ue170006ERKNS_19__hash_map_iteratorINS_15__hash_iteratorIPNS_11__hash_nodeINS_17__hash_value_typeINS_12basic_stringIcNS_11char_traitsIcEENS_9allocatorIcEEEE8FlipFlopEEPvEEEEEESI_, symObjAddr: 0x2700, symBinAddr: 0x100003EEC, symSize: 0x30 }
  - { offsetInCU: 0x2104F, offset: 0x2104F, size: 0x8, addend: 0x0, symName: __ZNSt3__17getlineB8ue170006IcNS_11char_traitsIcEENS_9allocatorIcEEEERNS_13basic_istreamIT_T0_EES9_RNS_12basic_stringIS6_S7_T1_EES6_, symObjAddr: 0x2A8C, symBinAddr: 0x100004278, symSize: 0x234 }
  - { offsetInCU: 0x2110D, offset: 0x2110D, size: 0x8, addend: 0x0, symName: __ZNSt3__1neB8ue170006ERKNS_19__hash_map_iteratorINS_15__hash_iteratorIPNS_11__hash_nodeINS_17__hash_value_typeINS_12basic_stringIcNS_11char_traitsIcEENS_9allocatorIcEEEEP9InstanceFEEPvEEEEEESJ_, symObjAddr: 0x2CC0, symBinAddr: 0x1000044AC, symSize: 0x30 }
  - { offsetInCU: 0x21155, offset: 0x21155, size: 0x8, addend: 0x0, symName: __ZNSt3__1neB8ue170006ERKNS_19__hash_map_iteratorINS_15__hash_iteratorIPNS_11__hash_nodeINS_17__hash_value_typeINS_12basic_stringIcNS_11char_traitsIcEENS_9allocatorIcEEEEP3PinEEPvEEEEEESJ_, symObjAddr: 0x2E28, symBinAddr: 0x100004614, symSize: 0x30 }
  - { offsetInCU: 0x21192, offset: 0x21192, size: 0x8, addend: 0x0, symName: __ZNSt3__1lsB8ue170006INS_11char_traitsIcEEEERNS_13basic_ostreamIcT_EES6_PKc, symObjAddr: 0x3534, symBinAddr: 0x100004D20, symSize: 0x48 }
  - { offsetInCU: 0x211D8, offset: 0x211D8, size: 0x8, addend: 0x0, symName: __ZNSt3__14endlB8ue170006IcNS_11char_traitsIcEEEERNS_13basic_ostreamIT_T0_EES7_, symObjAddr: 0x35A8, symBinAddr: 0x100004D94, symSize: 0x58 }
  - { offsetInCU: 0x2124B, offset: 0x2124B, size: 0x8, addend: 0x0, symName: __ZNSt3__17launderB8ue170006INS_4pairIKNS_12basic_stringIcNS_11char_traitsIcEENS_9allocatorIcEEEEP3PinEEEEPT_SD_, symObjAddr: 0x4600, symBinAddr: 0x100005DEC, symSize: 0x24 }
  - { offsetInCU: 0x21282, offset: 0x21282, size: 0x8, addend: 0x0, symName: __ZNSt3__19__launderB8ue170006INS_4pairIKNS_12basic_stringIcNS_11char_traitsIcEENS_9allocatorIcEEEEP3PinEEEEPT_SD_, symObjAddr: 0x4624, symBinAddr: 0x100005E10, symSize: 0x14 }
  - { offsetInCU: 0x212B9, offset: 0x212B9, size: 0x8, addend: 0x0, symName: __ZNSt3__119__libcpp_deallocateB8ue170006EPvmm, symObjAddr: 0x467C, symBinAddr: 0x100005E68, symSize: 0x60 }
  - { offsetInCU: 0x2131E, offset: 0x2131E, size: 0x8, addend: 0x0, symName: __ZNSt3__124__is_overaligned_for_newB8ue170006Em, symObjAddr: 0x46DC, symBinAddr: 0x100005EC8, symSize: 0x20 }
  - { offsetInCU: 0x2134C, offset: 0x2134C, size: 0x8, addend: 0x0, symName: __ZNSt3__127__do_deallocate_handle_sizeB8ue170006IJSt11align_val_tEEEvPvmDpT_, symObjAddr: 0x46FC, symBinAddr: 0x100005EE8, symSize: 0x30 }
  - { offsetInCU: 0x2139F, offset: 0x2139F, size: 0x8, addend: 0x0, symName: __ZNSt3__127__do_deallocate_handle_sizeB8ue170006IJEEEvPvmDpT_, symObjAddr: 0x472C, symBinAddr: 0x100005F18, symSize: 0x28 }
  - { offsetInCU: 0x213DD, offset: 0x213DD, size: 0x8, addend: 0x0, symName: __ZNSt3__124__libcpp_operator_deleteB8ue170006IJPvSt11align_val_tEEEvDpT_, symObjAddr: 0x4754, symBinAddr: 0x100005F40, symSize: 0x2C }
  - { offsetInCU: 0x21426, offset: 0x21426, size: 0x8, addend: 0x0, symName: __ZNSt3__124__libcpp_operator_deleteB8ue170006IJPvEEEvDpT_, symObjAddr: 0x4780, symBinAddr: 0x100005F6C, symSize: 0x24 }
  - { offsetInCU: 0x2145B, offset: 0x2145B, size: 0x8, addend: 0x0, symName: __ZNSt3__1neB8ue170006ERKNS_21__hash_const_iteratorIPNS_11__hash_nodeINS_17__hash_value_typeINS_12basic_stringIcNS_11char_traitsIcEENS_9allocatorIcEEEEP3PinEEPvEEEESH_, symObjAddr: 0x5310, symBinAddr: 0x100006AFC, symSize: 0x34 }
  - { offsetInCU: 0x214BC, offset: 0x214BC, size: 0x8, addend: 0x0, symName: __ZNSt3__1eqB8ue170006ERKNS_21__hash_const_iteratorIPNS_11__hash_nodeINS_17__hash_value_typeINS_12basic_stringIcNS_11char_traitsIcEENS_9allocatorIcEEEEP3PinEEPvEEEESH_, symObjAddr: 0x564C, symBinAddr: 0x100006E38, symSize: 0x30 }
  - { offsetInCU: 0x214F9, offset: 0x214F9, size: 0x8, addend: 0x0, symName: __ZNSt3__17launderB8ue170006IKNS_4pairIKNS_12basic_stringIcNS_11char_traitsIcEENS_9allocatorIcEEEEP3PinEEEEPT_SE_, symObjAddr: 0x572C, symBinAddr: 0x100006F18, symSize: 0x24 }
  - { offsetInCU: 0x21530, offset: 0x21530, size: 0x8, addend: 0x0, symName: __ZNSt3__19__launderB8ue170006IKNS_4pairIKNS_12basic_stringIcNS_11char_traitsIcEENS_9allocatorIcEEEEP3PinEEEEPT_SE_, symObjAddr: 0x5750, symBinAddr: 0x100006F3C, symSize: 0x14 }
  - { offsetInCU: 0x21567, offset: 0x21567, size: 0x8, addend: 0x0, symName: __ZNSt3__116__do_string_hashB8ue170006IPKcEEmT_S3_, symObjAddr: 0x5D30, symBinAddr: 0x10000751C, symSize: 0x3C }
  - { offsetInCU: 0x215AD, offset: 0x215AD, size: 0x8, addend: 0x0, symName: __ZNSt3__110__loadwordB8ue170006ImEET_PKv, symObjAddr: 0x67A0, symBinAddr: 0x100007F8C, symSize: 0x20 }
  - { offsetInCU: 0x215F0, offset: 0x215F0, size: 0x8, addend: 0x0, symName: __ZNSt3__14swapB8ue170006ImEENS_9enable_ifIXaasr21is_move_constructibleIT_EE5valuesr18is_move_assignableIS2_EE5valueEvE4typeERS2_S5_, symObjAddr: 0x695C, symBinAddr: 0x100008148, symSize: 0x3C }
  - { offsetInCU: 0x21641, offset: 0x21641, size: 0x8, addend: 0x0, symName: __ZNSt3__110__loadwordB8ue170006IjEET_PKv, symObjAddr: 0x69EC, symBinAddr: 0x1000081D8, symSize: 0x20 }
  - { offsetInCU: 0x21684, offset: 0x21684, size: 0x8, addend: 0x0, symName: __ZNSt3__112__to_addressB8ue170006IKcEEPT_S3_, symObjAddr: 0x6B54, symBinAddr: 0x100008340, symSize: 0x14 }
  - { offsetInCU: 0x216EC, offset: 0x216EC, size: 0x8, addend: 0x0, symName: __ZNSt3__13maxB8ue170006ImEERKT_S3_S3_, symObjAddr: 0x6D18, symBinAddr: 0x100008504, symSize: 0x2C }
  - { offsetInCU: 0x2172F, offset: 0x2172F, size: 0x8, addend: 0x0, symName: __ZNSt3__116__is_hash_power2B8ue170006Em, symObjAddr: 0x6D44, symBinAddr: 0x100008530, symSize: 0x50 }
  - { offsetInCU: 0x2175B, offset: 0x2175B, size: 0x8, addend: 0x0, symName: __ZNSt3__116__constrain_hashB8ue170006Emm, symObjAddr: 0x6DAC, symBinAddr: 0x100008598, symSize: 0x98 }
  - { offsetInCU: 0x21795, offset: 0x21795, size: 0x8, addend: 0x0, symName: __ZNSt3__116__next_hash_pow2B8ue170006Em, symObjAddr: 0x7350, symBinAddr: 0x100008B3C, symSize: 0x6C }
  - { offsetInCU: 0x217DD, offset: 0x217DD, size: 0x8, addend: 0x0, symName: __ZNSt3__117__libcpp_allocateB8ue170006Emm, symObjAddr: 0x7534, symBinAddr: 0x100008D20, symSize: 0x60 }
  - { offsetInCU: 0x21837, offset: 0x21837, size: 0x8, addend: 0x0, symName: __ZNSt3__121__libcpp_operator_newB8ue170006IJmSt11align_val_tEEEPvDpT_, symObjAddr: 0x75A8, symBinAddr: 0x100008D94, symSize: 0x2C }
  - { offsetInCU: 0x21884, offset: 0x21884, size: 0x8, addend: 0x0, symName: __ZNSt3__121__libcpp_operator_newB8ue170006IJmEEEPvDpT_, symObjAddr: 0x75D4, symBinAddr: 0x100008DC0, symSize: 0x24 }
  - { offsetInCU: 0x218BD, offset: 0x218BD, size: 0x8, addend: 0x0, symName: __ZNSt3__112__libcpp_clzB8ue170006Em, symObjAddr: 0x75F8, symBinAddr: 0x100008DE4, symSize: 0x1C }
  - { offsetInCU: 0x218E9, offset: 0x218E9, size: 0x8, addend: 0x0, symName: __ZNSt3__13maxB8ue170006ImNS_6__lessIvvEEEERKT_S5_S5_T0_, symObjAddr: 0x7614, symBinAddr: 0x100008E00, symSize: 0x54 }
  - { offsetInCU: 0x21988, offset: 0x21988, size: 0x8, addend: 0x0, symName: __ZNSt3__1eqB8ue170006INS_9allocatorIcEEEEbRKNS_12basic_stringIcNS_11char_traitsIcEET_EES9_, symObjAddr: 0x76D0, symBinAddr: 0x100008EBC, symSize: 0x148 }
  - { offsetInCU: 0x21A7F, offset: 0x21A7F, size: 0x8, addend: 0x0, symName: __ZNSt3__1lsB8ue170006IcNS_11char_traitsIcEENS_9allocatorIcEEEERNS_13basic_ostreamIT_T0_EES9_RKNS_12basic_stringIS6_S7_T1_EE, symObjAddr: 0x8A80, symBinAddr: 0x10000A26C, symSize: 0x4C }
  - { offsetInCU: 0x21AD7, offset: 0x21AD7, size: 0x8, addend: 0x0, symName: __ZNSt3__116__pad_and_outputB8ue170006IcNS_11char_traitsIcEEEENS_19ostreambuf_iteratorIT_T0_EES6_PKS4_S8_S8_RNS_8ios_baseES4_, symObjAddr: 0x8CD4, symBinAddr: 0x10000A4C0, symSize: 0x240 }
  - { offsetInCU: 0x21BA6, offset: 0x21BA6, size: 0x8, addend: 0x0, symName: __ZNSt3__112__to_addressB8ue170006IcEEPT_S2_, symObjAddr: 0x923C, symBinAddr: 0x10000AA28, symSize: 0x14 }
  - { offsetInCU: 0x21C0E, offset: 0x21C0E, size: 0x8, addend: 0x0, symName: __ZNSt3__19use_facetB8ue170006INS_5ctypeIcEEEERKT_RKNS_6localeE, symObjAddr: 0x9484, symBinAddr: 0x10000AC70, symSize: 0x2C }
  - { offsetInCU: 0x21FEC, offset: 0x21FEC, size: 0x8, addend: 0x0, symName: __ZNSt3__118__constexpr_strlenB8ue170006EPKc, symObjAddr: 0x95D8, symBinAddr: 0x10000ADC4, symSize: 0x24 }
  - { offsetInCU: 0x2204F, offset: 0x2204F, size: 0x8, addend: 0x0, symName: __ZNSt3__116forward_as_tupleB8ue170006IJRKNS_12basic_stringIcNS_11char_traitsIcEENS_9allocatorIcEEEEEEENS_5tupleIJDpOT_EEESC_, symObjAddr: 0x9AAC, symBinAddr: 0x10000B298, symSize: 0x2C }
  - { offsetInCU: 0x22088, offset: 0x22088, size: 0x8, addend: 0x0, symName: __ZNSt3__116forward_as_tupleB8ue170006IJEEENS_5tupleIJDpOT_EEES4_, symObjAddr: 0x9AD8, symBinAddr: 0x10000B2C4, symSize: 0x4 }
  - { offsetInCU: 0x220B7, offset: 0x220B7, size: 0x8, addend: 0x0, symName: __ZNSt3__13getB8ue170006ILm0EJRKNS_12basic_stringIcNS_11char_traitsIcEENS_9allocatorIcEEEEEEERNS_13tuple_elementIXT_ENS_5tupleIJDpT0_EEEE4typeERSD_, symObjAddr: 0x9E50, symBinAddr: 0x10000B63C, symSize: 0x24 }
  - { offsetInCU: 0x2211E, offset: 0x2211E, size: 0x8, addend: 0x0, symName: __ZNSt3__1neB8ue170006ERKNS_15__hash_iteratorIPNS_11__hash_nodeINS_17__hash_value_typeINS_12basic_stringIcNS_11char_traitsIcEENS_9allocatorIcEEEEP3PinEEPvEEEESH_, symObjAddr: 0xA410, symBinAddr: 0x10000BBFC, symSize: 0x34 }
  - { offsetInCU: 0x2215B, offset: 0x2215B, size: 0x8, addend: 0x0, symName: __ZNSt3__1eqB8ue170006ERKNS_15__hash_iteratorIPNS_11__hash_nodeINS_17__hash_value_typeINS_12basic_stringIcNS_11char_traitsIcEENS_9allocatorIcEEEEP3PinEEPvEEEESH_, symObjAddr: 0xA444, symBinAddr: 0x10000BC30, symSize: 0x30 }
  - { offsetInCU: 0x221CB, offset: 0x221CB, size: 0x8, addend: 0x0, symName: __ZNSt3__17launderB8ue170006INS_4pairIKNS_12basic_stringIcNS_11char_traitsIcEENS_9allocatorIcEEEE8FlipFlopEEEEPT_SC_, symObjAddr: 0xADB0, symBinAddr: 0x10000C59C, symSize: 0x24 }
  - { offsetInCU: 0x22202, offset: 0x22202, size: 0x8, addend: 0x0, symName: __ZNSt3__19__launderB8ue170006INS_4pairIKNS_12basic_stringIcNS_11char_traitsIcEENS_9allocatorIcEEEE8FlipFlopEEEEPT_SC_, symObjAddr: 0xADD4, symBinAddr: 0x10000C5C0, symSize: 0x14 }
  - { offsetInCU: 0x2226C, offset: 0x2226C, size: 0x8, addend: 0x0, symName: __ZNSt3__17launderB8ue170006INS_4pairIKNS_12basic_stringIcNS_11char_traitsIcEENS_9allocatorIcEEEE4GateEEEEPT_SC_, symObjAddr: 0xB9F8, symBinAddr: 0x10000D1E4, symSize: 0x24 }
  - { offsetInCU: 0x222A3, offset: 0x222A3, size: 0x8, addend: 0x0, symName: __ZNSt3__19__launderB8ue170006INS_4pairIKNS_12basic_stringIcNS_11char_traitsIcEENS_9allocatorIcEEEE4GateEEEEPT_SC_, symObjAddr: 0xBA1C, symBinAddr: 0x10000D208, symSize: 0x14 }
  - { offsetInCU: 0x222DA, offset: 0x222DA, size: 0x8, addend: 0x0, symName: __ZNSt3__17launderB8ue170006IKNS_4pairIKNS_12basic_stringIcNS_11char_traitsIcEENS_9allocatorIcEEEE8FlipFlopEEEEPT_SD_, symObjAddr: 0xC7D4, symBinAddr: 0x10000DFC0, symSize: 0x24 }
  - { offsetInCU: 0x22311, offset: 0x22311, size: 0x8, addend: 0x0, symName: __ZNSt3__19__launderB8ue170006IKNS_4pairIKNS_12basic_stringIcNS_11char_traitsIcEENS_9allocatorIcEEEE8FlipFlopEEEEPT_SD_, symObjAddr: 0xC7F8, symBinAddr: 0x10000DFE4, symSize: 0x14 }
  - { offsetInCU: 0x22399, offset: 0x22399, size: 0x8, addend: 0x0, symName: __ZNSt3__17launderB8ue170006IKNS_4pairIKNS_12basic_stringIcNS_11char_traitsIcEENS_9allocatorIcEEEE4GateEEEEPT_SD_, symObjAddr: 0xDF24, symBinAddr: 0x10000F710, symSize: 0x24 }
  - { offsetInCU: 0x223D0, offset: 0x223D0, size: 0x8, addend: 0x0, symName: __ZNSt3__19__launderB8ue170006IKNS_4pairIKNS_12basic_stringIcNS_11char_traitsIcEENS_9allocatorIcEEEE4GateEEEEPT_SD_, symObjAddr: 0xDF48, symBinAddr: 0x10000F734, symSize: 0x14 }
  - { offsetInCU: 0x2248B, offset: 0x2248B, size: 0x8, addend: 0x0, symName: __ZNSt3__17launderB8ue170006INS_4pairIKNS_12basic_stringIcNS_11char_traitsIcEENS_9allocatorIcEEEEP9InstanceFEEEEPT_SD_, symObjAddr: 0xF4E0, symBinAddr: 0x100010CCC, symSize: 0x24 }
  - { offsetInCU: 0x224C2, offset: 0x224C2, size: 0x8, addend: 0x0, symName: __ZNSt3__19__launderB8ue170006INS_4pairIKNS_12basic_stringIcNS_11char_traitsIcEENS_9allocatorIcEEEEP9InstanceFEEEEPT_SD_, symObjAddr: 0xF504, symBinAddr: 0x100010CF0, symSize: 0x14 }
  - { offsetInCU: 0x2252C, offset: 0x2252C, size: 0x8, addend: 0x0, symName: __ZNSt3__17launderB8ue170006INS_4pairIKNS_12basic_stringIcNS_11char_traitsIcEENS_9allocatorIcEEEEP9InstanceGEEEEPT_SD_, symObjAddr: 0x10120, symBinAddr: 0x10001190C, symSize: 0x24 }
  - { offsetInCU: 0x22563, offset: 0x22563, size: 0x8, addend: 0x0, symName: __ZNSt3__19__launderB8ue170006INS_4pairIKNS_12basic_stringIcNS_11char_traitsIcEENS_9allocatorIcEEEEP9InstanceGEEEEPT_SD_, symObjAddr: 0x10144, symBinAddr: 0x100011930, symSize: 0x14 }
  - { offsetInCU: 0x225CD, offset: 0x225CD, size: 0x8, addend: 0x0, symName: __ZNSt3__17launderB8ue170006INS_4pairIKNS_12basic_stringIcNS_11char_traitsIcEENS_9allocatorIcEEEEP3NetEEEEPT_SD_, symObjAddr: 0x10D60, symBinAddr: 0x10001254C, symSize: 0x24 }
  - { offsetInCU: 0x22604, offset: 0x22604, size: 0x8, addend: 0x0, symName: __ZNSt3__19__launderB8ue170006INS_4pairIKNS_12basic_stringIcNS_11char_traitsIcEENS_9allocatorIcEEEEP3NetEEEEPT_SD_, symObjAddr: 0x10D84, symBinAddr: 0x100012570, symSize: 0x14 }
  - { offsetInCU: 0x22825, offset: 0x22825, size: 0x8, addend: 0x0, symName: __ZNSt3__1neB8ue170006ERKNS_15__hash_iteratorIPNS_11__hash_nodeINS_17__hash_value_typeINS_12basic_stringIcNS_11char_traitsIcEENS_9allocatorIcEEEE8FlipFlopEEPvEEEESG_, symObjAddr: 0x11BE4, symBinAddr: 0x1000133D0, symSize: 0x34 }
  - { offsetInCU: 0x22862, offset: 0x22862, size: 0x8, addend: 0x0, symName: __ZNSt3__1eqB8ue170006ERKNS_15__hash_iteratorIPNS_11__hash_nodeINS_17__hash_value_typeINS_12basic_stringIcNS_11char_traitsIcEENS_9allocatorIcEEEE8FlipFlopEEPvEEEESG_, symObjAddr: 0x11C18, symBinAddr: 0x100013404, symSize: 0x30 }
  - { offsetInCU: 0x2289F, offset: 0x2289F, size: 0x8, addend: 0x0, symName: __ZNSt3__17launderB8ue170006IKNS_4pairIKNS_12basic_stringIcNS_11char_traitsIcEENS_9allocatorIcEEEEP9InstanceFEEEEPT_SE_, symObjAddr: 0x12714, symBinAddr: 0x100013F00, symSize: 0x24 }
  - { offsetInCU: 0x228D6, offset: 0x228D6, size: 0x8, addend: 0x0, symName: __ZNSt3__19__launderB8ue170006IKNS_4pairIKNS_12basic_stringIcNS_11char_traitsIcEENS_9allocatorIcEEEEP9InstanceFEEEEPT_SE_, symObjAddr: 0x12738, symBinAddr: 0x100013F24, symSize: 0x14 }
  - { offsetInCU: 0x2295E, offset: 0x2295E, size: 0x8, addend: 0x0, symName: __ZNSt3__17launderB8ue170006IKNS_4pairIKNS_12basic_stringIcNS_11char_traitsIcEENS_9allocatorIcEEEEP9InstanceGEEEEPT_SE_, symObjAddr: 0x13E3C, symBinAddr: 0x100015628, symSize: 0x24 }
  - { offsetInCU: 0x22995, offset: 0x22995, size: 0x8, addend: 0x0, symName: __ZNSt3__19__launderB8ue170006IKNS_4pairIKNS_12basic_stringIcNS_11char_traitsIcEENS_9allocatorIcEEEEP9InstanceGEEEEPT_SE_, symObjAddr: 0x13E60, symBinAddr: 0x10001564C, symSize: 0x14 }
  - { offsetInCU: 0x22A1D, offset: 0x22A1D, size: 0x8, addend: 0x0, symName: __ZNSt3__1neB8ue170006ERKNS_15__hash_iteratorIPNS_11__hash_nodeINS_17__hash_value_typeINS_12basic_stringIcNS_11char_traitsIcEENS_9allocatorIcEEEEP9InstanceFEEPvEEEESH_, symObjAddr: 0x14DD0, symBinAddr: 0x1000165BC, symSize: 0x34 }
  - { offsetInCU: 0x22A5A, offset: 0x22A5A, size: 0x8, addend: 0x0, symName: __ZNSt3__1eqB8ue170006ERKNS_15__hash_iteratorIPNS_11__hash_nodeINS_17__hash_value_typeINS_12basic_stringIcNS_11char_traitsIcEENS_9allocatorIcEEEEP9InstanceFEEPvEEEESH_, symObjAddr: 0x14E04, symBinAddr: 0x1000165F0, symSize: 0x30 }
  - { offsetInCU: 0x22A97, offset: 0x22A97, size: 0x8, addend: 0x0, symName: __ZNSt3__17launderB8ue170006IKNS_4pairIKNS_12basic_stringIcNS_11char_traitsIcEENS_9allocatorIcEEEEP3NetEEEEPT_SE_, symObjAddr: 0x15AB0, symBinAddr: 0x10001729C, symSize: 0x24 }
  - { offsetInCU: 0x22ACE, offset: 0x22ACE, size: 0x8, addend: 0x0, symName: __ZNSt3__19__launderB8ue170006IKNS_4pairIKNS_12basic_stringIcNS_11char_traitsIcEENS_9allocatorIcEEEEP3NetEEEEPT_SE_, symObjAddr: 0x15AD4, symBinAddr: 0x1000172C0, symSize: 0x14 }
  - { offsetInCU: 0x22B56, offset: 0x22B56, size: 0x8, addend: 0x0, symName: __ZNSt3__116forward_as_tupleB8ue170006IJNS_12basic_stringIcNS_11char_traitsIcEENS_9allocatorIcEEEEEEENS_5tupleIJDpOT_EEESA_, symObjAddr: 0x16C14, symBinAddr: 0x100018400, symSize: 0x2C }
  - { offsetInCU: 0x22B8F, offset: 0x22B8F, size: 0x8, addend: 0x0, symName: __ZNSt3__13getB8ue170006ILm0EJONS_12basic_stringIcNS_11char_traitsIcEENS_9allocatorIcEEEEEEERNS_13tuple_elementIXT_ENS_5tupleIJDpT0_EEEE4typeERSC_, symObjAddr: 0x16EE0, symBinAddr: 0x1000186CC, symSize: 0x24 }
  - { offsetInCU: 0x22F55, offset: 0x22F55, size: 0x8, addend: 0x0, symName: __ZSt28__throw_bad_array_new_lengthB8ue170006v, symObjAddr: 0x7500, symBinAddr: 0x100008CEC, symSize: 0x34 }
  - { offsetInCU: 0x23D4F, offset: 0x23D4F, size: 0x8, addend: 0x0, symName: _gatelib, symObjAddr: 0x129658, symBinAddr: 0x100020048, symSize: 0x0 }
  - { offsetInCU: 0x242E9, offset: 0x242E9, size: 0x8, addend: 0x0, symName: _die, symObjAddr: 0x129680, symBinAddr: 0x100020070, symSize: 0x0 }
  - { offsetInCU: 0x2440D, offset: 0x2440D, size: 0x8, addend: 0x0, symName: _InstanceF_map, symObjAddr: 0x1296F0, symBinAddr: 0x1000200E0, symSize: 0x0 }
  - { offsetInCU: 0x24990, offset: 0x24990, size: 0x8, addend: 0x0, symName: _InstanceG_map, symObjAddr: 0x129718, symBinAddr: 0x100020108, symSize: 0x0 }
  - { offsetInCU: 0x24EEC, offset: 0x24EEC, size: 0x8, addend: 0x0, symName: _Net_map, symObjAddr: 0x129740, symBinAddr: 0x100020130, symSize: 0x0 }
  - { offsetInCU: 0x27E69, offset: 0x27E69, size: 0x8, addend: 0x0, symName: __ZNSt3__113unordered_mapINS_12basic_stringIcNS_11char_traitsIcEENS_9allocatorIcEEEE8FlipFlopNS_4hashIS6_EENS_8equal_toIS6_EENS4_INS_4pairIKS6_S7_EEEEEC1B8ue170006Ev, symObjAddr: 0x0, symBinAddr: 0x1000017EC, symSize: 0x2C }
  - { offsetInCU: 0x27E93, offset: 0x27E93, size: 0x8, addend: 0x0, symName: __ZNSt3__113unordered_mapINS_12basic_stringIcNS_11char_traitsIcEENS_9allocatorIcEEEE8FlipFlopNS_4hashIS6_EENS_8equal_toIS6_EENS4_INS_4pairIKS6_S7_EEEEED1B8ue170006Ev, symObjAddr: 0x2C, symBinAddr: 0x100001818, symSize: 0x2C }
  - { offsetInCU: 0x27EBD, offset: 0x27EBD, size: 0x8, addend: 0x0, symName: __ZNSt3__113unordered_mapINS_12basic_stringIcNS_11char_traitsIcEENS_9allocatorIcEEEE4GateNS_4hashIS6_EENS_8equal_toIS6_EENS4_INS_4pairIKS6_S7_EEEEEC1B8ue170006Ev, symObjAddr: 0x58, symBinAddr: 0x100001844, symSize: 0x2C }
  - { offsetInCU: 0x27EE7, offset: 0x27EE7, size: 0x8, addend: 0x0, symName: __ZNSt3__113unordered_mapINS_12basic_stringIcNS_11char_traitsIcEENS_9allocatorIcEEEE4GateNS_4hashIS6_EENS_8equal_toIS6_EENS4_INS_4pairIKS6_S7_EEEEED1B8ue170006Ev, symObjAddr: 0x84, symBinAddr: 0x100001870, symSize: 0x2C }
  - { offsetInCU: 0x27F11, offset: 0x27F11, size: 0x8, addend: 0x0, symName: __ZN3DieC1Eiiii, symObjAddr: 0xB0, symBinAddr: 0x10000189C, symSize: 0x4C }
  - { offsetInCU: 0x27F73, offset: 0x27F73, size: 0x8, addend: 0x0, symName: __ZN3DieD1Ev, symObjAddr: 0xFC, symBinAddr: 0x1000018E8, symSize: 0x2C }
  - { offsetInCU: 0x27F9F, offset: 0x27F9F, size: 0x8, addend: 0x0, symName: __ZNSt3__113unordered_mapINS_12basic_stringIcNS_11char_traitsIcEENS_9allocatorIcEEEEP9InstanceFNS_4hashIS6_EENS_8equal_toIS6_EENS4_INS_4pairIKS6_S8_EEEEEC1B8ue170006Ev, symObjAddr: 0x128, symBinAddr: 0x100001914, symSize: 0x2C }
  - { offsetInCU: 0x27FC9, offset: 0x27FC9, size: 0x8, addend: 0x0, symName: __ZNSt3__113unordered_mapINS_12basic_stringIcNS_11char_traitsIcEENS_9allocatorIcEEEEP9InstanceFNS_4hashIS6_EENS_8equal_toIS6_EENS4_INS_4pairIKS6_S8_EEEEED1B8ue170006Ev, symObjAddr: 0x154, symBinAddr: 0x100001940, symSize: 0x2C }
  - { offsetInCU: 0x27FF3, offset: 0x27FF3, size: 0x8, addend: 0x0, symName: __ZNSt3__113unordered_mapINS_12basic_stringIcNS_11char_traitsIcEENS_9allocatorIcEEEEP9InstanceGNS_4hashIS6_EENS_8equal_toIS6_EENS4_INS_4pairIKS6_S8_EEEEEC1B8ue170006Ev, symObjAddr: 0x180, symBinAddr: 0x10000196C, symSize: 0x2C }
  - { offsetInCU: 0x2801D, offset: 0x2801D, size: 0x8, addend: 0x0, symName: __ZNSt3__113unordered_mapINS_12basic_stringIcNS_11char_traitsIcEENS_9allocatorIcEEEEP9InstanceGNS_4hashIS6_EENS_8equal_toIS6_EENS4_INS_4pairIKS6_S8_EEEEED1B8ue170006Ev, symObjAddr: 0x1AC, symBinAddr: 0x100001998, symSize: 0x2C }
  - { offsetInCU: 0x28047, offset: 0x28047, size: 0x8, addend: 0x0, symName: __ZNSt3__113unordered_mapINS_12basic_stringIcNS_11char_traitsIcEENS_9allocatorIcEEEEP3NetNS_4hashIS6_EENS_8equal_toIS6_EENS4_INS_4pairIKS6_S8_EEEEEC1B8ue170006Ev, symObjAddr: 0x1D8, symBinAddr: 0x1000019C4, symSize: 0x2C }
  - { offsetInCU: 0x28071, offset: 0x28071, size: 0x8, addend: 0x0, symName: __ZNSt3__113unordered_mapINS_12basic_stringIcNS_11char_traitsIcEENS_9allocatorIcEEEEP3NetNS_4hashIS6_EENS_8equal_toIS6_EENS4_INS_4pairIKS6_S8_EEEEED1B8ue170006Ev, symObjAddr: 0x204, symBinAddr: 0x1000019F0, symSize: 0x2C }
  - { offsetInCU: 0x2809A, offset: 0x2809A, size: 0x8, addend: 0x0, symName: __Z8openFileRKNSt3__112basic_stringIcNS_11char_traitsIcEENS_9allocatorIcEEEE, symObjAddr: 0x230, symBinAddr: 0x100001A1C, symSize: 0x16C }
  - { offsetInCU: 0x281F2, offset: 0x281F2, size: 0x8, addend: 0x0, symName: __ZNSt3__114basic_ifstreamIcNS_11char_traitsIcEEEC1ERKNS_12basic_stringIcS2_NS_9allocatorIcEEEEj, symObjAddr: 0x39C, symBinAddr: 0x100001B88, symSize: 0x16C }
  - { offsetInCU: 0x2823C, offset: 0x2823C, size: 0x8, addend: 0x0, symName: __ZNKSt3__114basic_ifstreamIcNS_11char_traitsIcEEE7is_openEv, symObjAddr: 0x508, symBinAddr: 0x100001CF4, symSize: 0x2C }
  - { offsetInCU: 0x28269, offset: 0x28269, size: 0x8, addend: 0x0, symName: __ZNSt3__114basic_ifstreamIcNS_11char_traitsIcEEED1Ev, symObjAddr: 0x534, symBinAddr: 0x100001D20, symSize: 0x40 }
  - { offsetInCU: 0x28295, offset: 0x28295, size: 0x8, addend: 0x0, symName: __Z9readLinesRNSt3__114basic_ifstreamIcNS_11char_traitsIcEEEE, symObjAddr: 0x574, symBinAddr: 0x100001D60, symSize: 0x171C }
  - { offsetInCU: 0x287D5, offset: 0x287D5, size: 0x8, addend: 0x0, symName: __ZNSt3__112basic_stringIcNS_11char_traitsIcEENS_9allocatorIcEEEC1B8ue170006Ev, symObjAddr: 0x1C90, symBinAddr: 0x10000347C, symSize: 0x2C }
  - { offsetInCU: 0x287FF, offset: 0x287FF, size: 0x8, addend: 0x0, symName: __ZNKSt3__19basic_iosIcNS_11char_traitsIcEEEcvbB8ue170006Ev, symObjAddr: 0x1D18, symBinAddr: 0x100003504, symSize: 0x2C }
  - { offsetInCU: 0x28875, offset: 0x28875, size: 0x8, addend: 0x0, symName: __ZNSt3__119basic_istringstreamIcNS_11char_traitsIcEENS_9allocatorIcEEEC1B8ue170006ERKNS_12basic_stringIcS2_S4_EEj, symObjAddr: 0x1D44, symBinAddr: 0x100003530, symSize: 0xFC }
  - { offsetInCU: 0x288BD, offset: 0x288BD, size: 0x8, addend: 0x0, symName: __ZN3Die6updateEiiii, symObjAddr: 0x21F8, symBinAddr: 0x1000039E4, symSize: 0x64 }
  - { offsetInCU: 0x2891B, offset: 0x2891B, size: 0x8, addend: 0x0, symName: __ZNSt3__119basic_istringstreamIcNS_11char_traitsIcEENS_9allocatorIcEEE3strB8ue170006ERKNS_12basic_stringIcS2_S4_EE, symObjAddr: 0x225C, symBinAddr: 0x100003A48, symSize: 0x30 }
  - { offsetInCU: 0x28950, offset: 0x28950, size: 0x8, addend: 0x0, symName: __ZNSt3__19basic_iosIcNS_11char_traitsIcEEE5clearB8ue170006Ej, symObjAddr: 0x228C, symBinAddr: 0x100003A78, symSize: 0x2C }
  - { offsetInCU: 0x28985, offset: 0x28985, size: 0x8, addend: 0x0, symName: __ZN3PinC1ENSt3__112basic_stringIcNS0_11char_traitsIcEENS0_9allocatorIcEEEEii, symObjAddr: 0x22B8, symBinAddr: 0x100003AA4, symSize: 0x44 }
  - { offsetInCU: 0x289DA, offset: 0x289DA, size: 0x8, addend: 0x0, symName: __ZN3Die8AddInputENSt3__112basic_stringIcNS0_11char_traitsIcEENS0_9allocatorIcEEEEP3Pin, symObjAddr: 0x22FC, symBinAddr: 0x100003AE8, symSize: 0x44 }
  - { offsetInCU: 0x28A22, offset: 0x28A22, size: 0x8, addend: 0x0, symName: __ZNSt3__119basic_istringstreamIcNS_11char_traitsIcEENS_9allocatorIcEEED1Ev, symObjAddr: 0x2340, symBinAddr: 0x100003B2C, symSize: 0x40 }
  - { offsetInCU: 0x28A4F, offset: 0x28A4F, size: 0x8, addend: 0x0, symName: __ZN3Die9AddOutputENSt3__112basic_stringIcNS0_11char_traitsIcEENS0_9allocatorIcEEEEP3Pin, symObjAddr: 0x2380, symBinAddr: 0x100003B6C, symSize: 0x44 }
  - { offsetInCU: 0x28A92, offset: 0x28A92, size: 0x8, addend: 0x0, symName: __ZN8FlipFlopC1ERNSt3__112basic_stringIcNS0_11char_traitsIcEENS0_9allocatorIcEEEEiiii, symObjAddr: 0x23C4, symBinAddr: 0x100003BB0, symSize: 0x54 }
  - { offsetInCU: 0x28B02, offset: 0x28B02, size: 0x8, addend: 0x0, symName: __ZN8FlipFlop6AddPinENSt3__112basic_stringIcNS0_11char_traitsIcEENS0_9allocatorIcEEEEP3Pin, symObjAddr: 0x2418, symBinAddr: 0x100003C04, symSize: 0x44 }
  - { offsetInCU: 0x28B45, offset: 0x28B45, size: 0x8, addend: 0x0, symName: __ZNSt3__113unordered_mapINS_12basic_stringIcNS_11char_traitsIcEENS_9allocatorIcEEEE8FlipFlopNS_4hashIS6_EENS_8equal_toIS6_EENS4_INS_4pairIKS6_S7_EEEEEixERSD_, symObjAddr: 0x245C, symBinAddr: 0x100003C48, symSize: 0x80 }
  - { offsetInCU: 0x28B8B, offset: 0x28B8B, size: 0x8, addend: 0x0, symName: __ZN8FlipFlopaSERKS_, symObjAddr: 0x24DC, symBinAddr: 0x100003CC8, symSize: 0x60 }
  - { offsetInCU: 0x28BBC, offset: 0x28BBC, size: 0x8, addend: 0x0, symName: __ZN8FlipFlopD1Ev, symObjAddr: 0x253C, symBinAddr: 0x100003D28, symSize: 0x2C }
  - { offsetInCU: 0x28BE8, offset: 0x28BE8, size: 0x8, addend: 0x0, symName: __ZN4GateC1ERNSt3__112basic_stringIcNS0_11char_traitsIcEENS0_9allocatorIcEEEEiii, symObjAddr: 0x2568, symBinAddr: 0x100003D54, symSize: 0x4C }
  - { offsetInCU: 0x28C4A, offset: 0x28C4A, size: 0x8, addend: 0x0, symName: __ZN4Gate6AddPinENSt3__112basic_stringIcNS0_11char_traitsIcEENS0_9allocatorIcEEEEP3Pin, symObjAddr: 0x25B4, symBinAddr: 0x100003DA0, symSize: 0x44 }
  - { offsetInCU: 0x28C8D, offset: 0x28C8D, size: 0x8, addend: 0x0, symName: __ZNSt3__113unordered_mapINS_12basic_stringIcNS_11char_traitsIcEENS_9allocatorIcEEEE4GateNS_4hashIS6_EENS_8equal_toIS6_EENS4_INS_4pairIKS6_S7_EEEEEixERSD_, symObjAddr: 0x25F8, symBinAddr: 0x100003DE4, symSize: 0x80 }
  - { offsetInCU: 0x28CCE, offset: 0x28CCE, size: 0x8, addend: 0x0, symName: __ZN4GateaSERKS_, symObjAddr: 0x2678, symBinAddr: 0x100003E64, symSize: 0x5C }
  - { offsetInCU: 0x28CFF, offset: 0x28CFF, size: 0x8, addend: 0x0, symName: __ZN4GateD1Ev, symObjAddr: 0x26D4, symBinAddr: 0x100003EC0, symSize: 0x2C }
  - { offsetInCU: 0x28D2B, offset: 0x28D2B, size: 0x8, addend: 0x0, symName: __ZNSt3__113unordered_mapINS_12basic_stringIcNS_11char_traitsIcEENS_9allocatorIcEEEE8FlipFlopNS_4hashIS6_EENS_8equal_toIS6_EENS4_INS_4pairIKS6_S7_EEEEE4findB8ue170006ERSD_, symObjAddr: 0x2730, symBinAddr: 0x100003F1C, symSize: 0x40 }
  - { offsetInCU: 0x28D60, offset: 0x28D60, size: 0x8, addend: 0x0, symName: __ZNSt3__113unordered_mapINS_12basic_stringIcNS_11char_traitsIcEENS_9allocatorIcEEEE8FlipFlopNS_4hashIS6_EENS_8equal_toIS6_EENS4_INS_4pairIKS6_S7_EEEEE3endB8ue170006Ev, symObjAddr: 0x2770, symBinAddr: 0x100003F5C, symSize: 0x38 }
  - { offsetInCU: 0x28D86, offset: 0x28D86, size: 0x8, addend: 0x0, symName: __ZN9InstanceFC1ENSt3__112basic_stringIcNS0_11char_traitsIcEENS0_9allocatorIcEEEES6_ii, symObjAddr: 0x27A8, symBinAddr: 0x100003F94, symSize: 0x4C }
  - { offsetInCU: 0x28DEE, offset: 0x28DEE, size: 0x8, addend: 0x0, symName: __ZNSt3__113unordered_mapINS_12basic_stringIcNS_11char_traitsIcEENS_9allocatorIcEEEEP9InstanceFNS_4hashIS6_EENS_8equal_toIS6_EENS4_INS_4pairIKS6_S8_EEEEEixERSE_, symObjAddr: 0x27F4, symBinAddr: 0x100003FE0, symSize: 0x80 }
  - { offsetInCU: 0x28E25, offset: 0x28E25, size: 0x8, addend: 0x0, symName: __ZN9InstanceGC1ENSt3__112basic_stringIcNS0_11char_traitsIcEENS0_9allocatorIcEEEES6_ii, symObjAddr: 0x2874, symBinAddr: 0x100004060, symSize: 0x4C }
  - { offsetInCU: 0x28E8D, offset: 0x28E8D, size: 0x8, addend: 0x0, symName: __ZNSt3__113unordered_mapINS_12basic_stringIcNS_11char_traitsIcEENS_9allocatorIcEEEEP9InstanceGNS_4hashIS6_EENS_8equal_toIS6_EENS4_INS_4pairIKS6_S8_EEEEEixERSE_, symObjAddr: 0x28C0, symBinAddr: 0x1000040AC, symSize: 0x80 }
  - { offsetInCU: 0x28EC4, offset: 0x28EC4, size: 0x8, addend: 0x0, symName: __ZN3NetC1ENSt3__112basic_stringIcNS0_11char_traitsIcEENS0_9allocatorIcEEEEi, symObjAddr: 0x2940, symBinAddr: 0x10000412C, symSize: 0x3C }
  - { offsetInCU: 0x28F3F, offset: 0x28F3F, size: 0x8, addend: 0x0, symName: __ZNSt3__118basic_stringstreamIcNS_11char_traitsIcEENS_9allocatorIcEEEC1B8ue170006ERKNS_12basic_stringIcS2_S4_EEj, symObjAddr: 0x297C, symBinAddr: 0x100004168, symSize: 0x110 }
  - { offsetInCU: 0x28F87, offset: 0x28F87, size: 0x8, addend: 0x0, symName: __ZNSt3__113unordered_mapINS_12basic_stringIcNS_11char_traitsIcEENS_9allocatorIcEEEEP9InstanceFNS_4hashIS6_EENS_8equal_toIS6_EENS4_INS_4pairIKS6_S8_EEEEE4findB8ue170006ERSE_, symObjAddr: 0x2CF0, symBinAddr: 0x1000044DC, symSize: 0x40 }
  - { offsetInCU: 0x28FBC, offset: 0x28FBC, size: 0x8, addend: 0x0, symName: __ZNSt3__113unordered_mapINS_12basic_stringIcNS_11char_traitsIcEENS_9allocatorIcEEEEP9InstanceFNS_4hashIS6_EENS_8equal_toIS6_EENS4_INS_4pairIKS6_S8_EEEEE3endB8ue170006Ev, symObjAddr: 0x2D30, symBinAddr: 0x10000451C, symSize: 0x38 }
  - { offsetInCU: 0x28FE2, offset: 0x28FE2, size: 0x8, addend: 0x0, symName: __ZNSt3__113unordered_mapINS_12basic_stringIcNS_11char_traitsIcEENS_9allocatorIcEEEEP3PinNS_4hashIS6_EENS_8equal_toIS6_EENS4_INS_4pairIKS6_S8_EEEEEixERSE_, symObjAddr: 0x2D68, symBinAddr: 0x100004554, symSize: 0x80 }
  - { offsetInCU: 0x2901E, offset: 0x2901E, size: 0x8, addend: 0x0, symName: __ZNSt3__118basic_stringstreamIcNS_11char_traitsIcEENS_9allocatorIcEEED1Ev, symObjAddr: 0x2DE8, symBinAddr: 0x1000045D4, symSize: 0x40 }
  - { offsetInCU: 0x2904B, offset: 0x2904B, size: 0x8, addend: 0x0, symName: __ZNSt3__113unordered_mapINS_12basic_stringIcNS_11char_traitsIcEENS_9allocatorIcEEEEP3PinNS_4hashIS6_EENS_8equal_toIS6_EENS4_INS_4pairIKS6_S8_EEEEE4findB8ue170006ERSE_, symObjAddr: 0x2E58, symBinAddr: 0x100004644, symSize: 0x40 }
  - { offsetInCU: 0x29080, offset: 0x29080, size: 0x8, addend: 0x0, symName: __ZNSt3__113unordered_mapINS_12basic_stringIcNS_11char_traitsIcEENS_9allocatorIcEEEEP3PinNS_4hashIS6_EENS_8equal_toIS6_EENS4_INS_4pairIKS6_S8_EEEEE3endB8ue170006Ev, symObjAddr: 0x2E98, symBinAddr: 0x100004684, symSize: 0x38 }
  - { offsetInCU: 0x290A6, offset: 0x290A6, size: 0x8, addend: 0x0, symName: __ZN3Net6AddPinENSt3__112basic_stringIcNS0_11char_traitsIcEENS0_9allocatorIcEEEEP3Pin, symObjAddr: 0x2ED0, symBinAddr: 0x1000046BC, symSize: 0x98 }
  - { offsetInCU: 0x290EB, offset: 0x290EB, size: 0x8, addend: 0x0, symName: __ZNSt3__113unordered_mapINS_12basic_stringIcNS_11char_traitsIcEENS_9allocatorIcEEEEP3NetNS_4hashIS6_EENS_8equal_toIS6_EENS4_INS_4pairIKS6_S8_EEEEEixERSE_, symObjAddr: 0x2F68, symBinAddr: 0x100004754, symSize: 0x80 }
  - { offsetInCU: 0x29121, offset: 0x29121, size: 0x8, addend: 0x0, symName: __Z9closeFileRNSt3__114basic_ifstreamIcNS_11char_traitsIcEEEE, symObjAddr: 0x2FE8, symBinAddr: 0x1000047D4, symSize: 0x38 }
  - { offsetInCU: 0x2914C, offset: 0x2914C, size: 0x8, addend: 0x0, symName: __ZNSt3__114basic_ifstreamIcNS_11char_traitsIcEEE5closeEv, symObjAddr: 0x3020, symBinAddr: 0x10000480C, symSize: 0x58 }
  - { offsetInCU: 0x29174, offset: 0x29174, size: 0x8, addend: 0x0, symName: _main, symObjAddr: 0x3078, symBinAddr: 0x100004864, symSize: 0x488 }
  - { offsetInCU: 0x291B5, offset: 0x291B5, size: 0x8, addend: 0x0, symName: __ZNSt3__112basic_stringIcNS_11char_traitsIcEENS_9allocatorIcEEEC1B8ue170006ILi0EEEPKc, symObjAddr: 0x3500, symBinAddr: 0x100004CEC, symSize: 0x34 }
  - { offsetInCU: 0x291F4, offset: 0x291F4, size: 0x8, addend: 0x0, symName: __ZNSt3__113basic_ostreamIcNS_11char_traitsIcEEElsB8ue170006EPFRS3_S4_E, symObjAddr: 0x357C, symBinAddr: 0x100004D68, symSize: 0x2C }
  - { offsetInCU: 0x29228, offset: 0x29228, size: 0x8, addend: 0x0, symName: __ZNSt3__113unordered_mapINS_12basic_stringIcNS_11char_traitsIcEENS_9allocatorIcEEEEP3PinNS_4hashIS6_EENS_8equal_toIS6_EENS4_INS_4pairIKS6_S8_EEEEEixEOS6_, symObjAddr: 0x3600, symBinAddr: 0x100004DEC, symSize: 0x80 }
  - { offsetInCU: 0x2925F, offset: 0x2925F, size: 0x8, addend: 0x0, symName: __ZN3Pin5printEv, symObjAddr: 0x3680, symBinAddr: 0x100004E6C, symSize: 0x94 }
  - { offsetInCU: 0x29285, offset: 0x29285, size: 0x8, addend: 0x0, symName: __ZNSt3__113unordered_mapINS_12basic_stringIcNS_11char_traitsIcEENS_9allocatorIcEEEE8FlipFlopNS_4hashIS6_EENS_8equal_toIS6_EENS4_INS_4pairIKS6_S7_EEEEEixEOS6_, symObjAddr: 0x3714, symBinAddr: 0x100004F00, symSize: 0x80 }
  - { offsetInCU: 0x292BC, offset: 0x292BC, size: 0x8, addend: 0x0, symName: __ZN8FlipFlop5printEv, symObjAddr: 0x3794, symBinAddr: 0x100004F80, symSize: 0x1BC }
  - { offsetInCU: 0x292FE, offset: 0x292FE, size: 0x8, addend: 0x0, symName: __ZNSt3__113unordered_mapINS_12basic_stringIcNS_11char_traitsIcEENS_9allocatorIcEEEEP9InstanceFNS_4hashIS6_EENS_8equal_toIS6_EENS4_INS_4pairIKS6_S8_EEEEEixEOS6_, symObjAddr: 0x3950, symBinAddr: 0x10000513C, symSize: 0x80 }
  - { offsetInCU: 0x29335, offset: 0x29335, size: 0x8, addend: 0x0, symName: __ZN9InstanceF5printEv, symObjAddr: 0x39D0, symBinAddr: 0x1000051BC, symSize: 0x58 }
  - { offsetInCU: 0x2935B, offset: 0x2935B, size: 0x8, addend: 0x0, symName: __ZNSt3__113unordered_mapINS_12basic_stringIcNS_11char_traitsIcEENS_9allocatorIcEEEEP3NetNS_4hashIS6_EENS_8equal_toIS6_EENS4_INS_4pairIKS6_S8_EEEEEixEOS6_, symObjAddr: 0x3A28, symBinAddr: 0x100005214, symSize: 0x80 }
  - { offsetInCU: 0x29392, offset: 0x29392, size: 0x8, addend: 0x0, symName: __ZN3Net5printEv, symObjAddr: 0x3AA8, symBinAddr: 0x100005294, symSize: 0xB4 }
  - { offsetInCU: 0x293D5, offset: 0x293D5, size: 0x8, addend: 0x0, symName: __ZN3DieC2Eiiii, symObjAddr: 0x3B5C, symBinAddr: 0x100005348, symSize: 0x8C }
  - { offsetInCU: 0x29437, offset: 0x29437, size: 0x8, addend: 0x0, symName: __ZNSt3__113unordered_mapINS_12basic_stringIcNS_11char_traitsIcEENS_9allocatorIcEEEEP3PinNS_4hashIS6_EENS_8equal_toIS6_EENS4_INS_4pairIKS6_S8_EEEEEC1B8ue170006Ev, symObjAddr: 0x3BE8, symBinAddr: 0x1000053D4, symSize: 0x2C }
  - { offsetInCU: 0x29461, offset: 0x29461, size: 0x8, addend: 0x0, symName: __ZNSt3__113unordered_mapINS_12basic_stringIcNS_11char_traitsIcEENS_9allocatorIcEEEEP3PinNS_4hashIS6_EENS_8equal_toIS6_EENS4_INS_4pairIKS6_S8_EEEEEC2B8ue170006Ev, symObjAddr: 0x3C14, symBinAddr: 0x100005400, symSize: 0x2C }
  - { offsetInCU: 0x2948B, offset: 0x2948B, size: 0x8, addend: 0x0, symName: __ZNSt3__112__hash_tableINS_17__hash_value_typeINS_12basic_stringIcNS_11char_traitsIcEENS_9allocatorIcEEEEP3PinEENS_22__unordered_map_hasherIS7_SA_NS_4hashIS7_EENS_8equal_toIS7_EELb1EEENS_21__unordered_map_equalIS7_SA_SF_SD_Lb1EEENS5_ISA_EEEC1Ev, symObjAddr: 0x3C40, symBinAddr: 0x10000542C, symSize: 0x2C }
  - { offsetInCU: 0x294B7, offset: 0x294B7, size: 0x8, addend: 0x0, symName: __ZNSt3__112__hash_tableINS_17__hash_value_typeINS_12basic_stringIcNS_11char_traitsIcEENS_9allocatorIcEEEEP3PinEENS_22__unordered_map_hasherIS7_SA_NS_4hashIS7_EENS_8equal_toIS7_EELb1EEENS_21__unordered_map_equalIS7_SA_SF_SD_Lb1EEENS5_ISA_EEEC2Ev, symObjAddr: 0x3C6C, symBinAddr: 0x100005458, symSize: 0x7C }
  - { offsetInCU: 0x294E3, offset: 0x294E3, size: 0x8, addend: 0x0, symName: __ZNSt3__110unique_ptrIA_PNS_16__hash_node_baseIPNS_11__hash_nodeINS_17__hash_value_typeINS_12basic_stringIcNS_11char_traitsIcEENS_9allocatorIcEEEEP3PinEEPvEEEENS_25__bucket_list_deallocatorINS7_ISH_EEEEEC1B8ue170006ILb1EvEEv, symObjAddr: 0x3CE8, symBinAddr: 0x1000054D4, symSize: 0x2C }
  - { offsetInCU: 0x29518, offset: 0x29518, size: 0x8, addend: 0x0, symName: __ZNSt3__117__compressed_pairINS_16__hash_node_baseIPNS_11__hash_nodeINS_17__hash_value_typeINS_12basic_stringIcNS_11char_traitsIcEENS_9allocatorIcEEEEP3PinEEPvEEEENS7_ISE_EEEC1B8ue170006ILb1EvEEv, symObjAddr: 0x3D14, symBinAddr: 0x100005500, symSize: 0x2C }
  - { offsetInCU: 0x29557, offset: 0x29557, size: 0x8, addend: 0x0, symName: __ZNSt3__117__compressed_pairImNS_22__unordered_map_hasherINS_12basic_stringIcNS_11char_traitsIcEENS_9allocatorIcEEEENS_17__hash_value_typeIS7_P3PinEENS_4hashIS7_EENS_8equal_toIS7_EELb1EEEEC1B8ue170006IiNS_18__default_init_tagEEEOT_OT0_, symObjAddr: 0x3D4C, symBinAddr: 0x100005538, symSize: 0x3C }
  - { offsetInCU: 0x295B4, offset: 0x295B4, size: 0x8, addend: 0x0, symName: __ZNSt3__117__compressed_pairIfNS_21__unordered_map_equalINS_12basic_stringIcNS_11char_traitsIcEENS_9allocatorIcEEEENS_17__hash_value_typeIS7_P3PinEENS_8equal_toIS7_EENS_4hashIS7_EELb1EEEEC1B8ue170006IfNS_18__default_init_tagEEEOT_OT0_, symObjAddr: 0x3D88, symBinAddr: 0x100005574, symSize: 0x3C }
  - { offsetInCU: 0x2960C, offset: 0x2960C, size: 0x8, addend: 0x0, symName: __ZNSt3__110unique_ptrIA_PNS_16__hash_node_baseIPNS_11__hash_nodeINS_17__hash_value_typeINS_12basic_stringIcNS_11char_traitsIcEENS_9allocatorIcEEEEP3PinEEPvEEEENS_25__bucket_list_deallocatorINS7_ISH_EEEEEC2B8ue170006ILb1EvEEv, symObjAddr: 0x3DC4, symBinAddr: 0x1000055B0, symSize: 0x3C }
  - { offsetInCU: 0x29646, offset: 0x29646, size: 0x8, addend: 0x0, symName: __ZNSt3__117__compressed_pairIPPNS_16__hash_node_baseIPNS_11__hash_nodeINS_17__hash_value_typeINS_12basic_stringIcNS_11char_traitsIcEENS_9allocatorIcEEEEP3PinEEPvEEEENS_25__bucket_list_deallocatorINS7_ISH_EEEEEC1B8ue170006INS_16__value_init_tagESO_EEOT_OT0_, symObjAddr: 0x3E00, symBinAddr: 0x1000055EC, symSize: 0x3C }
  - { offsetInCU: 0x2969E, offset: 0x2969E, size: 0x8, addend: 0x0, symName: __ZNSt3__117__compressed_pairIPPNS_16__hash_node_baseIPNS_11__hash_nodeINS_17__hash_value_typeINS_12basic_stringIcNS_11char_traitsIcEENS_9allocatorIcEEEEP3PinEEPvEEEENS_25__bucket_list_deallocatorINS7_ISH_EEEEEC2B8ue170006INS_16__value_init_tagESO_EEOT_OT0_, symObjAddr: 0x3E3C, symBinAddr: 0x100005628, symSize: 0x40 }
  - { offsetInCU: 0x296F6, offset: 0x296F6, size: 0x8, addend: 0x0, symName: __ZNSt3__122__compressed_pair_elemIPPNS_16__hash_node_baseIPNS_11__hash_nodeINS_17__hash_value_typeINS_12basic_stringIcNS_11char_traitsIcEENS_9allocatorIcEEEEP3PinEEPvEEEELi0ELb0EEC2B8ue170006ENS_16__value_init_tagE, symObjAddr: 0x3E7C, symBinAddr: 0x100005668, symSize: 0x18 }
  - { offsetInCU: 0x2972B, offset: 0x2972B, size: 0x8, addend: 0x0, symName: __ZNSt3__122__compressed_pair_elemINS_25__bucket_list_deallocatorINS_9allocatorIPNS_16__hash_node_baseIPNS_11__hash_nodeINS_17__hash_value_typeINS_12basic_stringIcNS_11char_traitsIcEENS2_IcEEEEP3PinEEPvEEEEEEEELi1ELb0EEC2B8ue170006ENS_16__value_init_tagE, symObjAddr: 0x3E94, symBinAddr: 0x100005680, symSize: 0x2C }
  - { offsetInCU: 0x29760, offset: 0x29760, size: 0x8, addend: 0x0, symName: __ZNSt3__125__bucket_list_deallocatorINS_9allocatorIPNS_16__hash_node_baseIPNS_11__hash_nodeINS_17__hash_value_typeINS_12basic_stringIcNS_11char_traitsIcEENS1_IcEEEEP3PinEEPvEEEEEEEC1B8ue170006Ev, symObjAddr: 0x3EC0, symBinAddr: 0x1000056AC, symSize: 0x2C }
  - { offsetInCU: 0x2978A, offset: 0x2978A, size: 0x8, addend: 0x0, symName: __ZNSt3__125__bucket_list_deallocatorINS_9allocatorIPNS_16__hash_node_baseIPNS_11__hash_nodeINS_17__hash_value_typeINS_12basic_stringIcNS_11char_traitsIcEENS1_IcEEEEP3PinEEPvEEEEEEEC2B8ue170006Ev, symObjAddr: 0x3EEC, symBinAddr: 0x1000056D8, symSize: 0x40 }
  - { offsetInCU: 0x297B4, offset: 0x297B4, size: 0x8, addend: 0x0, symName: __ZNSt3__117__compressed_pairImNS_9allocatorIPNS_16__hash_node_baseIPNS_11__hash_nodeINS_17__hash_value_typeINS_12basic_stringIcNS_11char_traitsIcEENS1_IcEEEEP3PinEEPvEEEEEEEC1B8ue170006IiNS_18__default_init_tagEEEOT_OT0_, symObjAddr: 0x3F2C, symBinAddr: 0x100005718, symSize: 0x3C }
  - { offsetInCU: 0x2980C, offset: 0x2980C, size: 0x8, addend: 0x0, symName: __ZNSt3__117__compressed_pairImNS_9allocatorIPNS_16__hash_node_baseIPNS_11__hash_nodeINS_17__hash_value_typeINS_12basic_stringIcNS_11char_traitsIcEENS1_IcEEEEP3PinEEPvEEEEEEEC2B8ue170006IiNS_18__default_init_tagEEEOT_OT0_, symObjAddr: 0x3F68, symBinAddr: 0x100005754, symSize: 0x40 }
  - { offsetInCU: 0x29864, offset: 0x29864, size: 0x8, addend: 0x0, symName: __ZNSt3__122__compressed_pair_elemImLi0ELb0EEC2B8ue170006IivEEOT_, symObjAddr: 0x3FA8, symBinAddr: 0x100005794, symSize: 0x24 }
  - { offsetInCU: 0x298A6, offset: 0x298A6, size: 0x8, addend: 0x0, symName: __ZNSt3__122__compressed_pair_elemINS_9allocatorIPNS_16__hash_node_baseIPNS_11__hash_nodeINS_17__hash_value_typeINS_12basic_stringIcNS_11char_traitsIcEENS1_IcEEEEP3PinEEPvEEEEEELi1ELb1EEC2B8ue170006ENS_18__default_init_tagE, symObjAddr: 0x3FCC, symBinAddr: 0x1000057B8, symSize: 0x2C }
  - { offsetInCU: 0x298DB, offset: 0x298DB, size: 0x8, addend: 0x0, symName: __ZNSt3__19allocatorIPNS_16__hash_node_baseIPNS_11__hash_nodeINS_17__hash_value_typeINS_12basic_stringIcNS_11char_traitsIcEENS0_IcEEEEP3PinEEPvEEEEEC2B8ue170006Ev, symObjAddr: 0x3FF8, symBinAddr: 0x1000057E4, symSize: 0x2C }
  - { offsetInCU: 0x29905, offset: 0x29905, size: 0x8, addend: 0x0, symName: __ZNSt3__116__non_trivial_ifILb1ENS_9allocatorIPNS_16__hash_node_baseIPNS_11__hash_nodeINS_17__hash_value_typeINS_12basic_stringIcNS_11char_traitsIcEENS1_IcEEEEP3PinEEPvEEEEEEEC2B8ue170006Ev, symObjAddr: 0x4024, symBinAddr: 0x100005810, symSize: 0x14 }
  - { offsetInCU: 0x2992F, offset: 0x2992F, size: 0x8, addend: 0x0, symName: __ZNSt3__117__compressed_pairINS_16__hash_node_baseIPNS_11__hash_nodeINS_17__hash_value_typeINS_12basic_stringIcNS_11char_traitsIcEENS_9allocatorIcEEEEP3PinEEPvEEEENS7_ISE_EEEC2B8ue170006ILb1EvEEv, symObjAddr: 0x4038, symBinAddr: 0x100005824, symSize: 0x34 }
  - { offsetInCU: 0x29964, offset: 0x29964, size: 0x8, addend: 0x0, symName: __ZNSt3__122__compressed_pair_elemINS_16__hash_node_baseIPNS_11__hash_nodeINS_17__hash_value_typeINS_12basic_stringIcNS_11char_traitsIcEENS_9allocatorIcEEEEP3PinEEPvEEEELi0ELb0EEC2B8ue170006ENS_16__value_init_tagE, symObjAddr: 0x406C, symBinAddr: 0x100005858, symSize: 0x2C }
  - { offsetInCU: 0x29999, offset: 0x29999, size: 0x8, addend: 0x0, symName: __ZNSt3__122__compressed_pair_elemINS_9allocatorINS_11__hash_nodeINS_17__hash_value_typeINS_12basic_stringIcNS_11char_traitsIcEENS1_IcEEEEP3PinEEPvEEEELi1ELb1EEC2B8ue170006ENS_16__value_init_tagE, symObjAddr: 0x4098, symBinAddr: 0x100005884, symSize: 0x2C }
  - { offsetInCU: 0x299CE, offset: 0x299CE, size: 0x8, addend: 0x0, symName: __ZNSt3__116__hash_node_baseIPNS_11__hash_nodeINS_17__hash_value_typeINS_12basic_stringIcNS_11char_traitsIcEENS_9allocatorIcEEEEP3PinEEPvEEEC1B8ue170006Ev, symObjAddr: 0x40C4, symBinAddr: 0x1000058B0, symSize: 0x2C }
  - { offsetInCU: 0x299F8, offset: 0x299F8, size: 0x8, addend: 0x0, symName: __ZNSt3__116__hash_node_baseIPNS_11__hash_nodeINS_17__hash_value_typeINS_12basic_stringIcNS_11char_traitsIcEENS_9allocatorIcEEEEP3PinEEPvEEEC2B8ue170006Ev, symObjAddr: 0x40F0, symBinAddr: 0x1000058DC, symSize: 0x18 }
  - { offsetInCU: 0x29A22, offset: 0x29A22, size: 0x8, addend: 0x0, symName: __ZNSt3__19allocatorINS_11__hash_nodeINS_17__hash_value_typeINS_12basic_stringIcNS_11char_traitsIcEENS0_IcEEEEP3PinEEPvEEEC2B8ue170006Ev, symObjAddr: 0x4108, symBinAddr: 0x1000058F4, symSize: 0x2C }
  - { offsetInCU: 0x29A4C, offset: 0x29A4C, size: 0x8, addend: 0x0, symName: __ZNSt3__116__non_trivial_ifILb1ENS_9allocatorINS_11__hash_nodeINS_17__hash_value_typeINS_12basic_stringIcNS_11char_traitsIcEENS1_IcEEEEP3PinEEPvEEEEEC2B8ue170006Ev, symObjAddr: 0x4134, symBinAddr: 0x100005920, symSize: 0x14 }
  - { offsetInCU: 0x29A76, offset: 0x29A76, size: 0x8, addend: 0x0, symName: __ZNSt3__117__compressed_pairImNS_22__unordered_map_hasherINS_12basic_stringIcNS_11char_traitsIcEENS_9allocatorIcEEEENS_17__hash_value_typeIS7_P3PinEENS_4hashIS7_EENS_8equal_toIS7_EELb1EEEEC2B8ue170006IiNS_18__default_init_tagEEEOT_OT0_, symObjAddr: 0x4148, symBinAddr: 0x100005934, symSize: 0x40 }
  - { offsetInCU: 0x29ACE, offset: 0x29ACE, size: 0x8, addend: 0x0, symName: __ZNSt3__122__compressed_pair_elemINS_22__unordered_map_hasherINS_12basic_stringIcNS_11char_traitsIcEENS_9allocatorIcEEEENS_17__hash_value_typeIS7_P3PinEENS_4hashIS7_EENS_8equal_toIS7_EELb1EEELi1ELb1EEC2B8ue170006ENS_18__default_init_tagE, symObjAddr: 0x4188, symBinAddr: 0x100005974, symSize: 0x2C }
  - { offsetInCU: 0x29B03, offset: 0x29B03, size: 0x8, addend: 0x0, symName: __ZNSt3__122__unordered_map_hasherINS_12basic_stringIcNS_11char_traitsIcEENS_9allocatorIcEEEENS_17__hash_value_typeIS6_P3PinEENS_4hashIS6_EENS_8equal_toIS6_EELb1EEC2B8ue170006Ev, symObjAddr: 0x41B4, symBinAddr: 0x1000059A0, symSize: 0x14 }
  - { offsetInCU: 0x29B2D, offset: 0x29B2D, size: 0x8, addend: 0x0, symName: __ZNSt3__117__compressed_pairIfNS_21__unordered_map_equalINS_12basic_stringIcNS_11char_traitsIcEENS_9allocatorIcEEEENS_17__hash_value_typeIS7_P3PinEENS_8equal_toIS7_EENS_4hashIS7_EELb1EEEEC2B8ue170006IfNS_18__default_init_tagEEEOT_OT0_, symObjAddr: 0x41C8, symBinAddr: 0x1000059B4, symSize: 0x40 }
  - { offsetInCU: 0x29B85, offset: 0x29B85, size: 0x8, addend: 0x0, symName: __ZNSt3__122__compressed_pair_elemIfLi0ELb0EEC2B8ue170006IfvEEOT_, symObjAddr: 0x4208, symBinAddr: 0x1000059F4, symSize: 0x24 }
  - { offsetInCU: 0x29BC7, offset: 0x29BC7, size: 0x8, addend: 0x0, symName: __ZNSt3__122__compressed_pair_elemINS_21__unordered_map_equalINS_12basic_stringIcNS_11char_traitsIcEENS_9allocatorIcEEEENS_17__hash_value_typeIS7_P3PinEENS_8equal_toIS7_EENS_4hashIS7_EELb1EEELi1ELb1EEC2B8ue170006ENS_18__default_init_tagE, symObjAddr: 0x422C, symBinAddr: 0x100005A18, symSize: 0x2C }
  - { offsetInCU: 0x29BFC, offset: 0x29BFC, size: 0x8, addend: 0x0, symName: __ZNSt3__121__unordered_map_equalINS_12basic_stringIcNS_11char_traitsIcEENS_9allocatorIcEEEENS_17__hash_value_typeIS6_P3PinEENS_8equal_toIS6_EENS_4hashIS6_EELb1EEC2B8ue170006Ev, symObjAddr: 0x4258, symBinAddr: 0x100005A44, symSize: 0x14 }
  - { offsetInCU: 0x29C26, offset: 0x29C26, size: 0x8, addend: 0x0, symName: __ZN3DieD2Ev, symObjAddr: 0x426C, symBinAddr: 0x100005A58, symSize: 0x3C }
  - { offsetInCU: 0x29C52, offset: 0x29C52, size: 0x8, addend: 0x0, symName: __ZNSt3__113unordered_mapINS_12basic_stringIcNS_11char_traitsIcEENS_9allocatorIcEEEEP3PinNS_4hashIS6_EENS_8equal_toIS6_EENS4_INS_4pairIKS6_S8_EEEEED1B8ue170006Ev, symObjAddr: 0x42A8, symBinAddr: 0x100005A94, symSize: 0x2C }
  - { offsetInCU: 0x29C7C, offset: 0x29C7C, size: 0x8, addend: 0x0, symName: __ZNSt3__113unordered_mapINS_12basic_stringIcNS_11char_traitsIcEENS_9allocatorIcEEEEP3PinNS_4hashIS6_EENS_8equal_toIS6_EENS4_INS_4pairIKS6_S8_EEEEED2B8ue170006Ev, symObjAddr: 0x42D4, symBinAddr: 0x100005AC0, symSize: 0x2C }
  - { offsetInCU: 0x29CA6, offset: 0x29CA6, size: 0x8, addend: 0x0, symName: __ZNSt3__112__hash_tableINS_17__hash_value_typeINS_12basic_stringIcNS_11char_traitsIcEENS_9allocatorIcEEEEP3PinEENS_22__unordered_map_hasherIS7_SA_NS_4hashIS7_EENS_8equal_toIS7_EELb1EEENS_21__unordered_map_equalIS7_SA_SF_SD_Lb1EEENS5_ISA_EEED1Ev, symObjAddr: 0x4300, symBinAddr: 0x100005AEC, symSize: 0x2C }
  - { offsetInCU: 0x29CD2, offset: 0x29CD2, size: 0x8, addend: 0x0, symName: __ZNSt3__112__hash_tableINS_17__hash_value_typeINS_12basic_stringIcNS_11char_traitsIcEENS_9allocatorIcEEEEP3PinEENS_22__unordered_map_hasherIS7_SA_NS_4hashIS7_EENS_8equal_toIS7_EELb1EEENS_21__unordered_map_equalIS7_SA_SF_SD_Lb1EEENS5_ISA_EEED2Ev, symObjAddr: 0x432C, symBinAddr: 0x100005B18, symSize: 0x48 }
  - { offsetInCU: 0x29CFE, offset: 0x29CFE, size: 0x8, addend: 0x0, symName: __ZNSt3__112__hash_tableINS_17__hash_value_typeINS_12basic_stringIcNS_11char_traitsIcEENS_9allocatorIcEEEEP3PinEENS_22__unordered_map_hasherIS7_SA_NS_4hashIS7_EENS_8equal_toIS7_EELb1EEENS_21__unordered_map_equalIS7_SA_SF_SD_Lb1EEENS5_ISA_EEE17__deallocate_nodeEPNS_16__hash_node_baseIPNS_11__hash_nodeISA_PvEEEE, symObjAddr: 0x4374, symBinAddr: 0x100005B60, symSize: 0xA8 }
  - { offsetInCU: 0x29D68, offset: 0x29D68, size: 0x8, addend: 0x0, symName: __ZNSt3__117__compressed_pairINS_16__hash_node_baseIPNS_11__hash_nodeINS_17__hash_value_typeINS_12basic_stringIcNS_11char_traitsIcEENS_9allocatorIcEEEEP3PinEEPvEEEENS7_ISE_EEE5firstB8ue170006Ev, symObjAddr: 0x441C, symBinAddr: 0x100005C08, symSize: 0x24 }
  - { offsetInCU: 0x29D8E, offset: 0x29D8E, size: 0x8, addend: 0x0, symName: __ZNSt3__110unique_ptrIA_PNS_16__hash_node_baseIPNS_11__hash_nodeINS_17__hash_value_typeINS_12basic_stringIcNS_11char_traitsIcEENS_9allocatorIcEEEEP3PinEEPvEEEENS_25__bucket_list_deallocatorINS7_ISH_EEEEED1B8ue170006Ev, symObjAddr: 0x4440, symBinAddr: 0x100005C2C, symSize: 0x2C }
  - { offsetInCU: 0x29DB8, offset: 0x29DB8, size: 0x8, addend: 0x0, symName: __ZNSt3__112__hash_tableINS_17__hash_value_typeINS_12basic_stringIcNS_11char_traitsIcEENS_9allocatorIcEEEEP3PinEENS_22__unordered_map_hasherIS7_SA_NS_4hashIS7_EENS_8equal_toIS7_EELb1EEENS_21__unordered_map_equalIS7_SA_SF_SD_Lb1EEENS5_ISA_EEE12__node_allocB8ue170006Ev, symObjAddr: 0x446C, symBinAddr: 0x100005C58, symSize: 0x28 }
  - { offsetInCU: 0x29DDE, offset: 0x29DDE, size: 0x8, addend: 0x0, symName: __ZNSt3__116__hash_node_baseIPNS_11__hash_nodeINS_17__hash_value_typeINS_12basic_stringIcNS_11char_traitsIcEENS_9allocatorIcEEEEP3PinEEPvEEE8__upcastB8ue170006Ev, symObjAddr: 0x4494, symBinAddr: 0x100005C80, symSize: 0x24 }
  - { offsetInCU: 0x29E04, offset: 0x29E04, size: 0x8, addend: 0x0, symName: __ZNSt3__116allocator_traitsINS_9allocatorINS_11__hash_nodeINS_17__hash_value_typeINS_12basic_stringIcNS_11char_traitsIcEENS1_IcEEEEP3PinEEPvEEEEE7destroyB8ue170006INS_4pairIKS8_SA_EEvvEEvRSE_PT_, symObjAddr: 0x44B8, symBinAddr: 0x100005CA4, symSize: 0x28 }
  - { offsetInCU: 0x29E3F, offset: 0x29E3F, size: 0x8, addend: 0x0, symName: __ZNSt3__122__hash_key_value_typesINS_17__hash_value_typeINS_12basic_stringIcNS_11char_traitsIcEENS_9allocatorIcEEEEP3PinEEE9__get_ptrB8ue170006ERSA_, symObjAddr: 0x44E0, symBinAddr: 0x100005CCC, symSize: 0x24 }
  - { offsetInCU: 0x29E62, offset: 0x29E62, size: 0x8, addend: 0x0, symName: __ZNSt3__116allocator_traitsINS_9allocatorINS_11__hash_nodeINS_17__hash_value_typeINS_12basic_stringIcNS_11char_traitsIcEENS1_IcEEEEP3PinEEPvEEEEE10deallocateB8ue170006ERSE_PSD_m, symObjAddr: 0x4504, symBinAddr: 0x100005CF0, symSize: 0x34 }
  - { offsetInCU: 0x29EA4, offset: 0x29EA4, size: 0x8, addend: 0x0, symName: __ZNSt3__117__compressed_pairINS_16__hash_node_baseIPNS_11__hash_nodeINS_17__hash_value_typeINS_12basic_stringIcNS_11char_traitsIcEENS_9allocatorIcEEEEP3PinEEPvEEEENS7_ISE_EEE6secondB8ue170006Ev, symObjAddr: 0x4538, symBinAddr: 0x100005D24, symSize: 0x24 }
  - { offsetInCU: 0x29ECA, offset: 0x29ECA, size: 0x8, addend: 0x0, symName: __ZNSt3__122__compressed_pair_elemINS_9allocatorINS_11__hash_nodeINS_17__hash_value_typeINS_12basic_stringIcNS_11char_traitsIcEENS1_IcEEEEP3PinEEPvEEEELi1ELb1EE5__getB8ue170006Ev, symObjAddr: 0x455C, symBinAddr: 0x100005D48, symSize: 0x14 }
  - { offsetInCU: 0x29EF0, offset: 0x29EF0, size: 0x8, addend: 0x0, symName: __ZNSt3__114pointer_traitsIPNS_16__hash_node_baseIPNS_11__hash_nodeINS_17__hash_value_typeINS_12basic_stringIcNS_11char_traitsIcEENS_9allocatorIcEEEEP3PinEEPvEEEEE10pointer_toB8ue170006ERSG_, symObjAddr: 0x4570, symBinAddr: 0x100005D5C, symSize: 0x14 }
  - { offsetInCU: 0x29F13, offset: 0x29F13, size: 0x8, addend: 0x0, symName: __ZNSt3__14pairIKNS_12basic_stringIcNS_11char_traitsIcEENS_9allocatorIcEEEEP3PinED1Ev, symObjAddr: 0x4584, symBinAddr: 0x100005D70, symSize: 0x2C }
  - { offsetInCU: 0x29F3F, offset: 0x29F3F, size: 0x8, addend: 0x0, symName: __ZNSt3__14pairIKNS_12basic_stringIcNS_11char_traitsIcEENS_9allocatorIcEEEEP3PinED2Ev, symObjAddr: 0x45B0, symBinAddr: 0x100005D9C, symSize: 0x2C }
  - { offsetInCU: 0x29F6B, offset: 0x29F6B, size: 0x8, addend: 0x0, symName: __ZNSt3__117__hash_value_typeINS_12basic_stringIcNS_11char_traitsIcEENS_9allocatorIcEEEEP3PinE11__get_valueB8ue170006Ev, symObjAddr: 0x45DC, symBinAddr: 0x100005DC8, symSize: 0x24 }
  - { offsetInCU: 0x29F91, offset: 0x29F91, size: 0x8, addend: 0x0, symName: __ZNSt3__19allocatorINS_11__hash_nodeINS_17__hash_value_typeINS_12basic_stringIcNS_11char_traitsIcEENS0_IcEEEEP3PinEEPvEEE10deallocateB8ue170006EPSC_m, symObjAddr: 0x4638, symBinAddr: 0x100005E24, symSize: 0x44 }
  - { offsetInCU: 0x29FD3, offset: 0x29FD3, size: 0x8, addend: 0x0, symName: __ZNSt3__122__compressed_pair_elemINS_16__hash_node_baseIPNS_11__hash_nodeINS_17__hash_value_typeINS_12basic_stringIcNS_11char_traitsIcEENS_9allocatorIcEEEEP3PinEEPvEEEELi0ELb0EE5__getB8ue170006Ev, symObjAddr: 0x47A4, symBinAddr: 0x100005F90, symSize: 0x14 }
  - { offsetInCU: 0x29FF9, offset: 0x29FF9, size: 0x8, addend: 0x0, symName: __ZNSt3__110unique_ptrIA_PNS_16__hash_node_baseIPNS_11__hash_nodeINS_17__hash_value_typeINS_12basic_stringIcNS_11char_traitsIcEENS_9allocatorIcEEEEP3PinEEPvEEEENS_25__bucket_list_deallocatorINS7_ISH_EEEEED2B8ue170006Ev, symObjAddr: 0x47B8, symBinAddr: 0x100005FA4, symSize: 0x30 }
  - { offsetInCU: 0x2A023, offset: 0x2A023, size: 0x8, addend: 0x0, symName: __ZNSt3__110unique_ptrIA_PNS_16__hash_node_baseIPNS_11__hash_nodeINS_17__hash_value_typeINS_12basic_stringIcNS_11char_traitsIcEENS_9allocatorIcEEEEP3PinEEPvEEEENS_25__bucket_list_deallocatorINS7_ISH_EEEEE5resetB8ue170006EDn, symObjAddr: 0x47E8, symBinAddr: 0x100005FD4, symSize: 0x6C }
  - { offsetInCU: 0x2A064, offset: 0x2A064, size: 0x8, addend: 0x0, symName: __ZNSt3__117__compressed_pairIPPNS_16__hash_node_baseIPNS_11__hash_nodeINS_17__hash_value_typeINS_12basic_stringIcNS_11char_traitsIcEENS_9allocatorIcEEEEP3PinEEPvEEEENS_25__bucket_list_deallocatorINS7_ISH_EEEEE5firstB8ue170006Ev, symObjAddr: 0x4854, symBinAddr: 0x100006040, symSize: 0x24 }
  - { offsetInCU: 0x2A08A, offset: 0x2A08A, size: 0x8, addend: 0x0, symName: __ZNSt3__117__compressed_pairIPPNS_16__hash_node_baseIPNS_11__hash_nodeINS_17__hash_value_typeINS_12basic_stringIcNS_11char_traitsIcEENS_9allocatorIcEEEEP3PinEEPvEEEENS_25__bucket_list_deallocatorINS7_ISH_EEEEE6secondB8ue170006Ev, symObjAddr: 0x4878, symBinAddr: 0x100006064, symSize: 0x28 }
  - { offsetInCU: 0x2A0B0, offset: 0x2A0B0, size: 0x8, addend: 0x0, symName: __ZNSt3__125__bucket_list_deallocatorINS_9allocatorIPNS_16__hash_node_baseIPNS_11__hash_nodeINS_17__hash_value_typeINS_12basic_stringIcNS_11char_traitsIcEENS1_IcEEEEP3PinEEPvEEEEEEEclB8ue170006EPSH_, symObjAddr: 0x48A0, symBinAddr: 0x10000608C, symSize: 0x58 }
  - { offsetInCU: 0x2A0E5, offset: 0x2A0E5, size: 0x8, addend: 0x0, symName: __ZNSt3__122__compressed_pair_elemIPPNS_16__hash_node_baseIPNS_11__hash_nodeINS_17__hash_value_typeINS_12basic_stringIcNS_11char_traitsIcEENS_9allocatorIcEEEEP3PinEEPvEEEELi0ELb0EE5__getB8ue170006Ev, symObjAddr: 0x48F8, symBinAddr: 0x1000060E4, symSize: 0x14 }
  - { offsetInCU: 0x2A10B, offset: 0x2A10B, size: 0x8, addend: 0x0, symName: __ZNSt3__122__compressed_pair_elemINS_25__bucket_list_deallocatorINS_9allocatorIPNS_16__hash_node_baseIPNS_11__hash_nodeINS_17__hash_value_typeINS_12basic_stringIcNS_11char_traitsIcEENS2_IcEEEEP3PinEEPvEEEEEEEELi1ELb0EE5__getB8ue170006Ev, symObjAddr: 0x490C, symBinAddr: 0x1000060F8, symSize: 0x14 }
  - { offsetInCU: 0x2A131, offset: 0x2A131, size: 0x8, addend: 0x0, symName: __ZNSt3__116allocator_traitsINS_9allocatorIPNS_16__hash_node_baseIPNS_11__hash_nodeINS_17__hash_value_typeINS_12basic_stringIcNS_11char_traitsIcEENS1_IcEEEEP3PinEEPvEEEEEEE10deallocateB8ue170006ERSI_PSH_m, symObjAddr: 0x4920, symBinAddr: 0x10000610C, symSize: 0x34 }
  - { offsetInCU: 0x2A173, offset: 0x2A173, size: 0x8, addend: 0x0, symName: __ZNSt3__125__bucket_list_deallocatorINS_9allocatorIPNS_16__hash_node_baseIPNS_11__hash_nodeINS_17__hash_value_typeINS_12basic_stringIcNS_11char_traitsIcEENS1_IcEEEEP3PinEEPvEEEEEEE7__allocB8ue170006Ev, symObjAddr: 0x4954, symBinAddr: 0x100006140, symSize: 0x24 }
  - { offsetInCU: 0x2A199, offset: 0x2A199, size: 0x8, addend: 0x0, symName: __ZNSt3__125__bucket_list_deallocatorINS_9allocatorIPNS_16__hash_node_baseIPNS_11__hash_nodeINS_17__hash_value_typeINS_12basic_stringIcNS_11char_traitsIcEENS1_IcEEEEP3PinEEPvEEEEEEE4sizeB8ue170006Ev, symObjAddr: 0x4978, symBinAddr: 0x100006164, symSize: 0x24 }
  - { offsetInCU: 0x2A1BF, offset: 0x2A1BF, size: 0x8, addend: 0x0, symName: __ZNSt3__19allocatorIPNS_16__hash_node_baseIPNS_11__hash_nodeINS_17__hash_value_typeINS_12basic_stringIcNS_11char_traitsIcEENS0_IcEEEEP3PinEEPvEEEEE10deallocateB8ue170006EPSG_m, symObjAddr: 0x499C, symBinAddr: 0x100006188, symSize: 0x40 }
  - { offsetInCU: 0x2A201, offset: 0x2A201, size: 0x8, addend: 0x0, symName: __ZNSt3__117__compressed_pairImNS_9allocatorIPNS_16__hash_node_baseIPNS_11__hash_nodeINS_17__hash_value_typeINS_12basic_stringIcNS_11char_traitsIcEENS1_IcEEEEP3PinEEPvEEEEEEE6secondB8ue170006Ev, symObjAddr: 0x49DC, symBinAddr: 0x1000061C8, symSize: 0x24 }
  - { offsetInCU: 0x2A227, offset: 0x2A227, size: 0x8, addend: 0x0, symName: __ZNSt3__122__compressed_pair_elemINS_9allocatorIPNS_16__hash_node_baseIPNS_11__hash_nodeINS_17__hash_value_typeINS_12basic_stringIcNS_11char_traitsIcEENS1_IcEEEEP3PinEEPvEEEEEELi1ELb1EE5__getB8ue170006Ev, symObjAddr: 0x4A00, symBinAddr: 0x1000061EC, symSize: 0x14 }
  - { offsetInCU: 0x2A24D, offset: 0x2A24D, size: 0x8, addend: 0x0, symName: __ZNSt3__117__compressed_pairImNS_9allocatorIPNS_16__hash_node_baseIPNS_11__hash_nodeINS_17__hash_value_typeINS_12basic_stringIcNS_11char_traitsIcEENS1_IcEEEEP3PinEEPvEEEEEEE5firstB8ue170006Ev, symObjAddr: 0x4A14, symBinAddr: 0x100006200, symSize: 0x24 }
  - { offsetInCU: 0x2A273, offset: 0x2A273, size: 0x8, addend: 0x0, symName: __ZNSt3__122__compressed_pair_elemImLi0ELb0EE5__getB8ue170006Ev, symObjAddr: 0x4A38, symBinAddr: 0x100006224, symSize: 0x14 }
  - { offsetInCU: 0x2A299, offset: 0x2A299, size: 0x8, addend: 0x0, symName: __ZNSt3__114basic_ifstreamIcNS_11char_traitsIcEEED2Ev, symObjAddr: 0x4A4C, symBinAddr: 0x100006238, symSize: 0x64 }
  - { offsetInCU: 0x2A2D3, offset: 0x2A2D3, size: 0x8, addend: 0x0, symName: __ZTv0_n24_NSt3__114basic_ifstreamIcNS_11char_traitsIcEEED1Ev, symObjAddr: 0x4AB0, symBinAddr: 0x10000629C, symSize: 0x28 }
  - { offsetInCU: 0x2A2EA, offset: 0x2A2EA, size: 0x8, addend: 0x0, symName: __ZN3PinC2ENSt3__112basic_stringIcNS0_11char_traitsIcEENS0_9allocatorIcEEEEii, symObjAddr: 0x4AD8, symBinAddr: 0x1000062C4, symSize: 0x58 }
  - { offsetInCU: 0x2A33F, offset: 0x2A33F, size: 0x8, addend: 0x0, symName: __ZNSt3__119basic_istringstreamIcNS_11char_traitsIcEENS_9allocatorIcEEED2Ev, symObjAddr: 0x4B30, symBinAddr: 0x10000631C, symSize: 0x64 }
  - { offsetInCU: 0x2A379, offset: 0x2A379, size: 0x8, addend: 0x0, symName: __ZTv0_n24_NSt3__119basic_istringstreamIcNS_11char_traitsIcEENS_9allocatorIcEEED1Ev, symObjAddr: 0x4B94, symBinAddr: 0x100006380, symSize: 0x28 }
  - { offsetInCU: 0x2A395, offset: 0x2A395, size: 0x8, addend: 0x0, symName: __ZNSt3__115basic_stringbufIcNS_11char_traitsIcEENS_9allocatorIcEEED1Ev, symObjAddr: 0x4BBC, symBinAddr: 0x1000063A8, symSize: 0x2C }
  - { offsetInCU: 0x2A3C2, offset: 0x2A3C2, size: 0x8, addend: 0x0, symName: __ZNSt3__115basic_stringbufIcNS_11char_traitsIcEENS_9allocatorIcEEED2Ev, symObjAddr: 0x4BE8, symBinAddr: 0x1000063D4, symSize: 0x48 }
  - { offsetInCU: 0x2A3EF, offset: 0x2A3EF, size: 0x8, addend: 0x0, symName: __ZN8FlipFlopC2ERNSt3__112basic_stringIcNS0_11char_traitsIcEENS0_9allocatorIcEEEEiiii, symObjAddr: 0x4C30, symBinAddr: 0x10000641C, symSize: 0x78 }
  - { offsetInCU: 0x2A45F, offset: 0x2A45F, size: 0x8, addend: 0x0, symName: __ZNSt3__113unordered_mapINS_12basic_stringIcNS_11char_traitsIcEENS_9allocatorIcEEEEP3PinNS_4hashIS6_EENS_8equal_toIS6_EENS4_INS_4pairIKS6_S8_EEEEEaSB8ue170006ERKSH_, symObjAddr: 0x4CA8, symBinAddr: 0x100006494, symSize: 0x34 }
  - { offsetInCU: 0x2A494, offset: 0x2A494, size: 0x8, addend: 0x0, symName: __ZNSt3__112__hash_tableINS_17__hash_value_typeINS_12basic_stringIcNS_11char_traitsIcEENS_9allocatorIcEEEEP3PinEENS_22__unordered_map_hasherIS7_SA_NS_4hashIS7_EENS_8equal_toIS7_EELb1EEENS_21__unordered_map_equalIS7_SA_SF_SD_Lb1EEENS5_ISA_EEEaSERKSK_, symObjAddr: 0x4CDC, symBinAddr: 0x1000064C8, symSize: 0xB8 }
  - { offsetInCU: 0x2A4CB, offset: 0x2A4CB, size: 0x8, addend: 0x0, symName: __ZNSt3__112__hash_tableINS_17__hash_value_typeINS_12basic_stringIcNS_11char_traitsIcEENS_9allocatorIcEEEEP3PinEENS_22__unordered_map_hasherIS7_SA_NS_4hashIS7_EENS_8equal_toIS7_EELb1EEENS_21__unordered_map_equalIS7_SA_SF_SD_Lb1EEENS5_ISA_EEE19__copy_assign_allocB8ue170006ERKSK_, symObjAddr: 0x4D94, symBinAddr: 0x100006580, symSize: 0x2C }
  - { offsetInCU: 0x2A500, offset: 0x2A500, size: 0x8, addend: 0x0, symName: __ZNKSt3__112__hash_tableINS_17__hash_value_typeINS_12basic_stringIcNS_11char_traitsIcEENS_9allocatorIcEEEEP3PinEENS_22__unordered_map_hasherIS7_SA_NS_4hashIS7_EENS_8equal_toIS7_EELb1EEENS_21__unordered_map_equalIS7_SA_SF_SD_Lb1EEENS5_ISA_EEE13hash_functionB8ue170006Ev, symObjAddr: 0x4DC0, symBinAddr: 0x1000065AC, symSize: 0x28 }
  - { offsetInCU: 0x2A526, offset: 0x2A526, size: 0x8, addend: 0x0, symName: __ZNSt3__112__hash_tableINS_17__hash_value_typeINS_12basic_stringIcNS_11char_traitsIcEENS_9allocatorIcEEEEP3PinEENS_22__unordered_map_hasherIS7_SA_NS_4hashIS7_EENS_8equal_toIS7_EELb1EEENS_21__unordered_map_equalIS7_SA_SF_SD_Lb1EEENS5_ISA_EEE13hash_functionB8ue170006Ev, symObjAddr: 0x4DE8, symBinAddr: 0x1000065D4, symSize: 0x28 }
  - { offsetInCU: 0x2A54C, offset: 0x2A54C, size: 0x8, addend: 0x0, symName: __ZNKSt3__112__hash_tableINS_17__hash_value_typeINS_12basic_stringIcNS_11char_traitsIcEENS_9allocatorIcEEEEP3PinEENS_22__unordered_map_hasherIS7_SA_NS_4hashIS7_EENS_8equal_toIS7_EELb1EEENS_21__unordered_map_equalIS7_SA_SF_SD_Lb1EEENS5_ISA_EEE6key_eqB8ue170006Ev, symObjAddr: 0x4E10, symBinAddr: 0x1000065FC, symSize: 0x28 }
  - { offsetInCU: 0x2A572, offset: 0x2A572, size: 0x8, addend: 0x0, symName: __ZNSt3__112__hash_tableINS_17__hash_value_typeINS_12basic_stringIcNS_11char_traitsIcEENS_9allocatorIcEEEEP3PinEENS_22__unordered_map_hasherIS7_SA_NS_4hashIS7_EENS_8equal_toIS7_EELb1EEENS_21__unordered_map_equalIS7_SA_SF_SD_Lb1EEENS5_ISA_EEE6key_eqB8ue170006Ev, symObjAddr: 0x4E38, symBinAddr: 0x100006624, symSize: 0x28 }
  - { offsetInCU: 0x2A598, offset: 0x2A598, size: 0x8, addend: 0x0, symName: __ZNKSt3__112__hash_tableINS_17__hash_value_typeINS_12basic_stringIcNS_11char_traitsIcEENS_9allocatorIcEEEEP3PinEENS_22__unordered_map_hasherIS7_SA_NS_4hashIS7_EENS_8equal_toIS7_EELb1EEENS_21__unordered_map_equalIS7_SA_SF_SD_Lb1EEENS5_ISA_EEE15max_load_factorB8ue170006Ev, symObjAddr: 0x4E60, symBinAddr: 0x10000664C, symSize: 0x2C }
  - { offsetInCU: 0x2A5BE, offset: 0x2A5BE, size: 0x8, addend: 0x0, symName: __ZNSt3__112__hash_tableINS_17__hash_value_typeINS_12basic_stringIcNS_11char_traitsIcEENS_9allocatorIcEEEEP3PinEENS_22__unordered_map_hasherIS7_SA_NS_4hashIS7_EENS_8equal_toIS7_EELb1EEENS_21__unordered_map_equalIS7_SA_SF_SD_Lb1EEENS5_ISA_EEE15max_load_factorB8ue170006Ev, symObjAddr: 0x4E8C, symBinAddr: 0x100006678, symSize: 0x28 }
  - { offsetInCU: 0x2A5E4, offset: 0x2A5E4, size: 0x8, addend: 0x0, symName: __ZNSt3__112__hash_tableINS_17__hash_value_typeINS_12basic_stringIcNS_11char_traitsIcEENS_9allocatorIcEEEEP3PinEENS_22__unordered_map_hasherIS7_SA_NS_4hashIS7_EENS_8equal_toIS7_EELb1EEENS_21__unordered_map_equalIS7_SA_SF_SD_Lb1EEENS5_ISA_EEE14__assign_multiINS_21__hash_const_iteratorIPNS_11__hash_nodeISA_PvEEEEEEvT_SS_, symObjAddr: 0x4EB4, symBinAddr: 0x1000066A0, symSize: 0x1B8 }
  - { offsetInCU: 0x2A665, offset: 0x2A665, size: 0x8, addend: 0x0, symName: __ZNKSt3__112__hash_tableINS_17__hash_value_typeINS_12basic_stringIcNS_11char_traitsIcEENS_9allocatorIcEEEEP3PinEENS_22__unordered_map_hasherIS7_SA_NS_4hashIS7_EENS_8equal_toIS7_EELb1EEENS_21__unordered_map_equalIS7_SA_SF_SD_Lb1EEENS5_ISA_EEE5beginEv, symObjAddr: 0x506C, symBinAddr: 0x100006858, symSize: 0x38 }
  - { offsetInCU: 0x2A68D, offset: 0x2A68D, size: 0x8, addend: 0x0, symName: __ZNKSt3__112__hash_tableINS_17__hash_value_typeINS_12basic_stringIcNS_11char_traitsIcEENS_9allocatorIcEEEEP3PinEENS_22__unordered_map_hasherIS7_SA_NS_4hashIS7_EENS_8equal_toIS7_EELb1EEENS_21__unordered_map_equalIS7_SA_SF_SD_Lb1EEENS5_ISA_EEE3endEv, symObjAddr: 0x50A4, symBinAddr: 0x100006890, symSize: 0x2C }
  - { offsetInCU: 0x2A6B5, offset: 0x2A6B5, size: 0x8, addend: 0x0, symName: __ZNSt3__112__hash_tableINS_17__hash_value_typeINS_12basic_stringIcNS_11char_traitsIcEENS_9allocatorIcEEEEP3PinEENS_22__unordered_map_hasherIS7_SA_NS_4hashIS7_EENS_8equal_toIS7_EELb1EEENS_21__unordered_map_equalIS7_SA_SF_SD_Lb1EEENS5_ISA_EEE19__copy_assign_allocB8ue170006ERKSK_NS_17integral_constantIbLb0EEE, symObjAddr: 0x50D0, symBinAddr: 0x1000068BC, symSize: 0x14 }
  - { offsetInCU: 0x2A6F3, offset: 0x2A6F3, size: 0x8, addend: 0x0, symName: __ZNKSt3__117__compressed_pairImNS_22__unordered_map_hasherINS_12basic_stringIcNS_11char_traitsIcEENS_9allocatorIcEEEENS_17__hash_value_typeIS7_P3PinEENS_4hashIS7_EENS_8equal_toIS7_EELb1EEEE6secondB8ue170006Ev, symObjAddr: 0x50E4, symBinAddr: 0x1000068D0, symSize: 0x24 }
  - { offsetInCU: 0x2A719, offset: 0x2A719, size: 0x8, addend: 0x0, symName: __ZNKSt3__122__compressed_pair_elemINS_22__unordered_map_hasherINS_12basic_stringIcNS_11char_traitsIcEENS_9allocatorIcEEEENS_17__hash_value_typeIS7_P3PinEENS_4hashIS7_EENS_8equal_toIS7_EELb1EEELi1ELb1EE5__getB8ue170006Ev, symObjAddr: 0x5108, symBinAddr: 0x1000068F4, symSize: 0x14 }
  - { offsetInCU: 0x2A73F, offset: 0x2A73F, size: 0x8, addend: 0x0, symName: __ZNSt3__117__compressed_pairImNS_22__unordered_map_hasherINS_12basic_stringIcNS_11char_traitsIcEENS_9allocatorIcEEEENS_17__hash_value_typeIS7_P3PinEENS_4hashIS7_EENS_8equal_toIS7_EELb1EEEE6secondB8ue170006Ev, symObjAddr: 0x511C, symBinAddr: 0x100006908, symSize: 0x24 }
  - { offsetInCU: 0x2A765, offset: 0x2A765, size: 0x8, addend: 0x0, symName: __ZNSt3__122__compressed_pair_elemINS_22__unordered_map_hasherINS_12basic_stringIcNS_11char_traitsIcEENS_9allocatorIcEEEENS_17__hash_value_typeIS7_P3PinEENS_4hashIS7_EENS_8equal_toIS7_EELb1EEELi1ELb1EE5__getB8ue170006Ev, symObjAddr: 0x5140, symBinAddr: 0x10000692C, symSize: 0x14 }
  - { offsetInCU: 0x2A78B, offset: 0x2A78B, size: 0x8, addend: 0x0, symName: __ZNKSt3__117__compressed_pairIfNS_21__unordered_map_equalINS_12basic_stringIcNS_11char_traitsIcEENS_9allocatorIcEEEENS_17__hash_value_typeIS7_P3PinEENS_8equal_toIS7_EENS_4hashIS7_EELb1EEEE6secondB8ue170006Ev, symObjAddr: 0x5154, symBinAddr: 0x100006940, symSize: 0x24 }
  - { offsetInCU: 0x2A7B1, offset: 0x2A7B1, size: 0x8, addend: 0x0, symName: __ZNKSt3__122__compressed_pair_elemINS_21__unordered_map_equalINS_12basic_stringIcNS_11char_traitsIcEENS_9allocatorIcEEEENS_17__hash_value_typeIS7_P3PinEENS_8equal_toIS7_EENS_4hashIS7_EELb1EEELi1ELb1EE5__getB8ue170006Ev, symObjAddr: 0x5178, symBinAddr: 0x100006964, symSize: 0x14 }
  - { offsetInCU: 0x2A7D7, offset: 0x2A7D7, size: 0x8, addend: 0x0, symName: __ZNSt3__117__compressed_pairIfNS_21__unordered_map_equalINS_12basic_stringIcNS_11char_traitsIcEENS_9allocatorIcEEEENS_17__hash_value_typeIS7_P3PinEENS_8equal_toIS7_EENS_4hashIS7_EELb1EEEE6secondB8ue170006Ev, symObjAddr: 0x518C, symBinAddr: 0x100006978, symSize: 0x24 }
  - { offsetInCU: 0x2A7FD, offset: 0x2A7FD, size: 0x8, addend: 0x0, symName: __ZNSt3__122__compressed_pair_elemINS_21__unordered_map_equalINS_12basic_stringIcNS_11char_traitsIcEENS_9allocatorIcEEEENS_17__hash_value_typeIS7_P3PinEENS_8equal_toIS7_EENS_4hashIS7_EELb1EEELi1ELb1EE5__getB8ue170006Ev, symObjAddr: 0x51B0, symBinAddr: 0x10000699C, symSize: 0x14 }
  - { offsetInCU: 0x2A823, offset: 0x2A823, size: 0x8, addend: 0x0, symName: __ZNKSt3__117__compressed_pairIfNS_21__unordered_map_equalINS_12basic_stringIcNS_11char_traitsIcEENS_9allocatorIcEEEENS_17__hash_value_typeIS7_P3PinEENS_8equal_toIS7_EENS_4hashIS7_EELb1EEEE5firstB8ue170006Ev, symObjAddr: 0x51C4, symBinAddr: 0x1000069B0, symSize: 0x24 }
  - { offsetInCU: 0x2A849, offset: 0x2A849, size: 0x8, addend: 0x0, symName: __ZNKSt3__122__compressed_pair_elemIfLi0ELb0EE5__getB8ue170006Ev, symObjAddr: 0x51E8, symBinAddr: 0x1000069D4, symSize: 0x14 }
  - { offsetInCU: 0x2A86F, offset: 0x2A86F, size: 0x8, addend: 0x0, symName: __ZNSt3__117__compressed_pairIfNS_21__unordered_map_equalINS_12basic_stringIcNS_11char_traitsIcEENS_9allocatorIcEEEENS_17__hash_value_typeIS7_P3PinEENS_8equal_toIS7_EENS_4hashIS7_EELb1EEEE5firstB8ue170006Ev, symObjAddr: 0x51FC, symBinAddr: 0x1000069E8, symSize: 0x24 }
  - { offsetInCU: 0x2A895, offset: 0x2A895, size: 0x8, addend: 0x0, symName: __ZNSt3__122__compressed_pair_elemIfLi0ELb0EE5__getB8ue170006Ev, symObjAddr: 0x5220, symBinAddr: 0x100006A0C, symSize: 0x14 }
  - { offsetInCU: 0x2A8BB, offset: 0x2A8BB, size: 0x8, addend: 0x0, symName: __ZNKSt3__112__hash_tableINS_17__hash_value_typeINS_12basic_stringIcNS_11char_traitsIcEENS_9allocatorIcEEEEP3PinEENS_22__unordered_map_hasherIS7_SA_NS_4hashIS7_EENS_8equal_toIS7_EELb1EEENS_21__unordered_map_equalIS7_SA_SF_SD_Lb1EEENS5_ISA_EEE12bucket_countB8ue170006Ev, symObjAddr: 0x5234, symBinAddr: 0x100006A20, symSize: 0x28 }
  - { offsetInCU: 0x2A8E1, offset: 0x2A8E1, size: 0x8, addend: 0x0, symName: __ZNSt3__112__hash_tableINS_17__hash_value_typeINS_12basic_stringIcNS_11char_traitsIcEENS_9allocatorIcEEEEP3PinEENS_22__unordered_map_hasherIS7_SA_NS_4hashIS7_EENS_8equal_toIS7_EELb1EEENS_21__unordered_map_equalIS7_SA_SF_SD_Lb1EEENS5_ISA_EEE8__detachEv, symObjAddr: 0x525C, symBinAddr: 0x100006A48, symSize: 0xB4 }
  - { offsetInCU: 0x2A93C, offset: 0x2A93C, size: 0x8, addend: 0x0, symName: __ZNKSt3__121__hash_const_iteratorIPNS_11__hash_nodeINS_17__hash_value_typeINS_12basic_stringIcNS_11char_traitsIcEENS_9allocatorIcEEEEP3PinEEPvEEEdeB8ue170006Ev, symObjAddr: 0x5344, symBinAddr: 0x100006B30, symSize: 0x2C }
  - { offsetInCU: 0x2A962, offset: 0x2A962, size: 0x8, addend: 0x0, symName: __ZNSt3__117__hash_value_typeINS_12basic_stringIcNS_11char_traitsIcEENS_9allocatorIcEEEEP3PinEaSB8ue170006ERKS9_, symObjAddr: 0x5370, symBinAddr: 0x100006B5C, symSize: 0x60 }
  - { offsetInCU: 0x2A997, offset: 0x2A997, size: 0x8, addend: 0x0, symName: __ZNSt3__112__hash_tableINS_17__hash_value_typeINS_12basic_stringIcNS_11char_traitsIcEENS_9allocatorIcEEEEP3PinEENS_22__unordered_map_hasherIS7_SA_NS_4hashIS7_EENS_8equal_toIS7_EELb1EEENS_21__unordered_map_equalIS7_SA_SF_SD_Lb1EEENS5_ISA_EEE19__node_insert_multiEPNS_11__hash_nodeISA_PvEE, symObjAddr: 0x53D0, symBinAddr: 0x100006BBC, symSize: 0x8C }
  - { offsetInCU: 0x2A9DD, offset: 0x2A9DD, size: 0x8, addend: 0x0, symName: __ZNSt3__121__hash_const_iteratorIPNS_11__hash_nodeINS_17__hash_value_typeINS_12basic_stringIcNS_11char_traitsIcEENS_9allocatorIcEEEEP3PinEEPvEEEppB8ue170006Ev, symObjAddr: 0x545C, symBinAddr: 0x100006C48, symSize: 0x20 }
  - { offsetInCU: 0x2AA03, offset: 0x2AA03, size: 0x8, addend: 0x0, symName: __ZNSt3__112__hash_tableINS_17__hash_value_typeINS_12basic_stringIcNS_11char_traitsIcEENS_9allocatorIcEEEEP3PinEENS_22__unordered_map_hasherIS7_SA_NS_4hashIS7_EENS_8equal_toIS7_EELb1EEENS_21__unordered_map_equalIS7_SA_SF_SD_Lb1EEENS5_ISA_EEE14__insert_multiB8ue170006IRKNS_4pairIKS7_S9_EEEENS_15__hash_iteratorIPNS_11__hash_nodeISA_PvEEEEOT_, symObjAddr: 0x547C, symBinAddr: 0x100006C68, symSize: 0x34 }
  - { offsetInCU: 0x2AA41, offset: 0x2AA41, size: 0x8, addend: 0x0, symName: __ZNSt3__122__hash_key_value_typesINS_17__hash_value_typeINS_12basic_stringIcNS_11char_traitsIcEENS_9allocatorIcEEEEP3PinEEE11__get_valueB8ue170006IKSA_EENS_9enable_ifIXsr17__is_same_uncvrefIT_SA_EE5valueERKNS_4pairIKS7_S9_EEE4typeERSF_, symObjAddr: 0x54B0, symBinAddr: 0x100006C9C, symSize: 0x24 }
  - { offsetInCU: 0x2AA6D, offset: 0x2AA6D, size: 0x8, addend: 0x0, symName: __ZNKSt3__110unique_ptrIA_PNS_16__hash_node_baseIPNS_11__hash_nodeINS_17__hash_value_typeINS_12basic_stringIcNS_11char_traitsIcEENS_9allocatorIcEEEEP3PinEEPvEEEENS_25__bucket_list_deallocatorINS7_ISH_EEEEE11get_deleterB8ue170006Ev, symObjAddr: 0x54D4, symBinAddr: 0x100006CC0, symSize: 0x24 }
  - { offsetInCU: 0x2AA93, offset: 0x2AA93, size: 0x8, addend: 0x0, symName: __ZNKSt3__125__bucket_list_deallocatorINS_9allocatorIPNS_16__hash_node_baseIPNS_11__hash_nodeINS_17__hash_value_typeINS_12basic_stringIcNS_11char_traitsIcEENS1_IcEEEEP3PinEEPvEEEEEEE4sizeB8ue170006Ev, symObjAddr: 0x54F8, symBinAddr: 0x100006CE4, symSize: 0x28 }
  - { offsetInCU: 0x2AAB9, offset: 0x2AAB9, size: 0x8, addend: 0x0, symName: __ZNKSt3__117__compressed_pairIPPNS_16__hash_node_baseIPNS_11__hash_nodeINS_17__hash_value_typeINS_12basic_stringIcNS_11char_traitsIcEENS_9allocatorIcEEEEP3PinEEPvEEEENS_25__bucket_list_deallocatorINS7_ISH_EEEEE6secondB8ue170006Ev, symObjAddr: 0x5520, symBinAddr: 0x100006D0C, symSize: 0x28 }
  - { offsetInCU: 0x2AADF, offset: 0x2AADF, size: 0x8, addend: 0x0, symName: __ZNKSt3__122__compressed_pair_elemINS_25__bucket_list_deallocatorINS_9allocatorIPNS_16__hash_node_baseIPNS_11__hash_nodeINS_17__hash_value_typeINS_12basic_stringIcNS_11char_traitsIcEENS2_IcEEEEP3PinEEPvEEEEEEEELi1ELb0EE5__getB8ue170006Ev, symObjAddr: 0x5548, symBinAddr: 0x100006D34, symSize: 0x14 }
  - { offsetInCU: 0x2AB05, offset: 0x2AB05, size: 0x8, addend: 0x0, symName: __ZNKSt3__117__compressed_pairImNS_9allocatorIPNS_16__hash_node_baseIPNS_11__hash_nodeINS_17__hash_value_typeINS_12basic_stringIcNS_11char_traitsIcEENS1_IcEEEEP3PinEEPvEEEEEEE5firstB8ue170006Ev, symObjAddr: 0x555C, symBinAddr: 0x100006D48, symSize: 0x24 }
  - { offsetInCU: 0x2AB2B, offset: 0x2AB2B, size: 0x8, addend: 0x0, symName: __ZNKSt3__122__compressed_pair_elemImLi0ELb0EE5__getB8ue170006Ev, symObjAddr: 0x5580, symBinAddr: 0x100006D6C, symSize: 0x14 }
  - { offsetInCU: 0x2AB51, offset: 0x2AB51, size: 0x8, addend: 0x0, symName: __ZNKSt3__110unique_ptrIA_PNS_16__hash_node_baseIPNS_11__hash_nodeINS_17__hash_value_typeINS_12basic_stringIcNS_11char_traitsIcEENS_9allocatorIcEEEEP3PinEEPvEEEENS_25__bucket_list_deallocatorINS7_ISH_EEEEEixB8ue170006Em, symObjAddr: 0x5594, symBinAddr: 0x100006D80, symSize: 0x34 }
  - { offsetInCU: 0x2AB86, offset: 0x2AB86, size: 0x8, addend: 0x0, symName: __ZNSt3__112__hash_tableINS_17__hash_value_typeINS_12basic_stringIcNS_11char_traitsIcEENS_9allocatorIcEEEEP3PinEENS_22__unordered_map_hasherIS7_SA_NS_4hashIS7_EENS_8equal_toIS7_EELb1EEENS_21__unordered_map_equalIS7_SA_SF_SD_Lb1EEENS5_ISA_EEE4sizeB8ue170006Ev, symObjAddr: 0x55C8, symBinAddr: 0x100006DB4, symSize: 0x28 }
  - { offsetInCU: 0x2ABAC, offset: 0x2ABAC, size: 0x8, addend: 0x0, symName: __ZNKSt3__117__compressed_pairIPPNS_16__hash_node_baseIPNS_11__hash_nodeINS_17__hash_value_typeINS_12basic_stringIcNS_11char_traitsIcEENS_9allocatorIcEEEEP3PinEEPvEEEENS_25__bucket_list_deallocatorINS7_ISH_EEEEE5firstB8ue170006Ev, symObjAddr: 0x55F0, symBinAddr: 0x100006DDC, symSize: 0x24 }
  - { offsetInCU: 0x2ABD2, offset: 0x2ABD2, size: 0x8, addend: 0x0, symName: __ZNKSt3__122__compressed_pair_elemIPPNS_16__hash_node_baseIPNS_11__hash_nodeINS_17__hash_value_typeINS_12basic_stringIcNS_11char_traitsIcEENS_9allocatorIcEEEEP3PinEEPvEEEELi0ELb0EE5__getB8ue170006Ev, symObjAddr: 0x5614, symBinAddr: 0x100006E00, symSize: 0x14 }
  - { offsetInCU: 0x2ABF8, offset: 0x2ABF8, size: 0x8, addend: 0x0, symName: __ZNSt3__117__compressed_pairImNS_22__unordered_map_hasherINS_12basic_stringIcNS_11char_traitsIcEENS_9allocatorIcEEEENS_17__hash_value_typeIS7_P3PinEENS_4hashIS7_EENS_8equal_toIS7_EELb1EEEE5firstB8ue170006Ev, symObjAddr: 0x5628, symBinAddr: 0x100006E14, symSize: 0x24 }
  - { offsetInCU: 0x2AC1E, offset: 0x2AC1E, size: 0x8, addend: 0x0, symName: __ZNKSt3__117__hash_value_typeINS_12basic_stringIcNS_11char_traitsIcEENS_9allocatorIcEEEEP3PinE11__get_valueB8ue170006Ev, symObjAddr: 0x567C, symBinAddr: 0x100006E68, symSize: 0x24 }
  - { offsetInCU: 0x2AC44, offset: 0x2AC44, size: 0x8, addend: 0x0, symName: __ZNSt3__117__hash_value_typeINS_12basic_stringIcNS_11char_traitsIcEENS_9allocatorIcEEEEP3PinE5__refB8ue170006Ev, symObjAddr: 0x56A0, symBinAddr: 0x100006E8C, symSize: 0x44 }
  - { offsetInCU: 0x2AC79, offset: 0x2AC79, size: 0x8, addend: 0x0, symName: __ZNSt3__14pairIRNS_12basic_stringIcNS_11char_traitsIcEENS_9allocatorIcEEEERP3PinEaSB8ue170006IKS6_S9_LPv0EEERSB_RKNS0_IT_T0_EE, symObjAddr: 0x56E4, symBinAddr: 0x100006ED0, symSize: 0x48 }
  - { offsetInCU: 0x2ACC6, offset: 0x2ACC6, size: 0x8, addend: 0x0, symName: __ZNSt3__14pairIRNS_12basic_stringIcNS_11char_traitsIcEENS_9allocatorIcEEEERP3PinEC1B8ue170006ILb1ELPv0EEES7_SA_, symObjAddr: 0x5764, symBinAddr: 0x100006F50, symSize: 0x3C }
  - { offsetInCU: 0x2AD1C, offset: 0x2AD1C, size: 0x8, addend: 0x0, symName: __ZNSt3__14pairIRNS_12basic_stringIcNS_11char_traitsIcEENS_9allocatorIcEEEERP3PinEC2B8ue170006ILb1ELPv0EEES7_SA_, symObjAddr: 0x57A0, symBinAddr: 0x100006F8C, symSize: 0x2C }
  - { offsetInCU: 0x2AD72, offset: 0x2AD72, size: 0x8, addend: 0x0, symName: __ZNKSt3__122__unordered_map_hasherINS_12basic_stringIcNS_11char_traitsIcEENS_9allocatorIcEEEENS_17__hash_value_typeIS6_P3PinEENS_4hashIS6_EENS_8equal_toIS6_EELb1EEclB8ue170006ERKSA_, symObjAddr: 0x57CC, symBinAddr: 0x100006FB8, symSize: 0x3C }
  - { offsetInCU: 0x2ADA7, offset: 0x2ADA7, size: 0x8, addend: 0x0, symName: __ZNSt3__112__hash_tableINS_17__hash_value_typeINS_12basic_stringIcNS_11char_traitsIcEENS_9allocatorIcEEEEP3PinEENS_22__unordered_map_hasherIS7_SA_NS_4hashIS7_EENS_8equal_toIS7_EELb1EEENS_21__unordered_map_equalIS7_SA_SF_SD_Lb1EEENS5_ISA_EEE27__node_insert_multi_prepareEmRSA_, symObjAddr: 0x5808, symBinAddr: 0x100006FF4, symSize: 0x29C }
  - { offsetInCU: 0x2AE38, offset: 0x2AE38, size: 0x8, addend: 0x0, symName: __ZNKSt3__116__hash_node_baseIPNS_11__hash_nodeINS_17__hash_value_typeINS_12basic_stringIcNS_11char_traitsIcEENS_9allocatorIcEEEEP3PinEEPvEEE6__hashB8ue170006Ev, symObjAddr: 0x5AA4, symBinAddr: 0x100007290, symSize: 0x18 }
  - { offsetInCU: 0x2AE5E, offset: 0x2AE5E, size: 0x8, addend: 0x0, symName: __ZNSt3__112__hash_tableINS_17__hash_value_typeINS_12basic_stringIcNS_11char_traitsIcEENS_9allocatorIcEEEEP3PinEENS_22__unordered_map_hasherIS7_SA_NS_4hashIS7_EENS_8equal_toIS7_EELb1EEENS_21__unordered_map_equalIS7_SA_SF_SD_Lb1EEENS5_ISA_EEE27__node_insert_multi_performEPNS_11__hash_nodeISA_PvEEPNS_16__hash_node_baseISO_EE, symObjAddr: 0x5ABC, symBinAddr: 0x1000072A8, symSize: 0x1B8 }
  - { offsetInCU: 0x2AEDF, offset: 0x2AEDF, size: 0x8, addend: 0x0, symName: __ZNSt3__116__hash_node_baseIPNS_11__hash_nodeINS_17__hash_value_typeINS_12basic_stringIcNS_11char_traitsIcEENS_9allocatorIcEEEEP3PinEEPvEEE5__ptrB8ue170006Ev, symObjAddr: 0x5C74, symBinAddr: 0x100007460, symSize: 0x24 }
  - { offsetInCU: 0x2AF05, offset: 0x2AF05, size: 0x8, addend: 0x0, symName: __ZNSt3__115__hash_iteratorIPNS_11__hash_nodeINS_17__hash_value_typeINS_12basic_stringIcNS_11char_traitsIcEENS_9allocatorIcEEEEP3PinEEPvEEEC1B8ue170006EPNS_16__hash_node_baseISE_EE, symObjAddr: 0x5C98, symBinAddr: 0x100007484, symSize: 0x34 }
  - { offsetInCU: 0x2AF3E, offset: 0x2AF3E, size: 0x8, addend: 0x0, symName: __ZNKSt3__113__string_hashIcNS_9allocatorIcEEEclB8ue170006ERKNS_12basic_stringIcNS_11char_traitsIcEES2_EE, symObjAddr: 0x5CCC, symBinAddr: 0x1000074B8, symSize: 0x64 }
  - { offsetInCU: 0x2AF73, offset: 0x2AF73, size: 0x8, addend: 0x0, symName: __ZNKSt3__112basic_stringIcNS_11char_traitsIcEENS_9allocatorIcEEE4dataB8ue170006Ev, symObjAddr: 0x5D6C, symBinAddr: 0x100007558, symSize: 0x28 }
  - { offsetInCU: 0x2AF99, offset: 0x2AF99, size: 0x8, addend: 0x0, symName: __ZNKSt3__112basic_stringIcNS_11char_traitsIcEENS_9allocatorIcEEE4sizeB8ue170006Ev, symObjAddr: 0x5D94, symBinAddr: 0x100007580, symSize: 0x54 }
  - { offsetInCU: 0x2AFBF, offset: 0x2AFBF, size: 0x8, addend: 0x0, symName: __ZNKSt3__121__murmur2_or_cityhashImLm64EEclB8ue170006EPKvm, symObjAddr: 0x5DE8, symBinAddr: 0x1000075D4, symSize: 0x410 }
  - { offsetInCU: 0x2B059, offset: 0x2B059, size: 0x8, addend: 0x0, symName: __ZNSt3__121__murmur2_or_cityhashImLm64EE18__hash_len_0_to_16B8ue170006EPKcm, symObjAddr: 0x61F8, symBinAddr: 0x1000079E4, symSize: 0x1C0 }
  - { offsetInCU: 0x2B132, offset: 0x2B132, size: 0x8, addend: 0x0, symName: __ZNSt3__121__murmur2_or_cityhashImLm64EE19__hash_len_17_to_32B8ue170006EPKcm, symObjAddr: 0x63B8, symBinAddr: 0x100007BA4, symSize: 0x130 }
  - { offsetInCU: 0x2B19B, offset: 0x2B19B, size: 0x8, addend: 0x0, symName: __ZNSt3__121__murmur2_or_cityhashImLm64EE19__hash_len_33_to_64B8ue170006EPKcm, symObjAddr: 0x64E8, symBinAddr: 0x100007CD4, symSize: 0x2B8 }
  - { offsetInCU: 0x2B250, offset: 0x2B250, size: 0x8, addend: 0x0, symName: __ZNSt3__121__murmur2_or_cityhashImLm64EE13__hash_len_16B8ue170006Emm, symObjAddr: 0x67C0, symBinAddr: 0x100007FAC, symSize: 0x80 }
  - { offsetInCU: 0x2B2AB, offset: 0x2B2AB, size: 0x8, addend: 0x0, symName: __ZNSt3__121__murmur2_or_cityhashImLm64EE29__weak_hash_len_32_with_seedsB8ue170006EPKcmm, symObjAddr: 0x6840, symBinAddr: 0x10000802C, symSize: 0x88 }
  - { offsetInCU: 0x2B2EA, offset: 0x2B2EA, size: 0x8, addend: 0x0, symName: __ZNSt3__121__murmur2_or_cityhashImLm64EE8__rotateB8ue170006Emi, symObjAddr: 0x68C8, symBinAddr: 0x1000080B4, symSize: 0x64 }
  - { offsetInCU: 0x2B31B, offset: 0x2B31B, size: 0x8, addend: 0x0, symName: __ZNSt3__14pairImmEaSB8ue170006EOS1_, symObjAddr: 0x692C, symBinAddr: 0x100008118, symSize: 0x30 }
  - { offsetInCU: 0x2B350, offset: 0x2B350, size: 0x8, addend: 0x0, symName: __ZNSt3__121__murmur2_or_cityhashImLm64EE11__shift_mixB8ue170006Em, symObjAddr: 0x6998, symBinAddr: 0x100008184, symSize: 0x1C }
  - { offsetInCU: 0x2B373, offset: 0x2B373, size: 0x8, addend: 0x0, symName: __ZNSt3__121__murmur2_or_cityhashImLm64EE22__rotate_by_at_least_1B8ue170006Emi, symObjAddr: 0x69B4, symBinAddr: 0x1000081A0, symSize: 0x38 }
  - { offsetInCU: 0x2B3A4, offset: 0x2B3A4, size: 0x8, addend: 0x0, symName: __ZNSt3__121__murmur2_or_cityhashImLm64EE29__weak_hash_len_32_with_seedsB8ue170006Emmmmmm, symObjAddr: 0x6A0C, symBinAddr: 0x1000081F8, symSize: 0xD8 }
  - { offsetInCU: 0x2B420, offset: 0x2B420, size: 0x8, addend: 0x0, symName: __ZNSt3__14pairImmEC1B8ue170006ImmLPv0EEEOT_OT0_, symObjAddr: 0x6AE4, symBinAddr: 0x1000082D0, symSize: 0x3C }
  - { offsetInCU: 0x2B47E, offset: 0x2B47E, size: 0x8, addend: 0x0, symName: __ZNSt3__14pairImmEC2B8ue170006ImmLPv0EEEOT_OT0_, symObjAddr: 0x6B20, symBinAddr: 0x10000830C, symSize: 0x34 }
  - { offsetInCU: 0x2B4DC, offset: 0x2B4DC, size: 0x8, addend: 0x0, symName: __ZNKSt3__112basic_stringIcNS_11char_traitsIcEENS_9allocatorIcEEE13__get_pointerB8ue170006Ev, symObjAddr: 0x6B68, symBinAddr: 0x100008354, symSize: 0x54 }
  - { offsetInCU: 0x2B502, offset: 0x2B502, size: 0x8, addend: 0x0, symName: __ZNKSt3__112basic_stringIcNS_11char_traitsIcEENS_9allocatorIcEEE9__is_longB8ue170006Ev, symObjAddr: 0x6BBC, symBinAddr: 0x1000083A8, symSize: 0x38 }
  - { offsetInCU: 0x2B528, offset: 0x2B528, size: 0x8, addend: 0x0, symName: __ZNKSt3__112basic_stringIcNS_11char_traitsIcEENS_9allocatorIcEEE18__get_long_pointerB8ue170006Ev, symObjAddr: 0x6BF4, symBinAddr: 0x1000083E0, symSize: 0x28 }
  - { offsetInCU: 0x2B54E, offset: 0x2B54E, size: 0x8, addend: 0x0, symName: __ZNKSt3__112basic_stringIcNS_11char_traitsIcEENS_9allocatorIcEEE19__get_short_pointerB8ue170006Ev, symObjAddr: 0x6C1C, symBinAddr: 0x100008408, symSize: 0x28 }
  - { offsetInCU: 0x2B574, offset: 0x2B574, size: 0x8, addend: 0x0, symName: __ZNKSt3__117__compressed_pairINS_12basic_stringIcNS_11char_traitsIcEENS_9allocatorIcEEE5__repES5_E5firstB8ue170006Ev, symObjAddr: 0x6C44, symBinAddr: 0x100008430, symSize: 0x24 }
  - { offsetInCU: 0x2B59A, offset: 0x2B59A, size: 0x8, addend: 0x0, symName: __ZNKSt3__122__compressed_pair_elemINS_12basic_stringIcNS_11char_traitsIcEENS_9allocatorIcEEE5__repELi0ELb0EE5__getB8ue170006Ev, symObjAddr: 0x6C68, symBinAddr: 0x100008454, symSize: 0x14 }
  - { offsetInCU: 0x2B5C0, offset: 0x2B5C0, size: 0x8, addend: 0x0, symName: __ZNSt3__114pointer_traitsIPKcE10pointer_toB8ue170006ERS1_, symObjAddr: 0x6C7C, symBinAddr: 0x100008468, symSize: 0x14 }
  - { offsetInCU: 0x2B5E3, offset: 0x2B5E3, size: 0x8, addend: 0x0, symName: __ZNKSt3__112basic_stringIcNS_11char_traitsIcEENS_9allocatorIcEEE15__get_long_sizeB8ue170006Ev, symObjAddr: 0x6C90, symBinAddr: 0x10000847C, symSize: 0x28 }
  - { offsetInCU: 0x2B609, offset: 0x2B609, size: 0x8, addend: 0x0, symName: __ZNKSt3__112basic_stringIcNS_11char_traitsIcEENS_9allocatorIcEEE16__get_short_sizeB8ue170006Ev, symObjAddr: 0x6CB8, symBinAddr: 0x1000084A4, symSize: 0x34 }
  - { offsetInCU: 0x2B62F, offset: 0x2B62F, size: 0x8, addend: 0x0, symName: __ZNSt3__112__hash_tableINS_17__hash_value_typeINS_12basic_stringIcNS_11char_traitsIcEENS_9allocatorIcEEEEP3PinEENS_22__unordered_map_hasherIS7_SA_NS_4hashIS7_EENS_8equal_toIS7_EELb1EEENS_21__unordered_map_equalIS7_SA_SF_SD_Lb1EEENS5_ISA_EEE14__rehash_multiB8ue170006Em, symObjAddr: 0x6CEC, symBinAddr: 0x1000084D8, symSize: 0x2C }
  - { offsetInCU: 0x2B663, offset: 0x2B663, size: 0x8, addend: 0x0, symName: __Z4ceilB8ue170006f, symObjAddr: 0x6D94, symBinAddr: 0x100008580, symSize: 0x18 }
  - { offsetInCU: 0x2B692, offset: 0x2B692, size: 0x8, addend: 0x0, symName: __ZNKSt3__121__unordered_map_equalINS_12basic_stringIcNS_11char_traitsIcEENS_9allocatorIcEEEENS_17__hash_value_typeIS6_P3PinEENS_8equal_toIS6_EENS_4hashIS6_EELb1EEclB8ue170006ERKSA_SH_, symObjAddr: 0x6E44, symBinAddr: 0x100008630, symSize: 0x54 }
  - { offsetInCU: 0x2B6D6, offset: 0x2B6D6, size: 0x8, addend: 0x0, symName: __ZNSt3__112__hash_tableINS_17__hash_value_typeINS_12basic_stringIcNS_11char_traitsIcEENS_9allocatorIcEEEEP3PinEENS_22__unordered_map_hasherIS7_SA_NS_4hashIS7_EENS_8equal_toIS7_EELb1EEENS_21__unordered_map_equalIS7_SA_SF_SD_Lb1EEENS5_ISA_EEE8__rehashILb0EEEvm, symObjAddr: 0x6E98, symBinAddr: 0x100008684, symSize: 0x1A8 }
  - { offsetInCU: 0x2B726, offset: 0x2B726, size: 0x8, addend: 0x0, symName: __ZNSt3__112__hash_tableINS_17__hash_value_typeINS_12basic_stringIcNS_11char_traitsIcEENS_9allocatorIcEEEEP3PinEENS_22__unordered_map_hasherIS7_SA_NS_4hashIS7_EENS_8equal_toIS7_EELb1EEENS_21__unordered_map_equalIS7_SA_SF_SD_Lb1EEENS5_ISA_EEE11__do_rehashILb0EEEvm, symObjAddr: 0x7040, symBinAddr: 0x10000882C, symSize: 0x310 }
  - { offsetInCU: 0x2B809, offset: 0x2B809, size: 0x8, addend: 0x0, symName: __ZNSt3__110unique_ptrIA_PNS_16__hash_node_baseIPNS_11__hash_nodeINS_17__hash_value_typeINS_12basic_stringIcNS_11char_traitsIcEENS_9allocatorIcEEEEP3PinEEPvEEEENS_25__bucket_list_deallocatorINS7_ISH_EEEEE11get_deleterB8ue170006Ev, symObjAddr: 0x73BC, symBinAddr: 0x100008BA8, symSize: 0x24 }
  - { offsetInCU: 0x2B82F, offset: 0x2B82F, size: 0x8, addend: 0x0, symName: __ZNSt3__110unique_ptrIA_PNS_16__hash_node_baseIPNS_11__hash_nodeINS_17__hash_value_typeINS_12basic_stringIcNS_11char_traitsIcEENS_9allocatorIcEEEEP3PinEEPvEEEENS_25__bucket_list_deallocatorINS7_ISH_EEEEE5resetB8ue170006IPSH_EENS_9enable_ifIXsr28_CheckArrayPointerConversionIT_EE5valueEvE4typeESQ_, symObjAddr: 0x73E0, symBinAddr: 0x100008BCC, symSize: 0x78 }
  - { offsetInCU: 0x2B87C, offset: 0x2B87C, size: 0x8, addend: 0x0, symName: __ZNSt3__116allocator_traitsINS_9allocatorIPNS_16__hash_node_baseIPNS_11__hash_nodeINS_17__hash_value_typeINS_12basic_stringIcNS_11char_traitsIcEENS1_IcEEEEP3PinEEPvEEEEEEE8allocateB8ue170006ERSI_m, symObjAddr: 0x7458, symBinAddr: 0x100008C44, symSize: 0x2C }
  - { offsetInCU: 0x2B8AF, offset: 0x2B8AF, size: 0x8, addend: 0x0, symName: __ZNSt3__19allocatorIPNS_16__hash_node_baseIPNS_11__hash_nodeINS_17__hash_value_typeINS_12basic_stringIcNS_11char_traitsIcEENS0_IcEEEEP3PinEEPvEEEEE8allocateB8ue170006Em, symObjAddr: 0x7484, symBinAddr: 0x100008C70, symSize: 0x58 }
  - { offsetInCU: 0x2B8ED, offset: 0x2B8ED, size: 0x8, addend: 0x0, symName: __ZNSt3__116allocator_traitsINS_9allocatorIPNS_16__hash_node_baseIPNS_11__hash_nodeINS_17__hash_value_typeINS_12basic_stringIcNS_11char_traitsIcEENS1_IcEEEEP3PinEEPvEEEEEEE8max_sizeB8ue170006ISI_vEEmRKSI_, symObjAddr: 0x74DC, symBinAddr: 0x100008CC8, symSize: 0x24 }
  - { offsetInCU: 0x2B91B, offset: 0x2B91B, size: 0x8, addend: 0x0, symName: __ZNKSt3__19allocatorIPNS_16__hash_node_baseIPNS_11__hash_nodeINS_17__hash_value_typeINS_12basic_stringIcNS_11char_traitsIcEENS0_IcEEEEP3PinEEPvEEEEE8max_sizeB8ue170006Ev, symObjAddr: 0x7594, symBinAddr: 0x100008D80, symSize: 0x14 }
  - { offsetInCU: 0x2B94B, offset: 0x2B94B, size: 0x8, addend: 0x0, symName: __ZNKSt3__16__lessIvvEclB8ue170006ImmEEbRKT_RKT0_, symObjAddr: 0x7668, symBinAddr: 0x100008E54, symSize: 0x34 }
  - { offsetInCU: 0x2B99F, offset: 0x2B99F, size: 0x8, addend: 0x0, symName: __ZNKSt3__18equal_toINS_12basic_stringIcNS_11char_traitsIcEENS_9allocatorIcEEEEEclB8ue170006ERKS6_S9_, symObjAddr: 0x769C, symBinAddr: 0x100008E88, symSize: 0x34 }
  - { offsetInCU: 0x2B9E3, offset: 0x2B9E3, size: 0x8, addend: 0x0, symName: __ZNSt3__111char_traitsIcE7compareB8ue170006EPKcS3_m, symObjAddr: 0x7818, symBinAddr: 0x100009004, symSize: 0x34 }
  - { offsetInCU: 0x2BA22, offset: 0x2BA22, size: 0x8, addend: 0x0, symName: __ZNSt3__115__hash_iteratorIPNS_11__hash_nodeINS_17__hash_value_typeINS_12basic_stringIcNS_11char_traitsIcEENS_9allocatorIcEEEEP3PinEEPvEEEC2B8ue170006EPNS_16__hash_node_baseISE_EE, symObjAddr: 0x784C, symBinAddr: 0x100009038, symSize: 0x20 }
  - { offsetInCU: 0x2BA5B, offset: 0x2BA5B, size: 0x8, addend: 0x0, symName: __ZNSt3__112__hash_tableINS_17__hash_value_typeINS_12basic_stringIcNS_11char_traitsIcEENS_9allocatorIcEEEEP3PinEENS_22__unordered_map_hasherIS7_SA_NS_4hashIS7_EENS_8equal_toIS7_EELb1EEENS_21__unordered_map_equalIS7_SA_SF_SD_Lb1EEENS5_ISA_EEE15__emplace_multiIJRKNS_4pairIKS7_S9_EEEEENS_15__hash_iteratorIPNS_11__hash_nodeISA_PvEEEEDpOT_, symObjAddr: 0x786C, symBinAddr: 0x100009058, symSize: 0x94 }
  - { offsetInCU: 0x2BABB, offset: 0x2BABB, size: 0x8, addend: 0x0, symName: __ZNSt3__112__hash_tableINS_17__hash_value_typeINS_12basic_stringIcNS_11char_traitsIcEENS_9allocatorIcEEEEP3PinEENS_22__unordered_map_hasherIS7_SA_NS_4hashIS7_EENS_8equal_toIS7_EELb1EEENS_21__unordered_map_equalIS7_SA_SF_SD_Lb1EEENS5_ISA_EEE16__construct_nodeIJRKNS_4pairIKS7_S9_EEEEENS_10unique_ptrINS_11__hash_nodeISA_PvEENS_22__hash_node_destructorINS5_ISU_EEEEEEDpOT_, symObjAddr: 0x7900, symBinAddr: 0x1000090EC, symSize: 0x168 }
  - { offsetInCU: 0x2BB1C, offset: 0x2BB1C, size: 0x8, addend: 0x0, symName: __ZNKSt3__110unique_ptrINS_11__hash_nodeINS_17__hash_value_typeINS_12basic_stringIcNS_11char_traitsIcEENS_9allocatorIcEEEEP3PinEEPvEENS_22__hash_node_destructorINS6_ISD_EEEEE3getB8ue170006Ev, symObjAddr: 0x7A68, symBinAddr: 0x100009254, symSize: 0x28 }
  - { offsetInCU: 0x2BB42, offset: 0x2BB42, size: 0x8, addend: 0x0, symName: __ZNSt3__110unique_ptrINS_11__hash_nodeINS_17__hash_value_typeINS_12basic_stringIcNS_11char_traitsIcEENS_9allocatorIcEEEEP3PinEEPvEENS_22__hash_node_destructorINS6_ISD_EEEEE7releaseB8ue170006Ev, symObjAddr: 0x7A90, symBinAddr: 0x10000927C, symSize: 0x44 }
  - { offsetInCU: 0x2BB77, offset: 0x2BB77, size: 0x8, addend: 0x0, symName: __ZNSt3__110unique_ptrINS_11__hash_nodeINS_17__hash_value_typeINS_12basic_stringIcNS_11char_traitsIcEENS_9allocatorIcEEEEP3PinEEPvEENS_22__hash_node_destructorINS6_ISD_EEEEED1B8ue170006Ev, symObjAddr: 0x7AD4, symBinAddr: 0x1000092C0, symSize: 0x2C }
  - { offsetInCU: 0x2BBA1, offset: 0x2BBA1, size: 0x8, addend: 0x0, symName: __ZNSt3__116allocator_traitsINS_9allocatorINS_11__hash_nodeINS_17__hash_value_typeINS_12basic_stringIcNS_11char_traitsIcEENS1_IcEEEEP3PinEEPvEEEEE8allocateB8ue170006ERSE_m, symObjAddr: 0x7B00, symBinAddr: 0x1000092EC, symSize: 0x2C }
  - { offsetInCU: 0x2BBD4, offset: 0x2BBD4, size: 0x8, addend: 0x0, symName: __ZNSt3__122__hash_node_destructorINS_9allocatorINS_11__hash_nodeINS_17__hash_value_typeINS_12basic_stringIcNS_11char_traitsIcEENS1_IcEEEEP3PinEEPvEEEEEC1B8ue170006ERSE_b, symObjAddr: 0x7B2C, symBinAddr: 0x100009318, symSize: 0x48 }
  - { offsetInCU: 0x2BC21, offset: 0x2BC21, size: 0x8, addend: 0x0, symName: __ZNSt3__110unique_ptrINS_11__hash_nodeINS_17__hash_value_typeINS_12basic_stringIcNS_11char_traitsIcEENS_9allocatorIcEEEEP3PinEEPvEENS_22__hash_node_destructorINS6_ISD_EEEEEC1B8ue170006ILb1EvEEPSD_NS_16__dependent_typeINS_27__unique_ptr_deleter_sfinaeISG_EEXT_EE20__good_rval_ref_typeE, symObjAddr: 0x7B74, symBinAddr: 0x100009360, symSize: 0x3C }
  - { offsetInCU: 0x2BC72, offset: 0x2BC72, size: 0x8, addend: 0x0, symName: __ZNSt3__116allocator_traitsINS_9allocatorINS_11__hash_nodeINS_17__hash_value_typeINS_12basic_stringIcNS_11char_traitsIcEENS1_IcEEEEP3PinEEPvEEEEE9constructB8ue170006INS_4pairIKS8_SA_EEJRKSJ_EvEEvRSE_PT_DpOT0_, symObjAddr: 0x7BB0, symBinAddr: 0x10000939C, symSize: 0x34 }
  - { offsetInCU: 0x2BCC9, offset: 0x2BCC9, size: 0x8, addend: 0x0, symName: __ZNKSt3__110unique_ptrINS_11__hash_nodeINS_17__hash_value_typeINS_12basic_stringIcNS_11char_traitsIcEENS_9allocatorIcEEEEP3PinEEPvEENS_22__hash_node_destructorINS6_ISD_EEEEEptB8ue170006Ev, symObjAddr: 0x7BE4, symBinAddr: 0x1000093D0, symSize: 0x28 }
  - { offsetInCU: 0x2BCEF, offset: 0x2BCEF, size: 0x8, addend: 0x0, symName: __ZNSt3__110unique_ptrINS_11__hash_nodeINS_17__hash_value_typeINS_12basic_stringIcNS_11char_traitsIcEENS_9allocatorIcEEEEP3PinEEPvEENS_22__hash_node_destructorINS6_ISD_EEEEE11get_deleterB8ue170006Ev, symObjAddr: 0x7C0C, symBinAddr: 0x1000093F8, symSize: 0x24 }
  - { offsetInCU: 0x2BD15, offset: 0x2BD15, size: 0x8, addend: 0x0, symName: __ZNSt3__19allocatorINS_11__hash_nodeINS_17__hash_value_typeINS_12basic_stringIcNS_11char_traitsIcEENS0_IcEEEEP3PinEEPvEEE8allocateB8ue170006Em, symObjAddr: 0x7C30, symBinAddr: 0x10000941C, symSize: 0x5C }
  - { offsetInCU: 0x2BD53, offset: 0x2BD53, size: 0x8, addend: 0x0, symName: __ZNSt3__116allocator_traitsINS_9allocatorINS_11__hash_nodeINS_17__hash_value_typeINS_12basic_stringIcNS_11char_traitsIcEENS1_IcEEEEP3PinEEPvEEEEE8max_sizeB8ue170006ISE_vEEmRKSE_, symObjAddr: 0x7C8C, symBinAddr: 0x100009478, symSize: 0x24 }
  - { offsetInCU: 0x2BD81, offset: 0x2BD81, size: 0x8, addend: 0x0, symName: __ZNKSt3__19allocatorINS_11__hash_nodeINS_17__hash_value_typeINS_12basic_stringIcNS_11char_traitsIcEENS0_IcEEEEP3PinEEPvEEE8max_sizeB8ue170006Ev, symObjAddr: 0x7CB0, symBinAddr: 0x10000949C, symSize: 0x18 }
  - { offsetInCU: 0x2BDA7, offset: 0x2BDA7, size: 0x8, addend: 0x0, symName: __ZNSt3__122__hash_node_destructorINS_9allocatorINS_11__hash_nodeINS_17__hash_value_typeINS_12basic_stringIcNS_11char_traitsIcEENS1_IcEEEEP3PinEEPvEEEEEC2B8ue170006ERSE_b, symObjAddr: 0x7CC8, symBinAddr: 0x1000094B4, symSize: 0x38 }
  - { offsetInCU: 0x2BDEF, offset: 0x2BDEF, size: 0x8, addend: 0x0, symName: __ZNSt3__110unique_ptrINS_11__hash_nodeINS_17__hash_value_typeINS_12basic_stringIcNS_11char_traitsIcEENS_9allocatorIcEEEEP3PinEEPvEENS_22__hash_node_destructorINS6_ISD_EEEEEC2B8ue170006ILb1EvEEPSD_NS_16__dependent_typeINS_27__unique_ptr_deleter_sfinaeISG_EEXT_EE20__good_rval_ref_typeE, symObjAddr: 0x7D00, symBinAddr: 0x1000094EC, symSize: 0x48 }
  - { offsetInCU: 0x2BE40, offset: 0x2BE40, size: 0x8, addend: 0x0, symName: __ZNSt3__117__compressed_pairIPNS_11__hash_nodeINS_17__hash_value_typeINS_12basic_stringIcNS_11char_traitsIcEENS_9allocatorIcEEEEP3PinEEPvEENS_22__hash_node_destructorINS6_ISD_EEEEEC1B8ue170006IRSE_SH_EEOT_OT0_, symObjAddr: 0x7D48, symBinAddr: 0x100009534, symSize: 0x3C }
  - { offsetInCU: 0x2BE98, offset: 0x2BE98, size: 0x8, addend: 0x0, symName: __ZNSt3__117__compressed_pairIPNS_11__hash_nodeINS_17__hash_value_typeINS_12basic_stringIcNS_11char_traitsIcEENS_9allocatorIcEEEEP3PinEEPvEENS_22__hash_node_destructorINS6_ISD_EEEEEC2B8ue170006IRSE_SH_EEOT_OT0_, symObjAddr: 0x7D84, symBinAddr: 0x100009570, symSize: 0x48 }
  - { offsetInCU: 0x2BEF0, offset: 0x2BEF0, size: 0x8, addend: 0x0, symName: __ZNSt3__122__compressed_pair_elemIPNS_11__hash_nodeINS_17__hash_value_typeINS_12basic_stringIcNS_11char_traitsIcEENS_9allocatorIcEEEEP3PinEEPvEELi0ELb0EEC2B8ue170006IRSE_vEEOT_, symObjAddr: 0x7DCC, symBinAddr: 0x1000095B8, symSize: 0x24 }
  - { offsetInCU: 0x2BF32, offset: 0x2BF32, size: 0x8, addend: 0x0, symName: __ZNSt3__122__compressed_pair_elemINS_22__hash_node_destructorINS_9allocatorINS_11__hash_nodeINS_17__hash_value_typeINS_12basic_stringIcNS_11char_traitsIcEENS2_IcEEEEP3PinEEPvEEEEEELi1ELb0EEC2B8ue170006ISG_vEEOT_, symObjAddr: 0x7DF0, symBinAddr: 0x1000095DC, symSize: 0x24 }
  - { offsetInCU: 0x2BF74, offset: 0x2BF74, size: 0x8, addend: 0x0, symName: __ZNSt3__19allocatorINS_11__hash_nodeINS_17__hash_value_typeINS_12basic_stringIcNS_11char_traitsIcEENS0_IcEEEEP3PinEEPvEEE9constructB8ue170006INS_4pairIKS7_S9_EEJRKSH_EEEvPT_DpOT0_, symObjAddr: 0x7E14, symBinAddr: 0x100009600, symSize: 0x30 }
  - { offsetInCU: 0x2BFCA, offset: 0x2BFCA, size: 0x8, addend: 0x0, symName: __ZNSt3__14pairIKNS_12basic_stringIcNS_11char_traitsIcEENS_9allocatorIcEEEEP3PinEC1B8ue170006ERKSA_, symObjAddr: 0x7E44, symBinAddr: 0x100009630, symSize: 0x34 }
  - { offsetInCU: 0x2BFFF, offset: 0x2BFFF, size: 0x8, addend: 0x0, symName: __ZNSt3__14pairIKNS_12basic_stringIcNS_11char_traitsIcEENS_9allocatorIcEEEEP3PinEC2B8ue170006ERKSA_, symObjAddr: 0x7E78, symBinAddr: 0x100009664, symSize: 0x40 }
  - { offsetInCU: 0x2C034, offset: 0x2C034, size: 0x8, addend: 0x0, symName: __ZNKSt3__117__compressed_pairIPNS_11__hash_nodeINS_17__hash_value_typeINS_12basic_stringIcNS_11char_traitsIcEENS_9allocatorIcEEEEP3PinEEPvEENS_22__hash_node_destructorINS6_ISD_EEEEE5firstB8ue170006Ev, symObjAddr: 0x7EB8, symBinAddr: 0x1000096A4, symSize: 0x24 }
  - { offsetInCU: 0x2C05A, offset: 0x2C05A, size: 0x8, addend: 0x0, symName: __ZNKSt3__122__compressed_pair_elemIPNS_11__hash_nodeINS_17__hash_value_typeINS_12basic_stringIcNS_11char_traitsIcEENS_9allocatorIcEEEEP3PinEEPvEELi0ELb0EE5__getB8ue170006Ev, symObjAddr: 0x7EDC, symBinAddr: 0x1000096C8, symSize: 0x14 }
  - { offsetInCU: 0x2C080, offset: 0x2C080, size: 0x8, addend: 0x0, symName: __ZNSt3__117__compressed_pairIPNS_11__hash_nodeINS_17__hash_value_typeINS_12basic_stringIcNS_11char_traitsIcEENS_9allocatorIcEEEEP3PinEEPvEENS_22__hash_node_destructorINS6_ISD_EEEEE6secondB8ue170006Ev, symObjAddr: 0x7EF0, symBinAddr: 0x1000096DC, symSize: 0x28 }
  - { offsetInCU: 0x2C0A6, offset: 0x2C0A6, size: 0x8, addend: 0x0, symName: __ZNSt3__122__compressed_pair_elemINS_22__hash_node_destructorINS_9allocatorINS_11__hash_nodeINS_17__hash_value_typeINS_12basic_stringIcNS_11char_traitsIcEENS2_IcEEEEP3PinEEPvEEEEEELi1ELb0EE5__getB8ue170006Ev, symObjAddr: 0x7F18, symBinAddr: 0x100009704, symSize: 0x14 }
  - { offsetInCU: 0x2C0CC, offset: 0x2C0CC, size: 0x8, addend: 0x0, symName: __ZNSt3__117__compressed_pairIPNS_11__hash_nodeINS_17__hash_value_typeINS_12basic_stringIcNS_11char_traitsIcEENS_9allocatorIcEEEEP3PinEEPvEENS_22__hash_node_destructorINS6_ISD_EEEEE5firstB8ue170006Ev, symObjAddr: 0x7F2C, symBinAddr: 0x100009718, symSize: 0x24 }
  - { offsetInCU: 0x2C0F2, offset: 0x2C0F2, size: 0x8, addend: 0x0, symName: __ZNSt3__122__compressed_pair_elemIPNS_11__hash_nodeINS_17__hash_value_typeINS_12basic_stringIcNS_11char_traitsIcEENS_9allocatorIcEEEEP3PinEEPvEELi0ELb0EE5__getB8ue170006Ev, symObjAddr: 0x7F50, symBinAddr: 0x10000973C, symSize: 0x14 }
  - { offsetInCU: 0x2C118, offset: 0x2C118, size: 0x8, addend: 0x0, symName: __ZNSt3__110unique_ptrINS_11__hash_nodeINS_17__hash_value_typeINS_12basic_stringIcNS_11char_traitsIcEENS_9allocatorIcEEEEP3PinEEPvEENS_22__hash_node_destructorINS6_ISD_EEEEED2B8ue170006Ev, symObjAddr: 0x7F64, symBinAddr: 0x100009750, symSize: 0x30 }
  - { offsetInCU: 0x2C142, offset: 0x2C142, size: 0x8, addend: 0x0, symName: __ZNSt3__110unique_ptrINS_11__hash_nodeINS_17__hash_value_typeINS_12basic_stringIcNS_11char_traitsIcEENS_9allocatorIcEEEEP3PinEEPvEENS_22__hash_node_destructorINS6_ISD_EEEEE5resetB8ue170006EPSD_, symObjAddr: 0x7F94, symBinAddr: 0x100009780, symSize: 0x78 }
  - { offsetInCU: 0x2C186, offset: 0x2C186, size: 0x8, addend: 0x0, symName: __ZNSt3__122__hash_node_destructorINS_9allocatorINS_11__hash_nodeINS_17__hash_value_typeINS_12basic_stringIcNS_11char_traitsIcEENS1_IcEEEEP3PinEEPvEEEEEclB8ue170006EPSD_, symObjAddr: 0x800C, symBinAddr: 0x1000097F8, symSize: 0x94 }
  - { offsetInCU: 0x2C1BB, offset: 0x2C1BB, size: 0x8, addend: 0x0, symName: __ZNKSt3__117__compressed_pairINS_16__hash_node_baseIPNS_11__hash_nodeINS_17__hash_value_typeINS_12basic_stringIcNS_11char_traitsIcEENS_9allocatorIcEEEEP3PinEEPvEEEENS7_ISE_EEE5firstB8ue170006Ev, symObjAddr: 0x80A0, symBinAddr: 0x10000988C, symSize: 0x24 }
  - { offsetInCU: 0x2C1E1, offset: 0x2C1E1, size: 0x8, addend: 0x0, symName: __ZNSt3__121__hash_const_iteratorIPNS_11__hash_nodeINS_17__hash_value_typeINS_12basic_stringIcNS_11char_traitsIcEENS_9allocatorIcEEEEP3PinEEPvEEEC1B8ue170006EPNS_16__hash_node_baseISE_EE, symObjAddr: 0x80C4, symBinAddr: 0x1000098B0, symSize: 0x34 }
  - { offsetInCU: 0x2C21A, offset: 0x2C21A, size: 0x8, addend: 0x0, symName: __ZNKSt3__122__compressed_pair_elemINS_16__hash_node_baseIPNS_11__hash_nodeINS_17__hash_value_typeINS_12basic_stringIcNS_11char_traitsIcEENS_9allocatorIcEEEEP3PinEEPvEEEELi0ELb0EE5__getB8ue170006Ev, symObjAddr: 0x80F8, symBinAddr: 0x1000098E4, symSize: 0x14 }
  - { offsetInCU: 0x2C240, offset: 0x2C240, size: 0x8, addend: 0x0, symName: __ZNSt3__121__hash_const_iteratorIPNS_11__hash_nodeINS_17__hash_value_typeINS_12basic_stringIcNS_11char_traitsIcEENS_9allocatorIcEEEEP3PinEEPvEEEC2B8ue170006EPNS_16__hash_node_baseISE_EE, symObjAddr: 0x810C, symBinAddr: 0x1000098F8, symSize: 0x20 }
  - { offsetInCU: 0x2C279, offset: 0x2C279, size: 0x8, addend: 0x0, symName: __ZN8FlipFlopD2Ev, symObjAddr: 0x812C, symBinAddr: 0x100009918, symSize: 0x38 }
  - { offsetInCU: 0x2C2A5, offset: 0x2C2A5, size: 0x8, addend: 0x0, symName: __ZN4GateC2ERNSt3__112basic_stringIcNS0_11char_traitsIcEENS0_9allocatorIcEEEEiii, symObjAddr: 0x8164, symBinAddr: 0x100009950, symSize: 0x64 }
  - { offsetInCU: 0x2C307, offset: 0x2C307, size: 0x8, addend: 0x0, symName: __ZN4GateD2Ev, symObjAddr: 0x81C8, symBinAddr: 0x1000099B4, symSize: 0x38 }
  - { offsetInCU: 0x2C333, offset: 0x2C333, size: 0x8, addend: 0x0, symName: __ZN9InstanceFC2ENSt3__112basic_stringIcNS0_11char_traitsIcEENS0_9allocatorIcEEEES6_ii, symObjAddr: 0x8200, symBinAddr: 0x1000099EC, symSize: 0x1E0 }
  - { offsetInCU: 0x2C3B8, offset: 0x2C3B8, size: 0x8, addend: 0x0, symName: __ZN8FlipFlopC1Ev, symObjAddr: 0x83E0, symBinAddr: 0x100009BCC, symSize: 0x2C }
  - { offsetInCU: 0x2C3E2, offset: 0x2C3E2, size: 0x8, addend: 0x0, symName: __ZNSt3__113unordered_mapINS_12basic_stringIcNS_11char_traitsIcEENS_9allocatorIcEEEEP3PinNS_4hashIS6_EENS_8equal_toIS6_EENS4_INS_4pairIKS6_S8_EEEEE5beginB8ue170006Ev, symObjAddr: 0x840C, symBinAddr: 0x100009BF8, symSize: 0x38 }
  - { offsetInCU: 0x2C408, offset: 0x2C408, size: 0x8, addend: 0x0, symName: __ZNKSt3__119__hash_map_iteratorINS_15__hash_iteratorIPNS_11__hash_nodeINS_17__hash_value_typeINS_12basic_stringIcNS_11char_traitsIcEENS_9allocatorIcEEEEP3PinEEPvEEEEEptB8ue170006Ev, symObjAddr: 0x8444, symBinAddr: 0x100009C30, symSize: 0x2C }
  - { offsetInCU: 0x2C42E, offset: 0x2C42E, size: 0x8, addend: 0x0, symName: __ZNSt3__119__hash_map_iteratorINS_15__hash_iteratorIPNS_11__hash_nodeINS_17__hash_value_typeINS_12basic_stringIcNS_11char_traitsIcEENS_9allocatorIcEEEEP3PinEEPvEEEEEppB8ue170006Ei, symObjAddr: 0x8470, symBinAddr: 0x100009C5C, symSize: 0x34 }
  - { offsetInCU: 0x2C46F, offset: 0x2C46F, size: 0x8, addend: 0x0, symName: __ZN8FlipFlopC2Ev, symObjAddr: 0x84A4, symBinAddr: 0x100009C90, symSize: 0x98 }
  - { offsetInCU: 0x2C499, offset: 0x2C499, size: 0x8, addend: 0x0, symName: __ZNSt3__112__hash_tableINS_17__hash_value_typeINS_12basic_stringIcNS_11char_traitsIcEENS_9allocatorIcEEEEP3PinEENS_22__unordered_map_hasherIS7_SA_NS_4hashIS7_EENS_8equal_toIS7_EELb1EEENS_21__unordered_map_equalIS7_SA_SF_SD_Lb1EEENS5_ISA_EEE5beginEv, symObjAddr: 0x853C, symBinAddr: 0x100009D28, symSize: 0x38 }
  - { offsetInCU: 0x2C4C1, offset: 0x2C4C1, size: 0x8, addend: 0x0, symName: __ZNSt3__119__hash_map_iteratorINS_15__hash_iteratorIPNS_11__hash_nodeINS_17__hash_value_typeINS_12basic_stringIcNS_11char_traitsIcEENS_9allocatorIcEEEEP3PinEEPvEEEEEC1B8ue170006ESG_, symObjAddr: 0x8574, symBinAddr: 0x100009D60, symSize: 0x34 }
  - { offsetInCU: 0x2C4FA, offset: 0x2C4FA, size: 0x8, addend: 0x0, symName: __ZNSt3__119__hash_map_iteratorINS_15__hash_iteratorIPNS_11__hash_nodeINS_17__hash_value_typeINS_12basic_stringIcNS_11char_traitsIcEENS_9allocatorIcEEEEP3PinEEPvEEEEEC2B8ue170006ESG_, symObjAddr: 0x85A8, symBinAddr: 0x100009D94, symSize: 0x20 }
  - { offsetInCU: 0x2C533, offset: 0x2C533, size: 0x8, addend: 0x0, symName: __ZNSt3__114pointer_traitsIPNS_4pairIKNS_12basic_stringIcNS_11char_traitsIcEENS_9allocatorIcEEEEP3PinEEE10pointer_toB8ue170006ERSB_, symObjAddr: 0x85C8, symBinAddr: 0x100009DB4, symSize: 0x14 }
  - { offsetInCU: 0x2C556, offset: 0x2C556, size: 0x8, addend: 0x0, symName: __ZNKSt3__115__hash_iteratorIPNS_11__hash_nodeINS_17__hash_value_typeINS_12basic_stringIcNS_11char_traitsIcEENS_9allocatorIcEEEEP3PinEEPvEEEptB8ue170006Ev, symObjAddr: 0x85DC, symBinAddr: 0x100009DC8, symSize: 0x30 }
  - { offsetInCU: 0x2C57C, offset: 0x2C57C, size: 0x8, addend: 0x0, symName: __ZNSt3__114pointer_traitsIPNS_17__hash_value_typeINS_12basic_stringIcNS_11char_traitsIcEENS_9allocatorIcEEEEP3PinEEE10pointer_toB8ue170006ERSA_, symObjAddr: 0x860C, symBinAddr: 0x100009DF8, symSize: 0x14 }
  - { offsetInCU: 0x2C59F, offset: 0x2C59F, size: 0x8, addend: 0x0, symName: __ZNSt3__119__hash_map_iteratorINS_15__hash_iteratorIPNS_11__hash_nodeINS_17__hash_value_typeINS_12basic_stringIcNS_11char_traitsIcEENS_9allocatorIcEEEEP3PinEEPvEEEEEppB8ue170006Ev, symObjAddr: 0x8620, symBinAddr: 0x100009E0C, symSize: 0x2C }
  - { offsetInCU: 0x2C5C5, offset: 0x2C5C5, size: 0x8, addend: 0x0, symName: __ZNSt3__115__hash_iteratorIPNS_11__hash_nodeINS_17__hash_value_typeINS_12basic_stringIcNS_11char_traitsIcEENS_9allocatorIcEEEEP3PinEEPvEEEppB8ue170006Ev, symObjAddr: 0x864C, symBinAddr: 0x100009E38, symSize: 0x20 }
  - { offsetInCU: 0x2C5EB, offset: 0x2C5EB, size: 0x8, addend: 0x0, symName: __ZN9InstanceGC2ENSt3__112basic_stringIcNS0_11char_traitsIcEENS0_9allocatorIcEEEES6_ii, symObjAddr: 0x866C, symBinAddr: 0x100009E58, symSize: 0x1E0 }
  - { offsetInCU: 0x2C670, offset: 0x2C670, size: 0x8, addend: 0x0, symName: __ZN4GateC1Ev, symObjAddr: 0x884C, symBinAddr: 0x10000A038, symSize: 0x2C }
  - { offsetInCU: 0x2C69A, offset: 0x2C69A, size: 0x8, addend: 0x0, symName: __ZN4GateC2Ev, symObjAddr: 0x8878, symBinAddr: 0x10000A064, symSize: 0x98 }
  - { offsetInCU: 0x2C6C4, offset: 0x2C6C4, size: 0x8, addend: 0x0, symName: __ZN3NetC2ENSt3__112basic_stringIcNS0_11char_traitsIcEENS0_9allocatorIcEEEEi, symObjAddr: 0x8910, symBinAddr: 0x10000A0FC, symSize: 0x90 }
  - { offsetInCU: 0x2C70D, offset: 0x2C70D, size: 0x8, addend: 0x0, symName: __ZNSt3__118basic_stringstreamIcNS_11char_traitsIcEENS_9allocatorIcEEED2Ev, symObjAddr: 0x89A0, symBinAddr: 0x10000A18C, symSize: 0x6C }
  - { offsetInCU: 0x2C747, offset: 0x2C747, size: 0x8, addend: 0x0, symName: __ZThn16_NSt3__118basic_stringstreamIcNS_11char_traitsIcEENS_9allocatorIcEEED1Ev, symObjAddr: 0x8A0C, symBinAddr: 0x10000A1F8, symSize: 0x1C }
  - { offsetInCU: 0x2C75E, offset: 0x2C75E, size: 0x8, addend: 0x0, symName: __ZTv0_n24_NSt3__118basic_stringstreamIcNS_11char_traitsIcEENS_9allocatorIcEEED1Ev, symObjAddr: 0x8A28, symBinAddr: 0x10000A214, symSize: 0x28 }
  - { offsetInCU: 0x2C775, offset: 0x2C775, size: 0x8, addend: 0x0, symName: __ZN3Pin10ConnectPinENSt3__112basic_stringIcNS0_11char_traitsIcEENS0_9allocatorIcEEEE, symObjAddr: 0x8A50, symBinAddr: 0x10000A23C, symSize: 0x30 }
  - { offsetInCU: 0x2C7C8, offset: 0x2C7C8, size: 0x8, addend: 0x0, symName: __ZNKSt3__113basic_ostreamIcNS_11char_traitsIcEEE6sentrycvbB8ue170006Ev, symObjAddr: 0x8CB8, symBinAddr: 0x10000A4A4, symSize: 0x1C }
  - { offsetInCU: 0x2C7EE, offset: 0x2C7EE, size: 0x8, addend: 0x0, symName: __ZNSt3__119ostreambuf_iteratorIcNS_11char_traitsIcEEEC1B8ue170006ERNS_13basic_ostreamIcS2_EE, symObjAddr: 0x8F14, symBinAddr: 0x10000A700, symSize: 0x34 }
  - { offsetInCU: 0x2C826, offset: 0x2C826, size: 0x8, addend: 0x0, symName: __ZNKSt3__18ios_base5flagsB8ue170006Ev, symObjAddr: 0x8F48, symBinAddr: 0x10000A734, symSize: 0x18 }
  - { offsetInCU: 0x2C84E, offset: 0x2C84E, size: 0x8, addend: 0x0, symName: __ZNKSt3__19basic_iosIcNS_11char_traitsIcEEE4fillB8ue170006Ev, symObjAddr: 0x8F60, symBinAddr: 0x10000A74C, symSize: 0x64 }
  - { offsetInCU: 0x2C876, offset: 0x2C876, size: 0x8, addend: 0x0, symName: __ZNKSt3__119ostreambuf_iteratorIcNS_11char_traitsIcEEE6failedB8ue170006Ev, symObjAddr: 0x8FC4, symBinAddr: 0x10000A7B0, symSize: 0x24 }
  - { offsetInCU: 0x2C89C, offset: 0x2C89C, size: 0x8, addend: 0x0, symName: __ZNSt3__19basic_iosIcNS_11char_traitsIcEEE8setstateB8ue170006Ej, symObjAddr: 0x8FE8, symBinAddr: 0x10000A7D4, symSize: 0x2C }
  - { offsetInCU: 0x2C8D1, offset: 0x2C8D1, size: 0x8, addend: 0x0, symName: __ZNKSt3__18ios_base5widthB8ue170006Ev, symObjAddr: 0x9014, symBinAddr: 0x10000A800, symSize: 0x18 }
  - { offsetInCU: 0x2C8F9, offset: 0x2C8F9, size: 0x8, addend: 0x0, symName: __ZNSt3__115basic_streambufIcNS_11char_traitsIcEEE5sputnB8ue170006EPKcl, symObjAddr: 0x902C, symBinAddr: 0x10000A818, symSize: 0x3C }
  - { offsetInCU: 0x2C93B, offset: 0x2C93B, size: 0x8, addend: 0x0, symName: __ZNSt3__112basic_stringIcNS_11char_traitsIcEENS_9allocatorIcEEEC1B8ue170006Emc, symObjAddr: 0x9068, symBinAddr: 0x10000A854, symSize: 0x3C }
  - { offsetInCU: 0x2C983, offset: 0x2C983, size: 0x8, addend: 0x0, symName: __ZNSt3__112basic_stringIcNS_11char_traitsIcEENS_9allocatorIcEEE4dataB8ue170006Ev, symObjAddr: 0x90A4, symBinAddr: 0x10000A890, symSize: 0x28 }
  - { offsetInCU: 0x2C9A9, offset: 0x2C9A9, size: 0x8, addend: 0x0, symName: __ZNSt3__18ios_base5widthB8ue170006El, symObjAddr: 0x90CC, symBinAddr: 0x10000A8B8, symSize: 0x2C }
  - { offsetInCU: 0x2C9EF, offset: 0x2C9EF, size: 0x8, addend: 0x0, symName: __ZNSt3__112basic_stringIcNS_11char_traitsIcEENS_9allocatorIcEEEC2B8ue170006Emc, symObjAddr: 0x90F8, symBinAddr: 0x10000A8E4, symSize: 0x4C }
  - { offsetInCU: 0x2CA37, offset: 0x2CA37, size: 0x8, addend: 0x0, symName: __ZNSt3__117__compressed_pairINS_12basic_stringIcNS_11char_traitsIcEENS_9allocatorIcEEE5__repES5_EC1B8ue170006INS_18__default_init_tagESA_EEOT_OT0_, symObjAddr: 0x9144, symBinAddr: 0x10000A930, symSize: 0x3C }
  - { offsetInCU: 0x2CA8F, offset: 0x2CA8F, size: 0x8, addend: 0x0, symName: __ZNSt3__117__compressed_pairINS_12basic_stringIcNS_11char_traitsIcEENS_9allocatorIcEEE5__repES5_EC2B8ue170006INS_18__default_init_tagESA_EEOT_OT0_, symObjAddr: 0x9180, symBinAddr: 0x10000A96C, symSize: 0x3C }
  - { offsetInCU: 0x2CAE7, offset: 0x2CAE7, size: 0x8, addend: 0x0, symName: __ZNSt3__122__compressed_pair_elemINS_12basic_stringIcNS_11char_traitsIcEENS_9allocatorIcEEE5__repELi0ELb0EEC2B8ue170006ENS_18__default_init_tagE, symObjAddr: 0x91BC, symBinAddr: 0x10000A9A8, symSize: 0x14 }
  - { offsetInCU: 0x2CB1C, offset: 0x2CB1C, size: 0x8, addend: 0x0, symName: __ZNSt3__122__compressed_pair_elemINS_9allocatorIcEELi1ELb1EEC2B8ue170006ENS_18__default_init_tagE, symObjAddr: 0x91D0, symBinAddr: 0x10000A9BC, symSize: 0x2C }
  - { offsetInCU: 0x2CB51, offset: 0x2CB51, size: 0x8, addend: 0x0, symName: __ZNSt3__19allocatorIcEC2B8ue170006Ev, symObjAddr: 0x91FC, symBinAddr: 0x10000A9E8, symSize: 0x2C }
  - { offsetInCU: 0x2CB7B, offset: 0x2CB7B, size: 0x8, addend: 0x0, symName: __ZNSt3__116__non_trivial_ifILb1ENS_9allocatorIcEEEC2B8ue170006Ev, symObjAddr: 0x9228, symBinAddr: 0x10000AA14, symSize: 0x14 }
  - { offsetInCU: 0x2CBA5, offset: 0x2CBA5, size: 0x8, addend: 0x0, symName: __ZNSt3__112basic_stringIcNS_11char_traitsIcEENS_9allocatorIcEEE13__get_pointerB8ue170006Ev, symObjAddr: 0x9250, symBinAddr: 0x10000AA3C, symSize: 0x54 }
  - { offsetInCU: 0x2CBCB, offset: 0x2CBCB, size: 0x8, addend: 0x0, symName: __ZNSt3__112basic_stringIcNS_11char_traitsIcEENS_9allocatorIcEEE18__get_long_pointerB8ue170006Ev, symObjAddr: 0x92A4, symBinAddr: 0x10000AA90, symSize: 0x28 }
  - { offsetInCU: 0x2CBF1, offset: 0x2CBF1, size: 0x8, addend: 0x0, symName: __ZNSt3__112basic_stringIcNS_11char_traitsIcEENS_9allocatorIcEEE19__get_short_pointerB8ue170006Ev, symObjAddr: 0x92CC, symBinAddr: 0x10000AAB8, symSize: 0x28 }
  - { offsetInCU: 0x2CC17, offset: 0x2CC17, size: 0x8, addend: 0x0, symName: __ZNSt3__117__compressed_pairINS_12basic_stringIcNS_11char_traitsIcEENS_9allocatorIcEEE5__repES5_E5firstB8ue170006Ev, symObjAddr: 0x92F4, symBinAddr: 0x10000AAE0, symSize: 0x24 }
  - { offsetInCU: 0x2CC3D, offset: 0x2CC3D, size: 0x8, addend: 0x0, symName: __ZNSt3__122__compressed_pair_elemINS_12basic_stringIcNS_11char_traitsIcEENS_9allocatorIcEEE5__repELi0ELb0EE5__getB8ue170006Ev, symObjAddr: 0x9318, symBinAddr: 0x10000AB04, symSize: 0x14 }
  - { offsetInCU: 0x2CC63, offset: 0x2CC63, size: 0x8, addend: 0x0, symName: __ZNSt3__114pointer_traitsIPcE10pointer_toB8ue170006ERc, symObjAddr: 0x932C, symBinAddr: 0x10000AB18, symSize: 0x14 }
  - { offsetInCU: 0x2CC86, offset: 0x2CC86, size: 0x8, addend: 0x0, symName: __ZNSt3__119ostreambuf_iteratorIcNS_11char_traitsIcEEEC2B8ue170006ERNS_13basic_ostreamIcS2_EE, symObjAddr: 0x9340, symBinAddr: 0x10000AB2C, symSize: 0x54 }
  - { offsetInCU: 0x2CCBE, offset: 0x2CCBE, size: 0x8, addend: 0x0, symName: __ZNKSt3__19basic_iosIcNS_11char_traitsIcEEE5rdbufB8ue170006Ev, symObjAddr: 0x9394, symBinAddr: 0x10000AB80, symSize: 0x24 }
  - { offsetInCU: 0x2CCE6, offset: 0x2CCE6, size: 0x8, addend: 0x0, symName: __ZNKSt3__18ios_base5rdbufB8ue170006Ev, symObjAddr: 0x93B8, symBinAddr: 0x10000ABA4, symSize: 0x18 }
  - { offsetInCU: 0x2CD0C, offset: 0x2CD0C, size: 0x8, addend: 0x0, symName: __ZNSt3__111char_traitsIcE11eq_int_typeB8ue170006Eii, symObjAddr: 0x93D0, symBinAddr: 0x10000ABBC, symSize: 0x28 }
  - { offsetInCU: 0x2CD3F, offset: 0x2CD3F, size: 0x8, addend: 0x0, symName: __ZNSt3__111char_traitsIcE3eofB8ue170006Ev, symObjAddr: 0x93F8, symBinAddr: 0x10000ABE4, symSize: 0x8 }
  - { offsetInCU: 0x2CD53, offset: 0x2CD53, size: 0x8, addend: 0x0, symName: __ZNKSt3__19basic_iosIcNS_11char_traitsIcEEE5widenB8ue170006Ec, symObjAddr: 0x9400, symBinAddr: 0x10000ABEC, symSize: 0x84 }
  - { offsetInCU: 0x2CDB7, offset: 0x2CDB7, size: 0x8, addend: 0x0, symName: __ZNKSt3__15ctypeIcE5widenB8ue170006Ec, symObjAddr: 0x94B0, symBinAddr: 0x10000AC9C, symSize: 0x38 }
  - { offsetInCU: 0x2CDEC, offset: 0x2CDEC, size: 0x8, addend: 0x0, symName: __ZNSt3__18ios_base8setstateB8ue170006Ej, symObjAddr: 0x94E8, symBinAddr: 0x10000ACD4, symSize: 0x34 }
  - { offsetInCU: 0x2CE23, offset: 0x2CE23, size: 0x8, addend: 0x0, symName: __ZNSt3__112basic_stringIcNS_11char_traitsIcEENS_9allocatorIcEEEC2B8ue170006Ev, symObjAddr: 0x951C, symBinAddr: 0x10000AD08, symSize: 0x48 }
  - { offsetInCU: 0x2CE4D, offset: 0x2CE4D, size: 0x8, addend: 0x0, symName: __ZNSt3__112basic_stringIcNS_11char_traitsIcEENS_9allocatorIcEEE14__default_initB8ue170006Ev, symObjAddr: 0x9564, symBinAddr: 0x10000AD50, symSize: 0x40 }
  - { offsetInCU: 0x2CE73, offset: 0x2CE73, size: 0x8, addend: 0x0, symName: __ZNSt3__111char_traitsIcE6lengthB8ue170006EPKc, symObjAddr: 0x95A4, symBinAddr: 0x10000AD90, symSize: 0x34 }
  - { offsetInCU: 0x2CEAA, offset: 0x2CEAA, size: 0x8, addend: 0x0, symName: __ZNSt3__112__hash_tableINS_17__hash_value_typeINS_12basic_stringIcNS_11char_traitsIcEENS_9allocatorIcEEEEP3PinEENS_22__unordered_map_hasherIS7_SA_NS_4hashIS7_EENS_8equal_toIS7_EELb1EEENS_21__unordered_map_equalIS7_SA_SF_SD_Lb1EEENS5_ISA_EEE25__emplace_unique_key_argsIS7_JRKNS_21piecewise_construct_tENS_5tupleIJRKS7_EEENSP_IJEEEEEENS_4pairINS_15__hash_iteratorIPNS_11__hash_nodeISA_PvEEEEbEERKT_DpOT0_, symObjAddr: 0x95FC, symBinAddr: 0x10000ADE8, symSize: 0x4B0 }
  - { offsetInCU: 0x2CFB4, offset: 0x2CFB4, size: 0x8, addend: 0x0, symName: __ZNKSt3__122__unordered_map_hasherINS_12basic_stringIcNS_11char_traitsIcEENS_9allocatorIcEEEENS_17__hash_value_typeIS6_P3PinEENS_4hashIS6_EENS_8equal_toIS6_EELb1EEclB8ue170006ERKS6_, symObjAddr: 0x9ADC, symBinAddr: 0x10000B2C8, symSize: 0x2C }
  - { offsetInCU: 0x2CFE9, offset: 0x2CFE9, size: 0x8, addend: 0x0, symName: __ZNKSt3__121__unordered_map_equalINS_12basic_stringIcNS_11char_traitsIcEENS_9allocatorIcEEEENS_17__hash_value_typeIS6_P3PinEENS_8equal_toIS6_EENS_4hashIS6_EELb1EEclB8ue170006ERKSA_RKS6_, symObjAddr: 0x9B08, symBinAddr: 0x10000B2F4, symSize: 0x48 }
  - { offsetInCU: 0x2D02D, offset: 0x2D02D, size: 0x8, addend: 0x0, symName: __ZNSt3__112__hash_tableINS_17__hash_value_typeINS_12basic_stringIcNS_11char_traitsIcEENS_9allocatorIcEEEEP3PinEENS_22__unordered_map_hasherIS7_SA_NS_4hashIS7_EENS_8equal_toIS7_EELb1EEENS_21__unordered_map_equalIS7_SA_SF_SD_Lb1EEENS5_ISA_EEE21__construct_node_hashIRKNS_21piecewise_construct_tEJNS_5tupleIJRKS7_EEENSP_IJEEEEEENS_10unique_ptrINS_11__hash_nodeISA_PvEENS_22__hash_node_destructorINS5_ISX_EEEEEEmOT_DpOT0_, symObjAddr: 0x9B50, symBinAddr: 0x10000B33C, symSize: 0x150 }
  - { offsetInCU: 0x2D0C9, offset: 0x2D0C9, size: 0x8, addend: 0x0, symName: __ZNSt3__112__hash_tableINS_17__hash_value_typeINS_12basic_stringIcNS_11char_traitsIcEENS_9allocatorIcEEEEP3PinEENS_22__unordered_map_hasherIS7_SA_NS_4hashIS7_EENS_8equal_toIS7_EELb1EEENS_21__unordered_map_equalIS7_SA_SF_SD_Lb1EEENS5_ISA_EEE15__rehash_uniqueB8ue170006Em, symObjAddr: 0x9CA0, symBinAddr: 0x10000B48C, symSize: 0x2C }
  - { offsetInCU: 0x2D103, offset: 0x2D103, size: 0x8, addend: 0x0, symName: __ZNSt3__14pairINS_15__hash_iteratorIPNS_11__hash_nodeINS_17__hash_value_typeINS_12basic_stringIcNS_11char_traitsIcEENS_9allocatorIcEEEEP3PinEEPvEEEEbEC1B8ue170006ISG_RbLSD_0EEEOT_OT0_, symObjAddr: 0x9CCC, symBinAddr: 0x10000B4B8, symSize: 0x3C }
  - { offsetInCU: 0x2D161, offset: 0x2D161, size: 0x8, addend: 0x0, symName: __ZNSt3__116allocator_traitsINS_9allocatorINS_11__hash_nodeINS_17__hash_value_typeINS_12basic_stringIcNS_11char_traitsIcEENS1_IcEEEEP3PinEEPvEEEEE9constructB8ue170006INS_4pairIKS8_SA_EEJRKNS_21piecewise_construct_tENS_5tupleIJRSI_EEENSN_IJEEEEvEEvRSE_PT_DpOT0_, symObjAddr: 0x9D08, symBinAddr: 0x10000B4F4, symSize: 0x44 }
  - { offsetInCU: 0x2D1E0, offset: 0x2D1E0, size: 0x8, addend: 0x0, symName: __ZNSt3__19allocatorINS_11__hash_nodeINS_17__hash_value_typeINS_12basic_stringIcNS_11char_traitsIcEENS0_IcEEEEP3PinEEPvEEE9constructB8ue170006INS_4pairIKS7_S9_EEJRKNS_21piecewise_construct_tENS_5tupleIJRSG_EEENSL_IJEEEEEEvPT_DpOT0_, symObjAddr: 0x9D4C, symBinAddr: 0x10000B538, symSize: 0x44 }
  - { offsetInCU: 0x2D25C, offset: 0x2D25C, size: 0x8, addend: 0x0, symName: __ZNSt3__14pairIKNS_12basic_stringIcNS_11char_traitsIcEENS_9allocatorIcEEEEP3PinEC1B8ue170006IJRS7_EJEEENS_21piecewise_construct_tENS_5tupleIJDpT_EEENSE_IJDpT0_EEE, symObjAddr: 0x9D90, symBinAddr: 0x10000B57C, symSize: 0x3C }
  - { offsetInCU: 0x2D2C3, offset: 0x2D2C3, size: 0x8, addend: 0x0, symName: __ZNSt3__14pairIKNS_12basic_stringIcNS_11char_traitsIcEENS_9allocatorIcEEEEP3PinEC1B8ue170006IJRS7_EJEJLm0EEJEEENS_21piecewise_construct_tERNS_5tupleIJDpT_EEERNSE_IJDpT0_EEENS_15__tuple_indicesIJXspT1_EEEENSN_IJXspT2_EEEE, symObjAddr: 0x9DCC, symBinAddr: 0x10000B5B8, symSize: 0x3C }
  - { offsetInCU: 0x2D353, offset: 0x2D353, size: 0x8, addend: 0x0, symName: __ZNSt3__14pairIKNS_12basic_stringIcNS_11char_traitsIcEENS_9allocatorIcEEEEP3PinEC2B8ue170006IJRS7_EJEJLm0EEJEEENS_21piecewise_construct_tERNS_5tupleIJDpT_EEERNSE_IJDpT0_EEENS_15__tuple_indicesIJXspT1_EEEENSN_IJXspT2_EEEE, symObjAddr: 0x9E08, symBinAddr: 0x10000B5F4, symSize: 0x48 }
  - { offsetInCU: 0x2D3E3, offset: 0x2D3E3, size: 0x8, addend: 0x0, symName: __ZNSt3__112__tuple_leafILm0ERKNS_12basic_stringIcNS_11char_traitsIcEENS_9allocatorIcEEEELb0EE3getB8ue170006Ev, symObjAddr: 0x9E74, symBinAddr: 0x10000B660, symSize: 0x18 }
  - { offsetInCU: 0x2D409, offset: 0x2D409, size: 0x8, addend: 0x0, symName: __ZNSt3__112__hash_tableINS_17__hash_value_typeINS_12basic_stringIcNS_11char_traitsIcEENS_9allocatorIcEEEEP3PinEENS_22__unordered_map_hasherIS7_SA_NS_4hashIS7_EENS_8equal_toIS7_EELb1EEENS_21__unordered_map_equalIS7_SA_SF_SD_Lb1EEENS5_ISA_EEE8__rehashILb1EEEvm, symObjAddr: 0x9E8C, symBinAddr: 0x10000B678, symSize: 0x1A8 }
  - { offsetInCU: 0x2D459, offset: 0x2D459, size: 0x8, addend: 0x0, symName: __ZNSt3__112__hash_tableINS_17__hash_value_typeINS_12basic_stringIcNS_11char_traitsIcEENS_9allocatorIcEEEEP3PinEENS_22__unordered_map_hasherIS7_SA_NS_4hashIS7_EENS_8equal_toIS7_EELb1EEENS_21__unordered_map_equalIS7_SA_SF_SD_Lb1EEENS5_ISA_EEE11__do_rehashILb1EEEvm, symObjAddr: 0xA034, symBinAddr: 0x10000B820, symSize: 0x288 }
  - { offsetInCU: 0x2D53C, offset: 0x2D53C, size: 0x8, addend: 0x0, symName: __ZNSt3__14pairINS_15__hash_iteratorIPNS_11__hash_nodeINS_17__hash_value_typeINS_12basic_stringIcNS_11char_traitsIcEENS_9allocatorIcEEEEP3PinEEPvEEEEbEC2B8ue170006ISG_RbLSD_0EEEOT_OT0_, symObjAddr: 0xA2BC, symBinAddr: 0x10000BAA8, symSize: 0x38 }
  - { offsetInCU: 0x2D59A, offset: 0x2D59A, size: 0x8, addend: 0x0, symName: __ZNSt3__15tupleIJRKNS_12basic_stringIcNS_11char_traitsIcEENS_9allocatorIcEEEEEEC1B8ue170006INS_4_AndELi0EEES8_, symObjAddr: 0xA2F4, symBinAddr: 0x10000BAE0, symSize: 0x34 }
  - { offsetInCU: 0x2D5E2, offset: 0x2D5E2, size: 0x8, addend: 0x0, symName: __ZNSt3__15tupleIJRKNS_12basic_stringIcNS_11char_traitsIcEENS_9allocatorIcEEEEEEC2B8ue170006INS_4_AndELi0EEES8_, symObjAddr: 0xA328, symBinAddr: 0x10000BB14, symSize: 0x34 }
  - { offsetInCU: 0x2D62A, offset: 0x2D62A, size: 0x8, addend: 0x0, symName: __ZNSt3__112__tuple_implINS_15__tuple_indicesIJLm0EEEEJRKNS_12basic_stringIcNS_11char_traitsIcEENS_9allocatorIcEEEEEEC1B8ue170006IJLm0EEJSA_EJEJEJSA_EEENS1_IJXspT_EEEENS_13__tuple_typesIJDpT0_EEENS1_IJXspT1_EEEENSE_IJDpT2_EEEDpOT3_, symObjAddr: 0xA35C, symBinAddr: 0x10000BB48, symSize: 0x34 }
  - { offsetInCU: 0x2D6BF, offset: 0x2D6BF, size: 0x8, addend: 0x0, symName: __ZNSt3__112__tuple_implINS_15__tuple_indicesIJLm0EEEEJRKNS_12basic_stringIcNS_11char_traitsIcEENS_9allocatorIcEEEEEEC2B8ue170006IJLm0EEJSA_EJEJEJSA_EEENS1_IJXspT_EEEENS_13__tuple_typesIJDpT0_EEENS1_IJXspT1_EEEENSE_IJDpT2_EEEDpOT3_, symObjAddr: 0xA390, symBinAddr: 0x10000BB7C, symSize: 0x34 }
  - { offsetInCU: 0x2D754, offset: 0x2D754, size: 0x8, addend: 0x0, symName: __ZNSt3__112__tuple_leafILm0ERKNS_12basic_stringIcNS_11char_traitsIcEENS_9allocatorIcEEEELb0EEC2B8ue170006IS8_vEEOT_, symObjAddr: 0xA3C4, symBinAddr: 0x10000BBB0, symSize: 0x20 }
  - { offsetInCU: 0x2D797, offset: 0x2D797, size: 0x8, addend: 0x0, symName: __ZNSt3__112__hash_tableINS_17__hash_value_typeINS_12basic_stringIcNS_11char_traitsIcEENS_9allocatorIcEEEEP3PinEENS_22__unordered_map_hasherIS7_SA_NS_4hashIS7_EENS_8equal_toIS7_EELb1EEENS_21__unordered_map_equalIS7_SA_SF_SD_Lb1EEENS5_ISA_EEE3endEv, symObjAddr: 0xA3E4, symBinAddr: 0x10000BBD0, symSize: 0x2C }
  - { offsetInCU: 0x2D7BF, offset: 0x2D7BF, size: 0x8, addend: 0x0, symName: __ZNSt3__113unordered_mapINS_12basic_stringIcNS_11char_traitsIcEENS_9allocatorIcEEEE8FlipFlopNS_4hashIS6_EENS_8equal_toIS6_EENS4_INS_4pairIKS6_S7_EEEEEC2B8ue170006Ev, symObjAddr: 0xA474, symBinAddr: 0x10000BC60, symSize: 0x2C }
  - { offsetInCU: 0x2D7E9, offset: 0x2D7E9, size: 0x8, addend: 0x0, symName: __ZNSt3__112__hash_tableINS_17__hash_value_typeINS_12basic_stringIcNS_11char_traitsIcEENS_9allocatorIcEEEE8FlipFlopEENS_22__unordered_map_hasherIS7_S9_NS_4hashIS7_EENS_8equal_toIS7_EELb1EEENS_21__unordered_map_equalIS7_S9_SE_SC_Lb1EEENS5_IS9_EEEC1Ev, symObjAddr: 0xA4A0, symBinAddr: 0x10000BC8C, symSize: 0x2C }
  - { offsetInCU: 0x2D815, offset: 0x2D815, size: 0x8, addend: 0x0, symName: __ZNSt3__112__hash_tableINS_17__hash_value_typeINS_12basic_stringIcNS_11char_traitsIcEENS_9allocatorIcEEEE8FlipFlopEENS_22__unordered_map_hasherIS7_S9_NS_4hashIS7_EENS_8equal_toIS7_EELb1EEENS_21__unordered_map_equalIS7_S9_SE_SC_Lb1EEENS5_IS9_EEEC2Ev, symObjAddr: 0xA4CC, symBinAddr: 0x10000BCB8, symSize: 0x7C }
  - { offsetInCU: 0x2D841, offset: 0x2D841, size: 0x8, addend: 0x0, symName: __ZNSt3__110unique_ptrIA_PNS_16__hash_node_baseIPNS_11__hash_nodeINS_17__hash_value_typeINS_12basic_stringIcNS_11char_traitsIcEENS_9allocatorIcEEEE8FlipFlopEEPvEEEENS_25__bucket_list_deallocatorINS7_ISG_EEEEEC1B8ue170006ILb1EvEEv, symObjAddr: 0xA548, symBinAddr: 0x10000BD34, symSize: 0x2C }
  - { offsetInCU: 0x2D876, offset: 0x2D876, size: 0x8, addend: 0x0, symName: __ZNSt3__117__compressed_pairINS_16__hash_node_baseIPNS_11__hash_nodeINS_17__hash_value_typeINS_12basic_stringIcNS_11char_traitsIcEENS_9allocatorIcEEEE8FlipFlopEEPvEEEENS7_ISD_EEEC1B8ue170006ILb1EvEEv, symObjAddr: 0xA574, symBinAddr: 0x10000BD60, symSize: 0x2C }
  - { offsetInCU: 0x2D8AB, offset: 0x2D8AB, size: 0x8, addend: 0x0, symName: __ZNSt3__117__compressed_pairImNS_22__unordered_map_hasherINS_12basic_stringIcNS_11char_traitsIcEENS_9allocatorIcEEEENS_17__hash_value_typeIS7_8FlipFlopEENS_4hashIS7_EENS_8equal_toIS7_EELb1EEEEC1B8ue170006IiNS_18__default_init_tagEEEOT_OT0_, symObjAddr: 0xA5A0, symBinAddr: 0x10000BD8C, symSize: 0x3C }
  - { offsetInCU: 0x2D903, offset: 0x2D903, size: 0x8, addend: 0x0, symName: __ZNSt3__117__compressed_pairIfNS_21__unordered_map_equalINS_12basic_stringIcNS_11char_traitsIcEENS_9allocatorIcEEEENS_17__hash_value_typeIS7_8FlipFlopEENS_8equal_toIS7_EENS_4hashIS7_EELb1EEEEC1B8ue170006IfNS_18__default_init_tagEEEOT_OT0_, symObjAddr: 0xA5DC, symBinAddr: 0x10000BDC8, symSize: 0x3C }
  - { offsetInCU: 0x2D95B, offset: 0x2D95B, size: 0x8, addend: 0x0, symName: __ZNSt3__110unique_ptrIA_PNS_16__hash_node_baseIPNS_11__hash_nodeINS_17__hash_value_typeINS_12basic_stringIcNS_11char_traitsIcEENS_9allocatorIcEEEE8FlipFlopEEPvEEEENS_25__bucket_list_deallocatorINS7_ISG_EEEEEC2B8ue170006ILb1EvEEv, symObjAddr: 0xA618, symBinAddr: 0x10000BE04, symSize: 0x3C }
  - { offsetInCU: 0x2D990, offset: 0x2D990, size: 0x8, addend: 0x0, symName: __ZNSt3__117__compressed_pairIPPNS_16__hash_node_baseIPNS_11__hash_nodeINS_17__hash_value_typeINS_12basic_stringIcNS_11char_traitsIcEENS_9allocatorIcEEEE8FlipFlopEEPvEEEENS_25__bucket_list_deallocatorINS7_ISG_EEEEEC1B8ue170006INS_16__value_init_tagESN_EEOT_OT0_, symObjAddr: 0xA654, symBinAddr: 0x10000BE40, symSize: 0x3C }
  - { offsetInCU: 0x2D9E8, offset: 0x2D9E8, size: 0x8, addend: 0x0, symName: __ZNSt3__117__compressed_pairIPPNS_16__hash_node_baseIPNS_11__hash_nodeINS_17__hash_value_typeINS_12basic_stringIcNS_11char_traitsIcEENS_9allocatorIcEEEE8FlipFlopEEPvEEEENS_25__bucket_list_deallocatorINS7_ISG_EEEEEC2B8ue170006INS_16__value_init_tagESN_EEOT_OT0_, symObjAddr: 0xA690, symBinAddr: 0x10000BE7C, symSize: 0x40 }
  - { offsetInCU: 0x2DA40, offset: 0x2DA40, size: 0x8, addend: 0x0, symName: __ZNSt3__122__compressed_pair_elemIPPNS_16__hash_node_baseIPNS_11__hash_nodeINS_17__hash_value_typeINS_12basic_stringIcNS_11char_traitsIcEENS_9allocatorIcEEEE8FlipFlopEEPvEEEELi0ELb0EEC2B8ue170006ENS_16__value_init_tagE, symObjAddr: 0xA6D0, symBinAddr: 0x10000BEBC, symSize: 0x18 }
  - { offsetInCU: 0x2DA75, offset: 0x2DA75, size: 0x8, addend: 0x0, symName: __ZNSt3__122__compressed_pair_elemINS_25__bucket_list_deallocatorINS_9allocatorIPNS_16__hash_node_baseIPNS_11__hash_nodeINS_17__hash_value_typeINS_12basic_stringIcNS_11char_traitsIcEENS2_IcEEEE8FlipFlopEEPvEEEEEEEELi1ELb0EEC2B8ue170006ENS_16__value_init_tagE, symObjAddr: 0xA6E8, symBinAddr: 0x10000BED4, symSize: 0x2C }
  - { offsetInCU: 0x2DAAA, offset: 0x2DAAA, size: 0x8, addend: 0x0, symName: __ZNSt3__125__bucket_list_deallocatorINS_9allocatorIPNS_16__hash_node_baseIPNS_11__hash_nodeINS_17__hash_value_typeINS_12basic_stringIcNS_11char_traitsIcEENS1_IcEEEE8FlipFlopEEPvEEEEEEEC1B8ue170006Ev, symObjAddr: 0xA714, symBinAddr: 0x10000BF00, symSize: 0x2C }
  - { offsetInCU: 0x2DAD4, offset: 0x2DAD4, size: 0x8, addend: 0x0, symName: __ZNSt3__125__bucket_list_deallocatorINS_9allocatorIPNS_16__hash_node_baseIPNS_11__hash_nodeINS_17__hash_value_typeINS_12basic_stringIcNS_11char_traitsIcEENS1_IcEEEE8FlipFlopEEPvEEEEEEEC2B8ue170006Ev, symObjAddr: 0xA740, symBinAddr: 0x10000BF2C, symSize: 0x40 }
  - { offsetInCU: 0x2DAFE, offset: 0x2DAFE, size: 0x8, addend: 0x0, symName: __ZNSt3__117__compressed_pairImNS_9allocatorIPNS_16__hash_node_baseIPNS_11__hash_nodeINS_17__hash_value_typeINS_12basic_stringIcNS_11char_traitsIcEENS1_IcEEEE8FlipFlopEEPvEEEEEEEC1B8ue170006IiNS_18__default_init_tagEEEOT_OT0_, symObjAddr: 0xA780, symBinAddr: 0x10000BF6C, symSize: 0x3C }
  - { offsetInCU: 0x2DB56, offset: 0x2DB56, size: 0x8, addend: 0x0, symName: __ZNSt3__117__compressed_pairImNS_9allocatorIPNS_16__hash_node_baseIPNS_11__hash_nodeINS_17__hash_value_typeINS_12basic_stringIcNS_11char_traitsIcEENS1_IcEEEE8FlipFlopEEPvEEEEEEEC2B8ue170006IiNS_18__default_init_tagEEEOT_OT0_, symObjAddr: 0xA7BC, symBinAddr: 0x10000BFA8, symSize: 0x40 }
  - { offsetInCU: 0x2DBAE, offset: 0x2DBAE, size: 0x8, addend: 0x0, symName: __ZNSt3__122__compressed_pair_elemINS_9allocatorIPNS_16__hash_node_baseIPNS_11__hash_nodeINS_17__hash_value_typeINS_12basic_stringIcNS_11char_traitsIcEENS1_IcEEEE8FlipFlopEEPvEEEEEELi1ELb1EEC2B8ue170006ENS_18__default_init_tagE, symObjAddr: 0xA7FC, symBinAddr: 0x10000BFE8, symSize: 0x2C }
  - { offsetInCU: 0x2DBE3, offset: 0x2DBE3, size: 0x8, addend: 0x0, symName: __ZNSt3__19allocatorIPNS_16__hash_node_baseIPNS_11__hash_nodeINS_17__hash_value_typeINS_12basic_stringIcNS_11char_traitsIcEENS0_IcEEEE8FlipFlopEEPvEEEEEC2B8ue170006Ev, symObjAddr: 0xA828, symBinAddr: 0x10000C014, symSize: 0x2C }
  - { offsetInCU: 0x2DC0D, offset: 0x2DC0D, size: 0x8, addend: 0x0, symName: __ZNSt3__116__non_trivial_ifILb1ENS_9allocatorIPNS_16__hash_node_baseIPNS_11__hash_nodeINS_17__hash_value_typeINS_12basic_stringIcNS_11char_traitsIcEENS1_IcEEEE8FlipFlopEEPvEEEEEEEC2B8ue170006Ev, symObjAddr: 0xA854, symBinAddr: 0x10000C040, symSize: 0x14 }
  - { offsetInCU: 0x2DC37, offset: 0x2DC37, size: 0x8, addend: 0x0, symName: __ZNSt3__117__compressed_pairINS_16__hash_node_baseIPNS_11__hash_nodeINS_17__hash_value_typeINS_12basic_stringIcNS_11char_traitsIcEENS_9allocatorIcEEEE8FlipFlopEEPvEEEENS7_ISD_EEEC2B8ue170006ILb1EvEEv, symObjAddr: 0xA868, symBinAddr: 0x10000C054, symSize: 0x34 }
  - { offsetInCU: 0x2DC6C, offset: 0x2DC6C, size: 0x8, addend: 0x0, symName: __ZNSt3__122__compressed_pair_elemINS_16__hash_node_baseIPNS_11__hash_nodeINS_17__hash_value_typeINS_12basic_stringIcNS_11char_traitsIcEENS_9allocatorIcEEEE8FlipFlopEEPvEEEELi0ELb0EEC2B8ue170006ENS_16__value_init_tagE, symObjAddr: 0xA89C, symBinAddr: 0x10000C088, symSize: 0x2C }
  - { offsetInCU: 0x2DCA1, offset: 0x2DCA1, size: 0x8, addend: 0x0, symName: __ZNSt3__122__compressed_pair_elemINS_9allocatorINS_11__hash_nodeINS_17__hash_value_typeINS_12basic_stringIcNS_11char_traitsIcEENS1_IcEEEE8FlipFlopEEPvEEEELi1ELb1EEC2B8ue170006ENS_16__value_init_tagE, symObjAddr: 0xA8C8, symBinAddr: 0x10000C0B4, symSize: 0x2C }
  - { offsetInCU: 0x2DCD6, offset: 0x2DCD6, size: 0x8, addend: 0x0, symName: __ZNSt3__116__hash_node_baseIPNS_11__hash_nodeINS_17__hash_value_typeINS_12basic_stringIcNS_11char_traitsIcEENS_9allocatorIcEEEE8FlipFlopEEPvEEEC1B8ue170006Ev, symObjAddr: 0xA8F4, symBinAddr: 0x10000C0E0, symSize: 0x2C }
  - { offsetInCU: 0x2DD00, offset: 0x2DD00, size: 0x8, addend: 0x0, symName: __ZNSt3__116__hash_node_baseIPNS_11__hash_nodeINS_17__hash_value_typeINS_12basic_stringIcNS_11char_traitsIcEENS_9allocatorIcEEEE8FlipFlopEEPvEEEC2B8ue170006Ev, symObjAddr: 0xA920, symBinAddr: 0x10000C10C, symSize: 0x18 }
  - { offsetInCU: 0x2DD2A, offset: 0x2DD2A, size: 0x8, addend: 0x0, symName: __ZNSt3__19allocatorINS_11__hash_nodeINS_17__hash_value_typeINS_12basic_stringIcNS_11char_traitsIcEENS0_IcEEEE8FlipFlopEEPvEEEC2B8ue170006Ev, symObjAddr: 0xA938, symBinAddr: 0x10000C124, symSize: 0x2C }
  - { offsetInCU: 0x2DD54, offset: 0x2DD54, size: 0x8, addend: 0x0, symName: __ZNSt3__116__non_trivial_ifILb1ENS_9allocatorINS_11__hash_nodeINS_17__hash_value_typeINS_12basic_stringIcNS_11char_traitsIcEENS1_IcEEEE8FlipFlopEEPvEEEEEC2B8ue170006Ev, symObjAddr: 0xA964, symBinAddr: 0x10000C150, symSize: 0x14 }
  - { offsetInCU: 0x2DD7E, offset: 0x2DD7E, size: 0x8, addend: 0x0, symName: __ZNSt3__117__compressed_pairImNS_22__unordered_map_hasherINS_12basic_stringIcNS_11char_traitsIcEENS_9allocatorIcEEEENS_17__hash_value_typeIS7_8FlipFlopEENS_4hashIS7_EENS_8equal_toIS7_EELb1EEEEC2B8ue170006IiNS_18__default_init_tagEEEOT_OT0_, symObjAddr: 0xA978, symBinAddr: 0x10000C164, symSize: 0x40 }
  - { offsetInCU: 0x2DDD6, offset: 0x2DDD6, size: 0x8, addend: 0x0, symName: __ZNSt3__122__compressed_pair_elemINS_22__unordered_map_hasherINS_12basic_stringIcNS_11char_traitsIcEENS_9allocatorIcEEEENS_17__hash_value_typeIS7_8FlipFlopEENS_4hashIS7_EENS_8equal_toIS7_EELb1EEELi1ELb1EEC2B8ue170006ENS_18__default_init_tagE, symObjAddr: 0xA9B8, symBinAddr: 0x10000C1A4, symSize: 0x2C }
  - { offsetInCU: 0x2DE0B, offset: 0x2DE0B, size: 0x8, addend: 0x0, symName: __ZNSt3__122__unordered_map_hasherINS_12basic_stringIcNS_11char_traitsIcEENS_9allocatorIcEEEENS_17__hash_value_typeIS6_8FlipFlopEENS_4hashIS6_EENS_8equal_toIS6_EELb1EEC2B8ue170006Ev, symObjAddr: 0xA9E4, symBinAddr: 0x10000C1D0, symSize: 0x14 }
  - { offsetInCU: 0x2DE35, offset: 0x2DE35, size: 0x8, addend: 0x0, symName: __ZNSt3__117__compressed_pairIfNS_21__unordered_map_equalINS_12basic_stringIcNS_11char_traitsIcEENS_9allocatorIcEEEENS_17__hash_value_typeIS7_8FlipFlopEENS_8equal_toIS7_EENS_4hashIS7_EELb1EEEEC2B8ue170006IfNS_18__default_init_tagEEEOT_OT0_, symObjAddr: 0xA9F8, symBinAddr: 0x10000C1E4, symSize: 0x40 }
  - { offsetInCU: 0x2DE8D, offset: 0x2DE8D, size: 0x8, addend: 0x0, symName: __ZNSt3__122__compressed_pair_elemINS_21__unordered_map_equalINS_12basic_stringIcNS_11char_traitsIcEENS_9allocatorIcEEEENS_17__hash_value_typeIS7_8FlipFlopEENS_8equal_toIS7_EENS_4hashIS7_EELb1EEELi1ELb1EEC2B8ue170006ENS_18__default_init_tagE, symObjAddr: 0xAA38, symBinAddr: 0x10000C224, symSize: 0x2C }
  - { offsetInCU: 0x2DEC2, offset: 0x2DEC2, size: 0x8, addend: 0x0, symName: __ZNSt3__121__unordered_map_equalINS_12basic_stringIcNS_11char_traitsIcEENS_9allocatorIcEEEENS_17__hash_value_typeIS6_8FlipFlopEENS_8equal_toIS6_EENS_4hashIS6_EELb1EEC2B8ue170006Ev, symObjAddr: 0xAA64, symBinAddr: 0x10000C250, symSize: 0x14 }
  - { offsetInCU: 0x2DEEC, offset: 0x2DEEC, size: 0x8, addend: 0x0, symName: __ZNSt3__113unordered_mapINS_12basic_stringIcNS_11char_traitsIcEENS_9allocatorIcEEEE8FlipFlopNS_4hashIS6_EENS_8equal_toIS6_EENS4_INS_4pairIKS6_S7_EEEEED2B8ue170006Ev, symObjAddr: 0xAA78, symBinAddr: 0x10000C264, symSize: 0x2C }
  - { offsetInCU: 0x2DF16, offset: 0x2DF16, size: 0x8, addend: 0x0, symName: __ZNSt3__112__hash_tableINS_17__hash_value_typeINS_12basic_stringIcNS_11char_traitsIcEENS_9allocatorIcEEEE8FlipFlopEENS_22__unordered_map_hasherIS7_S9_NS_4hashIS7_EENS_8equal_toIS7_EELb1EEENS_21__unordered_map_equalIS7_S9_SE_SC_Lb1EEENS5_IS9_EEED1Ev, symObjAddr: 0xAAA4, symBinAddr: 0x10000C290, symSize: 0x2C }
  - { offsetInCU: 0x2DF42, offset: 0x2DF42, size: 0x8, addend: 0x0, symName: __ZNSt3__112__hash_tableINS_17__hash_value_typeINS_12basic_stringIcNS_11char_traitsIcEENS_9allocatorIcEEEE8FlipFlopEENS_22__unordered_map_hasherIS7_S9_NS_4hashIS7_EENS_8equal_toIS7_EELb1EEENS_21__unordered_map_equalIS7_S9_SE_SC_Lb1EEENS5_IS9_EEED2Ev, symObjAddr: 0xAAD0, symBinAddr: 0x10000C2BC, symSize: 0x48 }
  - { offsetInCU: 0x2DF6E, offset: 0x2DF6E, size: 0x8, addend: 0x0, symName: __ZNSt3__112__hash_tableINS_17__hash_value_typeINS_12basic_stringIcNS_11char_traitsIcEENS_9allocatorIcEEEE8FlipFlopEENS_22__unordered_map_hasherIS7_S9_NS_4hashIS7_EENS_8equal_toIS7_EELb1EEENS_21__unordered_map_equalIS7_S9_SE_SC_Lb1EEENS5_IS9_EEE17__deallocate_nodeEPNS_16__hash_node_baseIPNS_11__hash_nodeIS9_PvEEEE, symObjAddr: 0xAB18, symBinAddr: 0x10000C304, symSize: 0xA8 }
  - { offsetInCU: 0x2DFD8, offset: 0x2DFD8, size: 0x8, addend: 0x0, symName: __ZNSt3__117__compressed_pairINS_16__hash_node_baseIPNS_11__hash_nodeINS_17__hash_value_typeINS_12basic_stringIcNS_11char_traitsIcEENS_9allocatorIcEEEE8FlipFlopEEPvEEEENS7_ISD_EEE5firstB8ue170006Ev, symObjAddr: 0xABC0, symBinAddr: 0x10000C3AC, symSize: 0x24 }
  - { offsetInCU: 0x2DFFE, offset: 0x2DFFE, size: 0x8, addend: 0x0, symName: __ZNSt3__110unique_ptrIA_PNS_16__hash_node_baseIPNS_11__hash_nodeINS_17__hash_value_typeINS_12basic_stringIcNS_11char_traitsIcEENS_9allocatorIcEEEE8FlipFlopEEPvEEEENS_25__bucket_list_deallocatorINS7_ISG_EEEEED1B8ue170006Ev, symObjAddr: 0xABE4, symBinAddr: 0x10000C3D0, symSize: 0x2C }
  - { offsetInCU: 0x2E028, offset: 0x2E028, size: 0x8, addend: 0x0, symName: __ZNSt3__112__hash_tableINS_17__hash_value_typeINS_12basic_stringIcNS_11char_traitsIcEENS_9allocatorIcEEEE8FlipFlopEENS_22__unordered_map_hasherIS7_S9_NS_4hashIS7_EENS_8equal_toIS7_EELb1EEENS_21__unordered_map_equalIS7_S9_SE_SC_Lb1EEENS5_IS9_EEE12__node_allocB8ue170006Ev, symObjAddr: 0xAC10, symBinAddr: 0x10000C3FC, symSize: 0x28 }
  - { offsetInCU: 0x2E04E, offset: 0x2E04E, size: 0x8, addend: 0x0, symName: __ZNSt3__116__hash_node_baseIPNS_11__hash_nodeINS_17__hash_value_typeINS_12basic_stringIcNS_11char_traitsIcEENS_9allocatorIcEEEE8FlipFlopEEPvEEE8__upcastB8ue170006Ev, symObjAddr: 0xAC38, symBinAddr: 0x10000C424, symSize: 0x24 }
  - { offsetInCU: 0x2E074, offset: 0x2E074, size: 0x8, addend: 0x0, symName: __ZNSt3__116allocator_traitsINS_9allocatorINS_11__hash_nodeINS_17__hash_value_typeINS_12basic_stringIcNS_11char_traitsIcEENS1_IcEEEE8FlipFlopEEPvEEEEE7destroyB8ue170006INS_4pairIKS8_S9_EEvvEEvRSD_PT_, symObjAddr: 0xAC5C, symBinAddr: 0x10000C448, symSize: 0x28 }
  - { offsetInCU: 0x2E0AF, offset: 0x2E0AF, size: 0x8, addend: 0x0, symName: __ZNSt3__122__hash_key_value_typesINS_17__hash_value_typeINS_12basic_stringIcNS_11char_traitsIcEENS_9allocatorIcEEEE8FlipFlopEEE9__get_ptrB8ue170006ERS9_, symObjAddr: 0xAC84, symBinAddr: 0x10000C470, symSize: 0x24 }
  - { offsetInCU: 0x2E0D2, offset: 0x2E0D2, size: 0x8, addend: 0x0, symName: __ZNSt3__116allocator_traitsINS_9allocatorINS_11__hash_nodeINS_17__hash_value_typeINS_12basic_stringIcNS_11char_traitsIcEENS1_IcEEEE8FlipFlopEEPvEEEEE10deallocateB8ue170006ERSD_PSC_m, symObjAddr: 0xACA8, symBinAddr: 0x10000C494, symSize: 0x34 }
  - { offsetInCU: 0x2E114, offset: 0x2E114, size: 0x8, addend: 0x0, symName: __ZNSt3__117__compressed_pairINS_16__hash_node_baseIPNS_11__hash_nodeINS_17__hash_value_typeINS_12basic_stringIcNS_11char_traitsIcEENS_9allocatorIcEEEE8FlipFlopEEPvEEEENS7_ISD_EEE6secondB8ue170006Ev, symObjAddr: 0xACDC, symBinAddr: 0x10000C4C8, symSize: 0x24 }
  - { offsetInCU: 0x2E13A, offset: 0x2E13A, size: 0x8, addend: 0x0, symName: __ZNSt3__122__compressed_pair_elemINS_9allocatorINS_11__hash_nodeINS_17__hash_value_typeINS_12basic_stringIcNS_11char_traitsIcEENS1_IcEEEE8FlipFlopEEPvEEEELi1ELb1EE5__getB8ue170006Ev, symObjAddr: 0xAD00, symBinAddr: 0x10000C4EC, symSize: 0x14 }
  - { offsetInCU: 0x2E160, offset: 0x2E160, size: 0x8, addend: 0x0, symName: __ZNSt3__114pointer_traitsIPNS_16__hash_node_baseIPNS_11__hash_nodeINS_17__hash_value_typeINS_12basic_stringIcNS_11char_traitsIcEENS_9allocatorIcEEEE8FlipFlopEEPvEEEEE10pointer_toB8ue170006ERSF_, symObjAddr: 0xAD14, symBinAddr: 0x10000C500, symSize: 0x14 }
  - { offsetInCU: 0x2E183, offset: 0x2E183, size: 0x8, addend: 0x0, symName: __ZNSt3__14pairIKNS_12basic_stringIcNS_11char_traitsIcEENS_9allocatorIcEEEE8FlipFlopED1Ev, symObjAddr: 0xAD28, symBinAddr: 0x10000C514, symSize: 0x2C }
  - { offsetInCU: 0x2E1AF, offset: 0x2E1AF, size: 0x8, addend: 0x0, symName: __ZNSt3__14pairIKNS_12basic_stringIcNS_11char_traitsIcEENS_9allocatorIcEEEE8FlipFlopED2Ev, symObjAddr: 0xAD54, symBinAddr: 0x10000C540, symSize: 0x38 }
  - { offsetInCU: 0x2E1DB, offset: 0x2E1DB, size: 0x8, addend: 0x0, symName: __ZNSt3__117__hash_value_typeINS_12basic_stringIcNS_11char_traitsIcEENS_9allocatorIcEEEE8FlipFlopE11__get_valueB8ue170006Ev, symObjAddr: 0xAD8C, symBinAddr: 0x10000C578, symSize: 0x24 }
  - { offsetInCU: 0x2E201, offset: 0x2E201, size: 0x8, addend: 0x0, symName: __ZNSt3__19allocatorINS_11__hash_nodeINS_17__hash_value_typeINS_12basic_stringIcNS_11char_traitsIcEENS0_IcEEEE8FlipFlopEEPvEEE10deallocateB8ue170006EPSB_m, symObjAddr: 0xADE8, symBinAddr: 0x10000C5D4, symSize: 0x40 }
  - { offsetInCU: 0x2E243, offset: 0x2E243, size: 0x8, addend: 0x0, symName: __ZNSt3__122__compressed_pair_elemINS_16__hash_node_baseIPNS_11__hash_nodeINS_17__hash_value_typeINS_12basic_stringIcNS_11char_traitsIcEENS_9allocatorIcEEEE8FlipFlopEEPvEEEELi0ELb0EE5__getB8ue170006Ev, symObjAddr: 0xAE28, symBinAddr: 0x10000C614, symSize: 0x14 }
  - { offsetInCU: 0x2E269, offset: 0x2E269, size: 0x8, addend: 0x0, symName: __ZNSt3__110unique_ptrIA_PNS_16__hash_node_baseIPNS_11__hash_nodeINS_17__hash_value_typeINS_12basic_stringIcNS_11char_traitsIcEENS_9allocatorIcEEEE8FlipFlopEEPvEEEENS_25__bucket_list_deallocatorINS7_ISG_EEEEED2B8ue170006Ev, symObjAddr: 0xAE3C, symBinAddr: 0x10000C628, symSize: 0x30 }
  - { offsetInCU: 0x2E293, offset: 0x2E293, size: 0x8, addend: 0x0, symName: __ZNSt3__110unique_ptrIA_PNS_16__hash_node_baseIPNS_11__hash_nodeINS_17__hash_value_typeINS_12basic_stringIcNS_11char_traitsIcEENS_9allocatorIcEEEE8FlipFlopEEPvEEEENS_25__bucket_list_deallocatorINS7_ISG_EEEEE5resetB8ue170006EDn, symObjAddr: 0xAE6C, symBinAddr: 0x10000C658, symSize: 0x6C }
  - { offsetInCU: 0x2E2D4, offset: 0x2E2D4, size: 0x8, addend: 0x0, symName: __ZNSt3__117__compressed_pairIPPNS_16__hash_node_baseIPNS_11__hash_nodeINS_17__hash_value_typeINS_12basic_stringIcNS_11char_traitsIcEENS_9allocatorIcEEEE8FlipFlopEEPvEEEENS_25__bucket_list_deallocatorINS7_ISG_EEEEE5firstB8ue170006Ev, symObjAddr: 0xAED8, symBinAddr: 0x10000C6C4, symSize: 0x24 }
  - { offsetInCU: 0x2E2FA, offset: 0x2E2FA, size: 0x8, addend: 0x0, symName: __ZNSt3__117__compressed_pairIPPNS_16__hash_node_baseIPNS_11__hash_nodeINS_17__hash_value_typeINS_12basic_stringIcNS_11char_traitsIcEENS_9allocatorIcEEEE8FlipFlopEEPvEEEENS_25__bucket_list_deallocatorINS7_ISG_EEEEE6secondB8ue170006Ev, symObjAddr: 0xAEFC, symBinAddr: 0x10000C6E8, symSize: 0x28 }
  - { offsetInCU: 0x2E320, offset: 0x2E320, size: 0x8, addend: 0x0, symName: __ZNSt3__125__bucket_list_deallocatorINS_9allocatorIPNS_16__hash_node_baseIPNS_11__hash_nodeINS_17__hash_value_typeINS_12basic_stringIcNS_11char_traitsIcEENS1_IcEEEE8FlipFlopEEPvEEEEEEEclB8ue170006EPSG_, symObjAddr: 0xAF24, symBinAddr: 0x10000C710, symSize: 0x58 }
  - { offsetInCU: 0x2E355, offset: 0x2E355, size: 0x8, addend: 0x0, symName: __ZNSt3__122__compressed_pair_elemIPPNS_16__hash_node_baseIPNS_11__hash_nodeINS_17__hash_value_typeINS_12basic_stringIcNS_11char_traitsIcEENS_9allocatorIcEEEE8FlipFlopEEPvEEEELi0ELb0EE5__getB8ue170006Ev, symObjAddr: 0xAF7C, symBinAddr: 0x10000C768, symSize: 0x14 }
  - { offsetInCU: 0x2E37B, offset: 0x2E37B, size: 0x8, addend: 0x0, symName: __ZNSt3__122__compressed_pair_elemINS_25__bucket_list_deallocatorINS_9allocatorIPNS_16__hash_node_baseIPNS_11__hash_nodeINS_17__hash_value_typeINS_12basic_stringIcNS_11char_traitsIcEENS2_IcEEEE8FlipFlopEEPvEEEEEEEELi1ELb0EE5__getB8ue170006Ev, symObjAddr: 0xAF90, symBinAddr: 0x10000C77C, symSize: 0x14 }
  - { offsetInCU: 0x2E3A1, offset: 0x2E3A1, size: 0x8, addend: 0x0, symName: __ZNSt3__116allocator_traitsINS_9allocatorIPNS_16__hash_node_baseIPNS_11__hash_nodeINS_17__hash_value_typeINS_12basic_stringIcNS_11char_traitsIcEENS1_IcEEEE8FlipFlopEEPvEEEEEEE10deallocateB8ue170006ERSH_PSG_m, symObjAddr: 0xAFA4, symBinAddr: 0x10000C790, symSize: 0x34 }
  - { offsetInCU: 0x2E3E3, offset: 0x2E3E3, size: 0x8, addend: 0x0, symName: __ZNSt3__125__bucket_list_deallocatorINS_9allocatorIPNS_16__hash_node_baseIPNS_11__hash_nodeINS_17__hash_value_typeINS_12basic_stringIcNS_11char_traitsIcEENS1_IcEEEE8FlipFlopEEPvEEEEEEE7__allocB8ue170006Ev, symObjAddr: 0xAFD8, symBinAddr: 0x10000C7C4, symSize: 0x24 }
  - { offsetInCU: 0x2E409, offset: 0x2E409, size: 0x8, addend: 0x0, symName: __ZNSt3__125__bucket_list_deallocatorINS_9allocatorIPNS_16__hash_node_baseIPNS_11__hash_nodeINS_17__hash_value_typeINS_12basic_stringIcNS_11char_traitsIcEENS1_IcEEEE8FlipFlopEEPvEEEEEEE4sizeB8ue170006Ev, symObjAddr: 0xAFFC, symBinAddr: 0x10000C7E8, symSize: 0x24 }
  - { offsetInCU: 0x2E42F, offset: 0x2E42F, size: 0x8, addend: 0x0, symName: __ZNSt3__19allocatorIPNS_16__hash_node_baseIPNS_11__hash_nodeINS_17__hash_value_typeINS_12basic_stringIcNS_11char_traitsIcEENS0_IcEEEE8FlipFlopEEPvEEEEE10deallocateB8ue170006EPSF_m, symObjAddr: 0xB020, symBinAddr: 0x10000C80C, symSize: 0x40 }
  - { offsetInCU: 0x2E471, offset: 0x2E471, size: 0x8, addend: 0x0, symName: __ZNSt3__117__compressed_pairImNS_9allocatorIPNS_16__hash_node_baseIPNS_11__hash_nodeINS_17__hash_value_typeINS_12basic_stringIcNS_11char_traitsIcEENS1_IcEEEE8FlipFlopEEPvEEEEEEE6secondB8ue170006Ev, symObjAddr: 0xB060, symBinAddr: 0x10000C84C, symSize: 0x24 }
  - { offsetInCU: 0x2E497, offset: 0x2E497, size: 0x8, addend: 0x0, symName: __ZNSt3__122__compressed_pair_elemINS_9allocatorIPNS_16__hash_node_baseIPNS_11__hash_nodeINS_17__hash_value_typeINS_12basic_stringIcNS_11char_traitsIcEENS1_IcEEEE8FlipFlopEEPvEEEEEELi1ELb1EE5__getB8ue170006Ev, symObjAddr: 0xB084, symBinAddr: 0x10000C870, symSize: 0x14 }
  - { offsetInCU: 0x2E4BD, offset: 0x2E4BD, size: 0x8, addend: 0x0, symName: __ZNSt3__117__compressed_pairImNS_9allocatorIPNS_16__hash_node_baseIPNS_11__hash_nodeINS_17__hash_value_typeINS_12basic_stringIcNS_11char_traitsIcEENS1_IcEEEE8FlipFlopEEPvEEEEEEE5firstB8ue170006Ev, symObjAddr: 0xB098, symBinAddr: 0x10000C884, symSize: 0x24 }
  - { offsetInCU: 0x2E4E3, offset: 0x2E4E3, size: 0x8, addend: 0x0, symName: __ZNSt3__113unordered_mapINS_12basic_stringIcNS_11char_traitsIcEENS_9allocatorIcEEEE4GateNS_4hashIS6_EENS_8equal_toIS6_EENS4_INS_4pairIKS6_S7_EEEEEC2B8ue170006Ev, symObjAddr: 0xB0BC, symBinAddr: 0x10000C8A8, symSize: 0x2C }
  - { offsetInCU: 0x2E50D, offset: 0x2E50D, size: 0x8, addend: 0x0, symName: __ZNSt3__112__hash_tableINS_17__hash_value_typeINS_12basic_stringIcNS_11char_traitsIcEENS_9allocatorIcEEEE4GateEENS_22__unordered_map_hasherIS7_S9_NS_4hashIS7_EENS_8equal_toIS7_EELb1EEENS_21__unordered_map_equalIS7_S9_SE_SC_Lb1EEENS5_IS9_EEEC1Ev, symObjAddr: 0xB0E8, symBinAddr: 0x10000C8D4, symSize: 0x2C }
  - { offsetInCU: 0x2E539, offset: 0x2E539, size: 0x8, addend: 0x0, symName: __ZNSt3__112__hash_tableINS_17__hash_value_typeINS_12basic_stringIcNS_11char_traitsIcEENS_9allocatorIcEEEE4GateEENS_22__unordered_map_hasherIS7_S9_NS_4hashIS7_EENS_8equal_toIS7_EELb1EEENS_21__unordered_map_equalIS7_S9_SE_SC_Lb1EEENS5_IS9_EEEC2Ev, symObjAddr: 0xB114, symBinAddr: 0x10000C900, symSize: 0x7C }
  - { offsetInCU: 0x2E565, offset: 0x2E565, size: 0x8, addend: 0x0, symName: __ZNSt3__110unique_ptrIA_PNS_16__hash_node_baseIPNS_11__hash_nodeINS_17__hash_value_typeINS_12basic_stringIcNS_11char_traitsIcEENS_9allocatorIcEEEE4GateEEPvEEEENS_25__bucket_list_deallocatorINS7_ISG_EEEEEC1B8ue170006ILb1EvEEv, symObjAddr: 0xB190, symBinAddr: 0x10000C97C, symSize: 0x2C }
  - { offsetInCU: 0x2E59A, offset: 0x2E59A, size: 0x8, addend: 0x0, symName: __ZNSt3__117__compressed_pairINS_16__hash_node_baseIPNS_11__hash_nodeINS_17__hash_value_typeINS_12basic_stringIcNS_11char_traitsIcEENS_9allocatorIcEEEE4GateEEPvEEEENS7_ISD_EEEC1B8ue170006ILb1EvEEv, symObjAddr: 0xB1BC, symBinAddr: 0x10000C9A8, symSize: 0x2C }
  - { offsetInCU: 0x2E5CF, offset: 0x2E5CF, size: 0x8, addend: 0x0, symName: __ZNSt3__117__compressed_pairImNS_22__unordered_map_hasherINS_12basic_stringIcNS_11char_traitsIcEENS_9allocatorIcEEEENS_17__hash_value_typeIS7_4GateEENS_4hashIS7_EENS_8equal_toIS7_EELb1EEEEC1B8ue170006IiNS_18__default_init_tagEEEOT_OT0_, symObjAddr: 0xB1E8, symBinAddr: 0x10000C9D4, symSize: 0x3C }
  - { offsetInCU: 0x2E627, offset: 0x2E627, size: 0x8, addend: 0x0, symName: __ZNSt3__117__compressed_pairIfNS_21__unordered_map_equalINS_12basic_stringIcNS_11char_traitsIcEENS_9allocatorIcEEEENS_17__hash_value_typeIS7_4GateEENS_8equal_toIS7_EENS_4hashIS7_EELb1EEEEC1B8ue170006IfNS_18__default_init_tagEEEOT_OT0_, symObjAddr: 0xB224, symBinAddr: 0x10000CA10, symSize: 0x3C }
  - { offsetInCU: 0x2E67F, offset: 0x2E67F, size: 0x8, addend: 0x0, symName: __ZNSt3__110unique_ptrIA_PNS_16__hash_node_baseIPNS_11__hash_nodeINS_17__hash_value_typeINS_12basic_stringIcNS_11char_traitsIcEENS_9allocatorIcEEEE4GateEEPvEEEENS_25__bucket_list_deallocatorINS7_ISG_EEEEEC2B8ue170006ILb1EvEEv, symObjAddr: 0xB260, symBinAddr: 0x10000CA4C, symSize: 0x3C }
  - { offsetInCU: 0x2E6B4, offset: 0x2E6B4, size: 0x8, addend: 0x0, symName: __ZNSt3__117__compressed_pairIPPNS_16__hash_node_baseIPNS_11__hash_nodeINS_17__hash_value_typeINS_12basic_stringIcNS_11char_traitsIcEENS_9allocatorIcEEEE4GateEEPvEEEENS_25__bucket_list_deallocatorINS7_ISG_EEEEEC1B8ue170006INS_16__value_init_tagESN_EEOT_OT0_, symObjAddr: 0xB29C, symBinAddr: 0x10000CA88, symSize: 0x3C }
  - { offsetInCU: 0x2E70C, offset: 0x2E70C, size: 0x8, addend: 0x0, symName: __ZNSt3__117__compressed_pairIPPNS_16__hash_node_baseIPNS_11__hash_nodeINS_17__hash_value_typeINS_12basic_stringIcNS_11char_traitsIcEENS_9allocatorIcEEEE4GateEEPvEEEENS_25__bucket_list_deallocatorINS7_ISG_EEEEEC2B8ue170006INS_16__value_init_tagESN_EEOT_OT0_, symObjAddr: 0xB2D8, symBinAddr: 0x10000CAC4, symSize: 0x40 }
  - { offsetInCU: 0x2E764, offset: 0x2E764, size: 0x8, addend: 0x0, symName: __ZNSt3__122__compressed_pair_elemIPPNS_16__hash_node_baseIPNS_11__hash_nodeINS_17__hash_value_typeINS_12basic_stringIcNS_11char_traitsIcEENS_9allocatorIcEEEE4GateEEPvEEEELi0ELb0EEC2B8ue170006ENS_16__value_init_tagE, symObjAddr: 0xB318, symBinAddr: 0x10000CB04, symSize: 0x18 }
  - { offsetInCU: 0x2E799, offset: 0x2E799, size: 0x8, addend: 0x0, symName: __ZNSt3__122__compressed_pair_elemINS_25__bucket_list_deallocatorINS_9allocatorIPNS_16__hash_node_baseIPNS_11__hash_nodeINS_17__hash_value_typeINS_12basic_stringIcNS_11char_traitsIcEENS2_IcEEEE4GateEEPvEEEEEEEELi1ELb0EEC2B8ue170006ENS_16__value_init_tagE, symObjAddr: 0xB330, symBinAddr: 0x10000CB1C, symSize: 0x2C }
  - { offsetInCU: 0x2E7CE, offset: 0x2E7CE, size: 0x8, addend: 0x0, symName: __ZNSt3__125__bucket_list_deallocatorINS_9allocatorIPNS_16__hash_node_baseIPNS_11__hash_nodeINS_17__hash_value_typeINS_12basic_stringIcNS_11char_traitsIcEENS1_IcEEEE4GateEEPvEEEEEEEC1B8ue170006Ev, symObjAddr: 0xB35C, symBinAddr: 0x10000CB48, symSize: 0x2C }
  - { offsetInCU: 0x2E7F8, offset: 0x2E7F8, size: 0x8, addend: 0x0, symName: __ZNSt3__125__bucket_list_deallocatorINS_9allocatorIPNS_16__hash_node_baseIPNS_11__hash_nodeINS_17__hash_value_typeINS_12basic_stringIcNS_11char_traitsIcEENS1_IcEEEE4GateEEPvEEEEEEEC2B8ue170006Ev, symObjAddr: 0xB388, symBinAddr: 0x10000CB74, symSize: 0x40 }
  - { offsetInCU: 0x2E822, offset: 0x2E822, size: 0x8, addend: 0x0, symName: __ZNSt3__117__compressed_pairImNS_9allocatorIPNS_16__hash_node_baseIPNS_11__hash_nodeINS_17__hash_value_typeINS_12basic_stringIcNS_11char_traitsIcEENS1_IcEEEE4GateEEPvEEEEEEEC1B8ue170006IiNS_18__default_init_tagEEEOT_OT0_, symObjAddr: 0xB3C8, symBinAddr: 0x10000CBB4, symSize: 0x3C }
  - { offsetInCU: 0x2E87A, offset: 0x2E87A, size: 0x8, addend: 0x0, symName: __ZNSt3__117__compressed_pairImNS_9allocatorIPNS_16__hash_node_baseIPNS_11__hash_nodeINS_17__hash_value_typeINS_12basic_stringIcNS_11char_traitsIcEENS1_IcEEEE4GateEEPvEEEEEEEC2B8ue170006IiNS_18__default_init_tagEEEOT_OT0_, symObjAddr: 0xB404, symBinAddr: 0x10000CBF0, symSize: 0x40 }
  - { offsetInCU: 0x2E8D2, offset: 0x2E8D2, size: 0x8, addend: 0x0, symName: __ZNSt3__122__compressed_pair_elemINS_9allocatorIPNS_16__hash_node_baseIPNS_11__hash_nodeINS_17__hash_value_typeINS_12basic_stringIcNS_11char_traitsIcEENS1_IcEEEE4GateEEPvEEEEEELi1ELb1EEC2B8ue170006ENS_18__default_init_tagE, symObjAddr: 0xB444, symBinAddr: 0x10000CC30, symSize: 0x2C }
  - { offsetInCU: 0x2E907, offset: 0x2E907, size: 0x8, addend: 0x0, symName: __ZNSt3__19allocatorIPNS_16__hash_node_baseIPNS_11__hash_nodeINS_17__hash_value_typeINS_12basic_stringIcNS_11char_traitsIcEENS0_IcEEEE4GateEEPvEEEEEC2B8ue170006Ev, symObjAddr: 0xB470, symBinAddr: 0x10000CC5C, symSize: 0x2C }
  - { offsetInCU: 0x2E931, offset: 0x2E931, size: 0x8, addend: 0x0, symName: __ZNSt3__116__non_trivial_ifILb1ENS_9allocatorIPNS_16__hash_node_baseIPNS_11__hash_nodeINS_17__hash_value_typeINS_12basic_stringIcNS_11char_traitsIcEENS1_IcEEEE4GateEEPvEEEEEEEC2B8ue170006Ev, symObjAddr: 0xB49C, symBinAddr: 0x10000CC88, symSize: 0x14 }
  - { offsetInCU: 0x2E95B, offset: 0x2E95B, size: 0x8, addend: 0x0, symName: __ZNSt3__117__compressed_pairINS_16__hash_node_baseIPNS_11__hash_nodeINS_17__hash_value_typeINS_12basic_stringIcNS_11char_traitsIcEENS_9allocatorIcEEEE4GateEEPvEEEENS7_ISD_EEEC2B8ue170006ILb1EvEEv, symObjAddr: 0xB4B0, symBinAddr: 0x10000CC9C, symSize: 0x34 }
  - { offsetInCU: 0x2E990, offset: 0x2E990, size: 0x8, addend: 0x0, symName: __ZNSt3__122__compressed_pair_elemINS_16__hash_node_baseIPNS_11__hash_nodeINS_17__hash_value_typeINS_12basic_stringIcNS_11char_traitsIcEENS_9allocatorIcEEEE4GateEEPvEEEELi0ELb0EEC2B8ue170006ENS_16__value_init_tagE, symObjAddr: 0xB4E4, symBinAddr: 0x10000CCD0, symSize: 0x2C }
  - { offsetInCU: 0x2E9C5, offset: 0x2E9C5, size: 0x8, addend: 0x0, symName: __ZNSt3__122__compressed_pair_elemINS_9allocatorINS_11__hash_nodeINS_17__hash_value_typeINS_12basic_stringIcNS_11char_traitsIcEENS1_IcEEEE4GateEEPvEEEELi1ELb1EEC2B8ue170006ENS_16__value_init_tagE, symObjAddr: 0xB510, symBinAddr: 0x10000CCFC, symSize: 0x2C }
  - { offsetInCU: 0x2E9FA, offset: 0x2E9FA, size: 0x8, addend: 0x0, symName: __ZNSt3__116__hash_node_baseIPNS_11__hash_nodeINS_17__hash_value_typeINS_12basic_stringIcNS_11char_traitsIcEENS_9allocatorIcEEEE4GateEEPvEEEC1B8ue170006Ev, symObjAddr: 0xB53C, symBinAddr: 0x10000CD28, symSize: 0x2C }
  - { offsetInCU: 0x2EA24, offset: 0x2EA24, size: 0x8, addend: 0x0, symName: __ZNSt3__116__hash_node_baseIPNS_11__hash_nodeINS_17__hash_value_typeINS_12basic_stringIcNS_11char_traitsIcEENS_9allocatorIcEEEE4GateEEPvEEEC2B8ue170006Ev, symObjAddr: 0xB568, symBinAddr: 0x10000CD54, symSize: 0x18 }
  - { offsetInCU: 0x2EA4E, offset: 0x2EA4E, size: 0x8, addend: 0x0, symName: __ZNSt3__19allocatorINS_11__hash_nodeINS_17__hash_value_typeINS_12basic_stringIcNS_11char_traitsIcEENS0_IcEEEE4GateEEPvEEEC2B8ue170006Ev, symObjAddr: 0xB580, symBinAddr: 0x10000CD6C, symSize: 0x2C }
  - { offsetInCU: 0x2EA78, offset: 0x2EA78, size: 0x8, addend: 0x0, symName: __ZNSt3__116__non_trivial_ifILb1ENS_9allocatorINS_11__hash_nodeINS_17__hash_value_typeINS_12basic_stringIcNS_11char_traitsIcEENS1_IcEEEE4GateEEPvEEEEEC2B8ue170006Ev, symObjAddr: 0xB5AC, symBinAddr: 0x10000CD98, symSize: 0x14 }
  - { offsetInCU: 0x2EAA2, offset: 0x2EAA2, size: 0x8, addend: 0x0, symName: __ZNSt3__117__compressed_pairImNS_22__unordered_map_hasherINS_12basic_stringIcNS_11char_traitsIcEENS_9allocatorIcEEEENS_17__hash_value_typeIS7_4GateEENS_4hashIS7_EENS_8equal_toIS7_EELb1EEEEC2B8ue170006IiNS_18__default_init_tagEEEOT_OT0_, symObjAddr: 0xB5C0, symBinAddr: 0x10000CDAC, symSize: 0x40 }
  - { offsetInCU: 0x2EAFA, offset: 0x2EAFA, size: 0x8, addend: 0x0, symName: __ZNSt3__122__compressed_pair_elemINS_22__unordered_map_hasherINS_12basic_stringIcNS_11char_traitsIcEENS_9allocatorIcEEEENS_17__hash_value_typeIS7_4GateEENS_4hashIS7_EENS_8equal_toIS7_EELb1EEELi1ELb1EEC2B8ue170006ENS_18__default_init_tagE, symObjAddr: 0xB600, symBinAddr: 0x10000CDEC, symSize: 0x2C }
  - { offsetInCU: 0x2EB2F, offset: 0x2EB2F, size: 0x8, addend: 0x0, symName: __ZNSt3__122__unordered_map_hasherINS_12basic_stringIcNS_11char_traitsIcEENS_9allocatorIcEEEENS_17__hash_value_typeIS6_4GateEENS_4hashIS6_EENS_8equal_toIS6_EELb1EEC2B8ue170006Ev, symObjAddr: 0xB62C, symBinAddr: 0x10000CE18, symSize: 0x14 }
  - { offsetInCU: 0x2EB59, offset: 0x2EB59, size: 0x8, addend: 0x0, symName: __ZNSt3__117__compressed_pairIfNS_21__unordered_map_equalINS_12basic_stringIcNS_11char_traitsIcEENS_9allocatorIcEEEENS_17__hash_value_typeIS7_4GateEENS_8equal_toIS7_EENS_4hashIS7_EELb1EEEEC2B8ue170006IfNS_18__default_init_tagEEEOT_OT0_, symObjAddr: 0xB640, symBinAddr: 0x10000CE2C, symSize: 0x40 }
  - { offsetInCU: 0x2EBB1, offset: 0x2EBB1, size: 0x8, addend: 0x0, symName: __ZNSt3__122__compressed_pair_elemINS_21__unordered_map_equalINS_12basic_stringIcNS_11char_traitsIcEENS_9allocatorIcEEEENS_17__hash_value_typeIS7_4GateEENS_8equal_toIS7_EENS_4hashIS7_EELb1EEELi1ELb1EEC2B8ue170006ENS_18__default_init_tagE, symObjAddr: 0xB680, symBinAddr: 0x10000CE6C, symSize: 0x2C }
  - { offsetInCU: 0x2EBE6, offset: 0x2EBE6, size: 0x8, addend: 0x0, symName: __ZNSt3__121__unordered_map_equalINS_12basic_stringIcNS_11char_traitsIcEENS_9allocatorIcEEEENS_17__hash_value_typeIS6_4GateEENS_8equal_toIS6_EENS_4hashIS6_EELb1EEC2B8ue170006Ev, symObjAddr: 0xB6AC, symBinAddr: 0x10000CE98, symSize: 0x14 }
  - { offsetInCU: 0x2EC10, offset: 0x2EC10, size: 0x8, addend: 0x0, symName: __ZNSt3__113unordered_mapINS_12basic_stringIcNS_11char_traitsIcEENS_9allocatorIcEEEE4GateNS_4hashIS6_EENS_8equal_toIS6_EENS4_INS_4pairIKS6_S7_EEEEED2B8ue170006Ev, symObjAddr: 0xB6C0, symBinAddr: 0x10000CEAC, symSize: 0x2C }
  - { offsetInCU: 0x2EC3A, offset: 0x2EC3A, size: 0x8, addend: 0x0, symName: __ZNSt3__112__hash_tableINS_17__hash_value_typeINS_12basic_stringIcNS_11char_traitsIcEENS_9allocatorIcEEEE4GateEENS_22__unordered_map_hasherIS7_S9_NS_4hashIS7_EENS_8equal_toIS7_EELb1EEENS_21__unordered_map_equalIS7_S9_SE_SC_Lb1EEENS5_IS9_EEED1Ev, symObjAddr: 0xB6EC, symBinAddr: 0x10000CED8, symSize: 0x2C }
  - { offsetInCU: 0x2EC66, offset: 0x2EC66, size: 0x8, addend: 0x0, symName: __ZNSt3__112__hash_tableINS_17__hash_value_typeINS_12basic_stringIcNS_11char_traitsIcEENS_9allocatorIcEEEE4GateEENS_22__unordered_map_hasherIS7_S9_NS_4hashIS7_EENS_8equal_toIS7_EELb1EEENS_21__unordered_map_equalIS7_S9_SE_SC_Lb1EEENS5_IS9_EEED2Ev, symObjAddr: 0xB718, symBinAddr: 0x10000CF04, symSize: 0x48 }
  - { offsetInCU: 0x2EC92, offset: 0x2EC92, size: 0x8, addend: 0x0, symName: __ZNSt3__112__hash_tableINS_17__hash_value_typeINS_12basic_stringIcNS_11char_traitsIcEENS_9allocatorIcEEEE4GateEENS_22__unordered_map_hasherIS7_S9_NS_4hashIS7_EENS_8equal_toIS7_EELb1EEENS_21__unordered_map_equalIS7_S9_SE_SC_Lb1EEENS5_IS9_EEE17__deallocate_nodeEPNS_16__hash_node_baseIPNS_11__hash_nodeIS9_PvEEEE, symObjAddr: 0xB760, symBinAddr: 0x10000CF4C, symSize: 0xA8 }
  - { offsetInCU: 0x2ECFC, offset: 0x2ECFC, size: 0x8, addend: 0x0, symName: __ZNSt3__117__compressed_pairINS_16__hash_node_baseIPNS_11__hash_nodeINS_17__hash_value_typeINS_12basic_stringIcNS_11char_traitsIcEENS_9allocatorIcEEEE4GateEEPvEEEENS7_ISD_EEE5firstB8ue170006Ev, symObjAddr: 0xB808, symBinAddr: 0x10000CFF4, symSize: 0x24 }
  - { offsetInCU: 0x2ED22, offset: 0x2ED22, size: 0x8, addend: 0x0, symName: __ZNSt3__110unique_ptrIA_PNS_16__hash_node_baseIPNS_11__hash_nodeINS_17__hash_value_typeINS_12basic_stringIcNS_11char_traitsIcEENS_9allocatorIcEEEE4GateEEPvEEEENS_25__bucket_list_deallocatorINS7_ISG_EEEEED1B8ue170006Ev, symObjAddr: 0xB82C, symBinAddr: 0x10000D018, symSize: 0x2C }
  - { offsetInCU: 0x2ED4C, offset: 0x2ED4C, size: 0x8, addend: 0x0, symName: __ZNSt3__112__hash_tableINS_17__hash_value_typeINS_12basic_stringIcNS_11char_traitsIcEENS_9allocatorIcEEEE4GateEENS_22__unordered_map_hasherIS7_S9_NS_4hashIS7_EENS_8equal_toIS7_EELb1EEENS_21__unordered_map_equalIS7_S9_SE_SC_Lb1EEENS5_IS9_EEE12__node_allocB8ue170006Ev, symObjAddr: 0xB858, symBinAddr: 0x10000D044, symSize: 0x28 }
  - { offsetInCU: 0x2ED72, offset: 0x2ED72, size: 0x8, addend: 0x0, symName: __ZNSt3__116__hash_node_baseIPNS_11__hash_nodeINS_17__hash_value_typeINS_12basic_stringIcNS_11char_traitsIcEENS_9allocatorIcEEEE4GateEEPvEEE8__upcastB8ue170006Ev, symObjAddr: 0xB880, symBinAddr: 0x10000D06C, symSize: 0x24 }
  - { offsetInCU: 0x2ED98, offset: 0x2ED98, size: 0x8, addend: 0x0, symName: __ZNSt3__116allocator_traitsINS_9allocatorINS_11__hash_nodeINS_17__hash_value_typeINS_12basic_stringIcNS_11char_traitsIcEENS1_IcEEEE4GateEEPvEEEEE7destroyB8ue170006INS_4pairIKS8_S9_EEvvEEvRSD_PT_, symObjAddr: 0xB8A4, symBinAddr: 0x10000D090, symSize: 0x28 }
  - { offsetInCU: 0x2EDD3, offset: 0x2EDD3, size: 0x8, addend: 0x0, symName: __ZNSt3__122__hash_key_value_typesINS_17__hash_value_typeINS_12basic_stringIcNS_11char_traitsIcEENS_9allocatorIcEEEE4GateEEE9__get_ptrB8ue170006ERS9_, symObjAddr: 0xB8CC, symBinAddr: 0x10000D0B8, symSize: 0x24 }
  - { offsetInCU: 0x2EDF6, offset: 0x2EDF6, size: 0x8, addend: 0x0, symName: __ZNSt3__116allocator_traitsINS_9allocatorINS_11__hash_nodeINS_17__hash_value_typeINS_12basic_stringIcNS_11char_traitsIcEENS1_IcEEEE4GateEEPvEEEEE10deallocateB8ue170006ERSD_PSC_m, symObjAddr: 0xB8F0, symBinAddr: 0x10000D0DC, symSize: 0x34 }
  - { offsetInCU: 0x2EE38, offset: 0x2EE38, size: 0x8, addend: 0x0, symName: __ZNSt3__117__compressed_pairINS_16__hash_node_baseIPNS_11__hash_nodeINS_17__hash_value_typeINS_12basic_stringIcNS_11char_traitsIcEENS_9allocatorIcEEEE4GateEEPvEEEENS7_ISD_EEE6secondB8ue170006Ev, symObjAddr: 0xB924, symBinAddr: 0x10000D110, symSize: 0x24 }
  - { offsetInCU: 0x2EE5E, offset: 0x2EE5E, size: 0x8, addend: 0x0, symName: __ZNSt3__122__compressed_pair_elemINS_9allocatorINS_11__hash_nodeINS_17__hash_value_typeINS_12basic_stringIcNS_11char_traitsIcEENS1_IcEEEE4GateEEPvEEEELi1ELb1EE5__getB8ue170006Ev, symObjAddr: 0xB948, symBinAddr: 0x10000D134, symSize: 0x14 }
  - { offsetInCU: 0x2EE84, offset: 0x2EE84, size: 0x8, addend: 0x0, symName: __ZNSt3__114pointer_traitsIPNS_16__hash_node_baseIPNS_11__hash_nodeINS_17__hash_value_typeINS_12basic_stringIcNS_11char_traitsIcEENS_9allocatorIcEEEE4GateEEPvEEEEE10pointer_toB8ue170006ERSF_, symObjAddr: 0xB95C, symBinAddr: 0x10000D148, symSize: 0x14 }
  - { offsetInCU: 0x2EEA7, offset: 0x2EEA7, size: 0x8, addend: 0x0, symName: __ZNSt3__14pairIKNS_12basic_stringIcNS_11char_traitsIcEENS_9allocatorIcEEEE4GateED1Ev, symObjAddr: 0xB970, symBinAddr: 0x10000D15C, symSize: 0x2C }
  - { offsetInCU: 0x2EED3, offset: 0x2EED3, size: 0x8, addend: 0x0, symName: __ZNSt3__14pairIKNS_12basic_stringIcNS_11char_traitsIcEENS_9allocatorIcEEEE4GateED2Ev, symObjAddr: 0xB99C, symBinAddr: 0x10000D188, symSize: 0x38 }
  - { offsetInCU: 0x2EEFF, offset: 0x2EEFF, size: 0x8, addend: 0x0, symName: __ZNSt3__117__hash_value_typeINS_12basic_stringIcNS_11char_traitsIcEENS_9allocatorIcEEEE4GateE11__get_valueB8ue170006Ev, symObjAddr: 0xB9D4, symBinAddr: 0x10000D1C0, symSize: 0x24 }
  - { offsetInCU: 0x2EF25, offset: 0x2EF25, size: 0x8, addend: 0x0, symName: __ZNSt3__19allocatorINS_11__hash_nodeINS_17__hash_value_typeINS_12basic_stringIcNS_11char_traitsIcEENS0_IcEEEE4GateEEPvEEE10deallocateB8ue170006EPSB_m, symObjAddr: 0xBA30, symBinAddr: 0x10000D21C, symSize: 0x44 }
  - { offsetInCU: 0x2EF67, offset: 0x2EF67, size: 0x8, addend: 0x0, symName: __ZNSt3__122__compressed_pair_elemINS_16__hash_node_baseIPNS_11__hash_nodeINS_17__hash_value_typeINS_12basic_stringIcNS_11char_traitsIcEENS_9allocatorIcEEEE4GateEEPvEEEELi0ELb0EE5__getB8ue170006Ev, symObjAddr: 0xBA74, symBinAddr: 0x10000D260, symSize: 0x14 }
  - { offsetInCU: 0x2EF8D, offset: 0x2EF8D, size: 0x8, addend: 0x0, symName: __ZNSt3__110unique_ptrIA_PNS_16__hash_node_baseIPNS_11__hash_nodeINS_17__hash_value_typeINS_12basic_stringIcNS_11char_traitsIcEENS_9allocatorIcEEEE4GateEEPvEEEENS_25__bucket_list_deallocatorINS7_ISG_EEEEED2B8ue170006Ev, symObjAddr: 0xBA88, symBinAddr: 0x10000D274, symSize: 0x30 }
  - { offsetInCU: 0x2EFB7, offset: 0x2EFB7, size: 0x8, addend: 0x0, symName: __ZNSt3__110unique_ptrIA_PNS_16__hash_node_baseIPNS_11__hash_nodeINS_17__hash_value_typeINS_12basic_stringIcNS_11char_traitsIcEENS_9allocatorIcEEEE4GateEEPvEEEENS_25__bucket_list_deallocatorINS7_ISG_EEEEE5resetB8ue170006EDn, symObjAddr: 0xBAB8, symBinAddr: 0x10000D2A4, symSize: 0x6C }
  - { offsetInCU: 0x2EFF8, offset: 0x2EFF8, size: 0x8, addend: 0x0, symName: __ZNSt3__117__compressed_pairIPPNS_16__hash_node_baseIPNS_11__hash_nodeINS_17__hash_value_typeINS_12basic_stringIcNS_11char_traitsIcEENS_9allocatorIcEEEE4GateEEPvEEEENS_25__bucket_list_deallocatorINS7_ISG_EEEEE5firstB8ue170006Ev, symObjAddr: 0xBB24, symBinAddr: 0x10000D310, symSize: 0x24 }
  - { offsetInCU: 0x2F01E, offset: 0x2F01E, size: 0x8, addend: 0x0, symName: __ZNSt3__117__compressed_pairIPPNS_16__hash_node_baseIPNS_11__hash_nodeINS_17__hash_value_typeINS_12basic_stringIcNS_11char_traitsIcEENS_9allocatorIcEEEE4GateEEPvEEEENS_25__bucket_list_deallocatorINS7_ISG_EEEEE6secondB8ue170006Ev, symObjAddr: 0xBB48, symBinAddr: 0x10000D334, symSize: 0x28 }
  - { offsetInCU: 0x2F044, offset: 0x2F044, size: 0x8, addend: 0x0, symName: __ZNSt3__125__bucket_list_deallocatorINS_9allocatorIPNS_16__hash_node_baseIPNS_11__hash_nodeINS_17__hash_value_typeINS_12basic_stringIcNS_11char_traitsIcEENS1_IcEEEE4GateEEPvEEEEEEEclB8ue170006EPSG_, symObjAddr: 0xBB70, symBinAddr: 0x10000D35C, symSize: 0x58 }
  - { offsetInCU: 0x2F079, offset: 0x2F079, size: 0x8, addend: 0x0, symName: __ZNSt3__122__compressed_pair_elemIPPNS_16__hash_node_baseIPNS_11__hash_nodeINS_17__hash_value_typeINS_12basic_stringIcNS_11char_traitsIcEENS_9allocatorIcEEEE4GateEEPvEEEELi0ELb0EE5__getB8ue170006Ev, symObjAddr: 0xBBC8, symBinAddr: 0x10000D3B4, symSize: 0x14 }
  - { offsetInCU: 0x2F09F, offset: 0x2F09F, size: 0x8, addend: 0x0, symName: __ZNSt3__122__compressed_pair_elemINS_25__bucket_list_deallocatorINS_9allocatorIPNS_16__hash_node_baseIPNS_11__hash_nodeINS_17__hash_value_typeINS_12basic_stringIcNS_11char_traitsIcEENS2_IcEEEE4GateEEPvEEEEEEEELi1ELb0EE5__getB8ue170006Ev, symObjAddr: 0xBBDC, symBinAddr: 0x10000D3C8, symSize: 0x14 }
  - { offsetInCU: 0x2F0C5, offset: 0x2F0C5, size: 0x8, addend: 0x0, symName: __ZNSt3__116allocator_traitsINS_9allocatorIPNS_16__hash_node_baseIPNS_11__hash_nodeINS_17__hash_value_typeINS_12basic_stringIcNS_11char_traitsIcEENS1_IcEEEE4GateEEPvEEEEEEE10deallocateB8ue170006ERSH_PSG_m, symObjAddr: 0xBBF0, symBinAddr: 0x10000D3DC, symSize: 0x34 }
  - { offsetInCU: 0x2F107, offset: 0x2F107, size: 0x8, addend: 0x0, symName: __ZNSt3__125__bucket_list_deallocatorINS_9allocatorIPNS_16__hash_node_baseIPNS_11__hash_nodeINS_17__hash_value_typeINS_12basic_stringIcNS_11char_traitsIcEENS1_IcEEEE4GateEEPvEEEEEEE7__allocB8ue170006Ev, symObjAddr: 0xBC24, symBinAddr: 0x10000D410, symSize: 0x24 }
  - { offsetInCU: 0x2F12D, offset: 0x2F12D, size: 0x8, addend: 0x0, symName: __ZNSt3__125__bucket_list_deallocatorINS_9allocatorIPNS_16__hash_node_baseIPNS_11__hash_nodeINS_17__hash_value_typeINS_12basic_stringIcNS_11char_traitsIcEENS1_IcEEEE4GateEEPvEEEEEEE4sizeB8ue170006Ev, symObjAddr: 0xBC48, symBinAddr: 0x10000D434, symSize: 0x24 }
  - { offsetInCU: 0x2F153, offset: 0x2F153, size: 0x8, addend: 0x0, symName: __ZNSt3__19allocatorIPNS_16__hash_node_baseIPNS_11__hash_nodeINS_17__hash_value_typeINS_12basic_stringIcNS_11char_traitsIcEENS0_IcEEEE4GateEEPvEEEEE10deallocateB8ue170006EPSF_m, symObjAddr: 0xBC6C, symBinAddr: 0x10000D458, symSize: 0x40 }
  - { offsetInCU: 0x2F195, offset: 0x2F195, size: 0x8, addend: 0x0, symName: __ZNSt3__117__compressed_pairImNS_9allocatorIPNS_16__hash_node_baseIPNS_11__hash_nodeINS_17__hash_value_typeINS_12basic_stringIcNS_11char_traitsIcEENS1_IcEEEE4GateEEPvEEEEEEE6secondB8ue170006Ev, symObjAddr: 0xBCAC, symBinAddr: 0x10000D498, symSize: 0x24 }
  - { offsetInCU: 0x2F1BB, offset: 0x2F1BB, size: 0x8, addend: 0x0, symName: __ZNSt3__122__compressed_pair_elemINS_9allocatorIPNS_16__hash_node_baseIPNS_11__hash_nodeINS_17__hash_value_typeINS_12basic_stringIcNS_11char_traitsIcEENS1_IcEEEE4GateEEPvEEEEEELi1ELb1EE5__getB8ue170006Ev, symObjAddr: 0xBCD0, symBinAddr: 0x10000D4BC, symSize: 0x14 }
  - { offsetInCU: 0x2F1E1, offset: 0x2F1E1, size: 0x8, addend: 0x0, symName: __ZNSt3__117__compressed_pairImNS_9allocatorIPNS_16__hash_node_baseIPNS_11__hash_nodeINS_17__hash_value_typeINS_12basic_stringIcNS_11char_traitsIcEENS1_IcEEEE4GateEEPvEEEEEEE5firstB8ue170006Ev, symObjAddr: 0xBCE4, symBinAddr: 0x10000D4D0, symSize: 0x24 }
  - { offsetInCU: 0x2F207, offset: 0x2F207, size: 0x8, addend: 0x0, symName: __ZNSt3__112__hash_tableINS_17__hash_value_typeINS_12basic_stringIcNS_11char_traitsIcEENS_9allocatorIcEEEE8FlipFlopEENS_22__unordered_map_hasherIS7_S9_NS_4hashIS7_EENS_8equal_toIS7_EELb1EEENS_21__unordered_map_equalIS7_S9_SE_SC_Lb1EEENS5_IS9_EEE25__emplace_unique_key_argsIS7_JRKNS_21piecewise_construct_tENS_5tupleIJRKS7_EEENSO_IJEEEEEENS_4pairINS_15__hash_iteratorIPNS_11__hash_nodeIS9_PvEEEEbEERKT_DpOT0_, symObjAddr: 0xBD08, symBinAddr: 0x10000D4F4, symSize: 0x4CC }
  - { offsetInCU: 0x2F311, offset: 0x2F311, size: 0x8, addend: 0x0, symName: __ZNKSt3__115__hash_iteratorIPNS_11__hash_nodeINS_17__hash_value_typeINS_12basic_stringIcNS_11char_traitsIcEENS_9allocatorIcEEEE8FlipFlopEEPvEEEptB8ue170006Ev, symObjAddr: 0xC1D4, symBinAddr: 0x10000D9C0, symSize: 0x30 }
  - { offsetInCU: 0x2F337, offset: 0x2F337, size: 0x8, addend: 0x0, symName: __ZNSt3__112__hash_tableINS_17__hash_value_typeINS_12basic_stringIcNS_11char_traitsIcEENS_9allocatorIcEEEE8FlipFlopEENS_22__unordered_map_hasherIS7_S9_NS_4hashIS7_EENS_8equal_toIS7_EELb1EEENS_21__unordered_map_equalIS7_S9_SE_SC_Lb1EEENS5_IS9_EEE13hash_functionB8ue170006Ev, symObjAddr: 0xC204, symBinAddr: 0x10000D9F0, symSize: 0x28 }
  - { offsetInCU: 0x2F35D, offset: 0x2F35D, size: 0x8, addend: 0x0, symName: __ZNKSt3__122__unordered_map_hasherINS_12basic_stringIcNS_11char_traitsIcEENS_9allocatorIcEEEENS_17__hash_value_typeIS6_8FlipFlopEENS_4hashIS6_EENS_8equal_toIS6_EELb1EEclB8ue170006ERKS6_, symObjAddr: 0xC22C, symBinAddr: 0x10000DA18, symSize: 0x2C }
  - { offsetInCU: 0x2F392, offset: 0x2F392, size: 0x8, addend: 0x0, symName: __ZNKSt3__112__hash_tableINS_17__hash_value_typeINS_12basic_stringIcNS_11char_traitsIcEENS_9allocatorIcEEEE8FlipFlopEENS_22__unordered_map_hasherIS7_S9_NS_4hashIS7_EENS_8equal_toIS7_EELb1EEENS_21__unordered_map_equalIS7_S9_SE_SC_Lb1EEENS5_IS9_EEE12bucket_countB8ue170006Ev, symObjAddr: 0xC258, symBinAddr: 0x10000DA44, symSize: 0x28 }
  - { offsetInCU: 0x2F3B8, offset: 0x2F3B8, size: 0x8, addend: 0x0, symName: __ZNKSt3__110unique_ptrIA_PNS_16__hash_node_baseIPNS_11__hash_nodeINS_17__hash_value_typeINS_12basic_stringIcNS_11char_traitsIcEENS_9allocatorIcEEEE8FlipFlopEEPvEEEENS_25__bucket_list_deallocatorINS7_ISG_EEEEEixB8ue170006Em, symObjAddr: 0xC280, symBinAddr: 0x10000DA6C, symSize: 0x34 }
  - { offsetInCU: 0x2F3ED, offset: 0x2F3ED, size: 0x8, addend: 0x0, symName: __ZNKSt3__116__hash_node_baseIPNS_11__hash_nodeINS_17__hash_value_typeINS_12basic_stringIcNS_11char_traitsIcEENS_9allocatorIcEEEE8FlipFlopEEPvEEE6__hashB8ue170006Ev, symObjAddr: 0xC2B4, symBinAddr: 0x10000DAA0, symSize: 0x18 }
  - { offsetInCU: 0x2F413, offset: 0x2F413, size: 0x8, addend: 0x0, symName: __ZNSt3__112__hash_tableINS_17__hash_value_typeINS_12basic_stringIcNS_11char_traitsIcEENS_9allocatorIcEEEE8FlipFlopEENS_22__unordered_map_hasherIS7_S9_NS_4hashIS7_EENS_8equal_toIS7_EELb1EEENS_21__unordered_map_equalIS7_S9_SE_SC_Lb1EEENS5_IS9_EEE6key_eqB8ue170006Ev, symObjAddr: 0xC2CC, symBinAddr: 0x10000DAB8, symSize: 0x28 }
  - { offsetInCU: 0x2F439, offset: 0x2F439, size: 0x8, addend: 0x0, symName: __ZNKSt3__121__unordered_map_equalINS_12basic_stringIcNS_11char_traitsIcEENS_9allocatorIcEEEENS_17__hash_value_typeIS6_8FlipFlopEENS_8equal_toIS6_EENS_4hashIS6_EELb1EEclB8ue170006ERKS9_RKS6_, symObjAddr: 0xC2F4, symBinAddr: 0x10000DAE0, symSize: 0x48 }
  - { offsetInCU: 0x2F47D, offset: 0x2F47D, size: 0x8, addend: 0x0, symName: __ZNSt3__112__hash_tableINS_17__hash_value_typeINS_12basic_stringIcNS_11char_traitsIcEENS_9allocatorIcEEEE8FlipFlopEENS_22__unordered_map_hasherIS7_S9_NS_4hashIS7_EENS_8equal_toIS7_EELb1EEENS_21__unordered_map_equalIS7_S9_SE_SC_Lb1EEENS5_IS9_EEE21__construct_node_hashIRKNS_21piecewise_construct_tEJNS_5tupleIJRKS7_EEENSO_IJEEEEEENS_10unique_ptrINS_11__hash_nodeIS9_PvEENS_22__hash_node_destructorINS5_ISW_EEEEEEmOT_DpOT0_, symObjAddr: 0xC33C, symBinAddr: 0x10000DB28, symSize: 0x150 }
  - { offsetInCU: 0x2F519, offset: 0x2F519, size: 0x8, addend: 0x0, symName: __ZNSt3__112__hash_tableINS_17__hash_value_typeINS_12basic_stringIcNS_11char_traitsIcEENS_9allocatorIcEEEE8FlipFlopEENS_22__unordered_map_hasherIS7_S9_NS_4hashIS7_EENS_8equal_toIS7_EELb1EEENS_21__unordered_map_equalIS7_S9_SE_SC_Lb1EEENS5_IS9_EEE4sizeB8ue170006Ev, symObjAddr: 0xC48C, symBinAddr: 0x10000DC78, symSize: 0x28 }
  - { offsetInCU: 0x2F53F, offset: 0x2F53F, size: 0x8, addend: 0x0, symName: __ZNSt3__112__hash_tableINS_17__hash_value_typeINS_12basic_stringIcNS_11char_traitsIcEENS_9allocatorIcEEEE8FlipFlopEENS_22__unordered_map_hasherIS7_S9_NS_4hashIS7_EENS_8equal_toIS7_EELb1EEENS_21__unordered_map_equalIS7_S9_SE_SC_Lb1EEENS5_IS9_EEE15max_load_factorB8ue170006Ev, symObjAddr: 0xC4B4, symBinAddr: 0x10000DCA0, symSize: 0x28 }
  - { offsetInCU: 0x2F565, offset: 0x2F565, size: 0x8, addend: 0x0, symName: __ZNSt3__112__hash_tableINS_17__hash_value_typeINS_12basic_stringIcNS_11char_traitsIcEENS_9allocatorIcEEEE8FlipFlopEENS_22__unordered_map_hasherIS7_S9_NS_4hashIS7_EENS_8equal_toIS7_EELb1EEENS_21__unordered_map_equalIS7_S9_SE_SC_Lb1EEENS5_IS9_EEE15__rehash_uniqueB8ue170006Em, symObjAddr: 0xC4DC, symBinAddr: 0x10000DCC8, symSize: 0x2C }
  - { offsetInCU: 0x2F59A, offset: 0x2F59A, size: 0x8, addend: 0x0, symName: __ZNSt3__116__hash_node_baseIPNS_11__hash_nodeINS_17__hash_value_typeINS_12basic_stringIcNS_11char_traitsIcEENS_9allocatorIcEEEE8FlipFlopEEPvEEE5__ptrB8ue170006Ev, symObjAddr: 0xC508, symBinAddr: 0x10000DCF4, symSize: 0x24 }
  - { offsetInCU: 0x2F5C0, offset: 0x2F5C0, size: 0x8, addend: 0x0, symName: __ZNKSt3__110unique_ptrINS_11__hash_nodeINS_17__hash_value_typeINS_12basic_stringIcNS_11char_traitsIcEENS_9allocatorIcEEEE8FlipFlopEEPvEENS_22__hash_node_destructorINS6_ISC_EEEEEptB8ue170006Ev, symObjAddr: 0xC52C, symBinAddr: 0x10000DD18, symSize: 0x28 }
  - { offsetInCU: 0x2F5E6, offset: 0x2F5E6, size: 0x8, addend: 0x0, symName: __ZNKSt3__110unique_ptrINS_11__hash_nodeINS_17__hash_value_typeINS_12basic_stringIcNS_11char_traitsIcEENS_9allocatorIcEEEE8FlipFlopEEPvEENS_22__hash_node_destructorINS6_ISC_EEEEE3getB8ue170006Ev, symObjAddr: 0xC554, symBinAddr: 0x10000DD40, symSize: 0x28 }
  - { offsetInCU: 0x2F60C, offset: 0x2F60C, size: 0x8, addend: 0x0, symName: __ZNSt3__110unique_ptrINS_11__hash_nodeINS_17__hash_value_typeINS_12basic_stringIcNS_11char_traitsIcEENS_9allocatorIcEEEE8FlipFlopEEPvEENS_22__hash_node_destructorINS6_ISC_EEEEE7releaseB8ue170006Ev, symObjAddr: 0xC57C, symBinAddr: 0x10000DD68, symSize: 0x44 }
  - { offsetInCU: 0x2F641, offset: 0x2F641, size: 0x8, addend: 0x0, symName: __ZNSt3__110unique_ptrINS_11__hash_nodeINS_17__hash_value_typeINS_12basic_stringIcNS_11char_traitsIcEENS_9allocatorIcEEEE8FlipFlopEEPvEENS_22__hash_node_destructorINS6_ISC_EEEEED1B8ue170006Ev, symObjAddr: 0xC5C0, symBinAddr: 0x10000DDAC, symSize: 0x2C }
  - { offsetInCU: 0x2F66B, offset: 0x2F66B, size: 0x8, addend: 0x0, symName: __ZNSt3__115__hash_iteratorIPNS_11__hash_nodeINS_17__hash_value_typeINS_12basic_stringIcNS_11char_traitsIcEENS_9allocatorIcEEEE8FlipFlopEEPvEEEC1B8ue170006EPNS_16__hash_node_baseISD_EE, symObjAddr: 0xC5EC, symBinAddr: 0x10000DDD8, symSize: 0x34 }
  - { offsetInCU: 0x2F6A9, offset: 0x2F6A9, size: 0x8, addend: 0x0, symName: __ZNSt3__14pairINS_15__hash_iteratorIPNS_11__hash_nodeINS_17__hash_value_typeINS_12basic_stringIcNS_11char_traitsIcEENS_9allocatorIcEEEE8FlipFlopEEPvEEEEbEC1B8ue170006ISF_RbLSC_0EEEOT_OT0_, symObjAddr: 0xC620, symBinAddr: 0x10000DE0C, symSize: 0x3C }
  - { offsetInCU: 0x2F707, offset: 0x2F707, size: 0x8, addend: 0x0, symName: __ZNSt3__117__compressed_pairImNS_22__unordered_map_hasherINS_12basic_stringIcNS_11char_traitsIcEENS_9allocatorIcEEEENS_17__hash_value_typeIS7_8FlipFlopEENS_4hashIS7_EENS_8equal_toIS7_EELb1EEEE6secondB8ue170006Ev, symObjAddr: 0xC65C, symBinAddr: 0x10000DE48, symSize: 0x24 }
  - { offsetInCU: 0x2F72D, offset: 0x2F72D, size: 0x8, addend: 0x0, symName: __ZNSt3__122__compressed_pair_elemINS_22__unordered_map_hasherINS_12basic_stringIcNS_11char_traitsIcEENS_9allocatorIcEEEENS_17__hash_value_typeIS7_8FlipFlopEENS_4hashIS7_EENS_8equal_toIS7_EELb1EEELi1ELb1EE5__getB8ue170006Ev, symObjAddr: 0xC680, symBinAddr: 0x10000DE6C, symSize: 0x14 }
  - { offsetInCU: 0x2F753, offset: 0x2F753, size: 0x8, addend: 0x0, symName: __ZNKSt3__110unique_ptrIA_PNS_16__hash_node_baseIPNS_11__hash_nodeINS_17__hash_value_typeINS_12basic_stringIcNS_11char_traitsIcEENS_9allocatorIcEEEE8FlipFlopEEPvEEEENS_25__bucket_list_deallocatorINS7_ISG_EEEEE11get_deleterB8ue170006Ev, symObjAddr: 0xC694, symBinAddr: 0x10000DE80, symSize: 0x24 }
  - { offsetInCU: 0x2F779, offset: 0x2F779, size: 0x8, addend: 0x0, symName: __ZNKSt3__125__bucket_list_deallocatorINS_9allocatorIPNS_16__hash_node_baseIPNS_11__hash_nodeINS_17__hash_value_typeINS_12basic_stringIcNS_11char_traitsIcEENS1_IcEEEE8FlipFlopEEPvEEEEEEE4sizeB8ue170006Ev, symObjAddr: 0xC6B8, symBinAddr: 0x10000DEA4, symSize: 0x28 }
  - { offsetInCU: 0x2F79F, offset: 0x2F79F, size: 0x8, addend: 0x0, symName: __ZNKSt3__117__compressed_pairIPPNS_16__hash_node_baseIPNS_11__hash_nodeINS_17__hash_value_typeINS_12basic_stringIcNS_11char_traitsIcEENS_9allocatorIcEEEE8FlipFlopEEPvEEEENS_25__bucket_list_deallocatorINS7_ISG_EEEEE6secondB8ue170006Ev, symObjAddr: 0xC6E0, symBinAddr: 0x10000DECC, symSize: 0x28 }
  - { offsetInCU: 0x2F7C5, offset: 0x2F7C5, size: 0x8, addend: 0x0, symName: __ZNKSt3__122__compressed_pair_elemINS_25__bucket_list_deallocatorINS_9allocatorIPNS_16__hash_node_baseIPNS_11__hash_nodeINS_17__hash_value_typeINS_12basic_stringIcNS_11char_traitsIcEENS2_IcEEEE8FlipFlopEEPvEEEEEEEELi1ELb0EE5__getB8ue170006Ev, symObjAddr: 0xC708, symBinAddr: 0x10000DEF4, symSize: 0x14 }
  - { offsetInCU: 0x2F7EB, offset: 0x2F7EB, size: 0x8, addend: 0x0, symName: __ZNKSt3__117__compressed_pairImNS_9allocatorIPNS_16__hash_node_baseIPNS_11__hash_nodeINS_17__hash_value_typeINS_12basic_stringIcNS_11char_traitsIcEENS1_IcEEEE8FlipFlopEEPvEEEEEEE5firstB8ue170006Ev, symObjAddr: 0xC71C, symBinAddr: 0x10000DF08, symSize: 0x24 }
  - { offsetInCU: 0x2F811, offset: 0x2F811, size: 0x8, addend: 0x0, symName: __ZNKSt3__117__compressed_pairIPPNS_16__hash_node_baseIPNS_11__hash_nodeINS_17__hash_value_typeINS_12basic_stringIcNS_11char_traitsIcEENS_9allocatorIcEEEE8FlipFlopEEPvEEEENS_25__bucket_list_deallocatorINS7_ISG_EEEEE5firstB8ue170006Ev, symObjAddr: 0xC740, symBinAddr: 0x10000DF2C, symSize: 0x24 }
  - { offsetInCU: 0x2F837, offset: 0x2F837, size: 0x8, addend: 0x0, symName: __ZNKSt3__122__compressed_pair_elemIPPNS_16__hash_node_baseIPNS_11__hash_nodeINS_17__hash_value_typeINS_12basic_stringIcNS_11char_traitsIcEENS_9allocatorIcEEEE8FlipFlopEEPvEEEELi0ELb0EE5__getB8ue170006Ev, symObjAddr: 0xC764, symBinAddr: 0x10000DF50, symSize: 0x14 }
  - { offsetInCU: 0x2F85D, offset: 0x2F85D, size: 0x8, addend: 0x0, symName: __ZNSt3__117__compressed_pairIfNS_21__unordered_map_equalINS_12basic_stringIcNS_11char_traitsIcEENS_9allocatorIcEEEENS_17__hash_value_typeIS7_8FlipFlopEENS_8equal_toIS7_EENS_4hashIS7_EELb1EEEE6secondB8ue170006Ev, symObjAddr: 0xC778, symBinAddr: 0x10000DF64, symSize: 0x24 }
  - { offsetInCU: 0x2F883, offset: 0x2F883, size: 0x8, addend: 0x0, symName: __ZNSt3__122__compressed_pair_elemINS_21__unordered_map_equalINS_12basic_stringIcNS_11char_traitsIcEENS_9allocatorIcEEEENS_17__hash_value_typeIS7_8FlipFlopEENS_8equal_toIS7_EENS_4hashIS7_EELb1EEELi1ELb1EE5__getB8ue170006Ev, symObjAddr: 0xC79C, symBinAddr: 0x10000DF88, symSize: 0x14 }
  - { offsetInCU: 0x2F8A9, offset: 0x2F8A9, size: 0x8, addend: 0x0, symName: __ZNKSt3__117__hash_value_typeINS_12basic_stringIcNS_11char_traitsIcEENS_9allocatorIcEEEE8FlipFlopE11__get_valueB8ue170006Ev, symObjAddr: 0xC7B0, symBinAddr: 0x10000DF9C, symSize: 0x24 }
  - { offsetInCU: 0x2F8CF, offset: 0x2F8CF, size: 0x8, addend: 0x0, symName: __ZNSt3__116allocator_traitsINS_9allocatorINS_11__hash_nodeINS_17__hash_value_typeINS_12basic_stringIcNS_11char_traitsIcEENS1_IcEEEE8FlipFlopEEPvEEEEE8allocateB8ue170006ERSD_m, symObjAddr: 0xC80C, symBinAddr: 0x10000DFF8, symSize: 0x2C }
  - { offsetInCU: 0x2F902, offset: 0x2F902, size: 0x8, addend: 0x0, symName: __ZNSt3__122__hash_node_destructorINS_9allocatorINS_11__hash_nodeINS_17__hash_value_typeINS_12basic_stringIcNS_11char_traitsIcEENS1_IcEEEE8FlipFlopEEPvEEEEEC1B8ue170006ERSD_b, symObjAddr: 0xC838, symBinAddr: 0x10000E024, symSize: 0x48 }
  - { offsetInCU: 0x2F94F, offset: 0x2F94F, size: 0x8, addend: 0x0, symName: __ZNSt3__110unique_ptrINS_11__hash_nodeINS_17__hash_value_typeINS_12basic_stringIcNS_11char_traitsIcEENS_9allocatorIcEEEE8FlipFlopEEPvEENS_22__hash_node_destructorINS6_ISC_EEEEEC1B8ue170006ILb1EvEEPSC_NS_16__dependent_typeINS_27__unique_ptr_deleter_sfinaeISF_EEXT_EE20__good_rval_ref_typeE, symObjAddr: 0xC880, symBinAddr: 0x10000E06C, symSize: 0x3C }
  - { offsetInCU: 0x2F9A0, offset: 0x2F9A0, size: 0x8, addend: 0x0, symName: __ZNSt3__116allocator_traitsINS_9allocatorINS_11__hash_nodeINS_17__hash_value_typeINS_12basic_stringIcNS_11char_traitsIcEENS1_IcEEEE8FlipFlopEEPvEEEEE9constructB8ue170006INS_4pairIKS8_S9_EEJRKNS_21piecewise_construct_tENS_5tupleIJRSH_EEENSM_IJEEEEvEEvRSD_PT_DpOT0_, symObjAddr: 0xC8BC, symBinAddr: 0x10000E0A8, symSize: 0x44 }
  - { offsetInCU: 0x2FA1F, offset: 0x2FA1F, size: 0x8, addend: 0x0, symName: __ZNSt3__110unique_ptrINS_11__hash_nodeINS_17__hash_value_typeINS_12basic_stringIcNS_11char_traitsIcEENS_9allocatorIcEEEE8FlipFlopEEPvEENS_22__hash_node_destructorINS6_ISC_EEEEE11get_deleterB8ue170006Ev, symObjAddr: 0xC900, symBinAddr: 0x10000E0EC, symSize: 0x24 }
  - { offsetInCU: 0x2FA45, offset: 0x2FA45, size: 0x8, addend: 0x0, symName: __ZNSt3__19allocatorINS_11__hash_nodeINS_17__hash_value_typeINS_12basic_stringIcNS_11char_traitsIcEENS0_IcEEEE8FlipFlopEEPvEEE8allocateB8ue170006Em, symObjAddr: 0xC924, symBinAddr: 0x10000E110, symSize: 0x58 }
  - { offsetInCU: 0x2FA83, offset: 0x2FA83, size: 0x8, addend: 0x0, symName: __ZNSt3__116allocator_traitsINS_9allocatorINS_11__hash_nodeINS_17__hash_value_typeINS_12basic_stringIcNS_11char_traitsIcEENS1_IcEEEE8FlipFlopEEPvEEEEE8max_sizeB8ue170006ISD_vEEmRKSD_, symObjAddr: 0xC97C, symBinAddr: 0x10000E168, symSize: 0x24 }
  - { offsetInCU: 0x2FAB1, offset: 0x2FAB1, size: 0x8, addend: 0x0, symName: __ZNKSt3__19allocatorINS_11__hash_nodeINS_17__hash_value_typeINS_12basic_stringIcNS_11char_traitsIcEENS0_IcEEEE8FlipFlopEEPvEEE8max_sizeB8ue170006Ev, symObjAddr: 0xC9A0, symBinAddr: 0x10000E18C, symSize: 0x14 }
  - { offsetInCU: 0x2FAD7, offset: 0x2FAD7, size: 0x8, addend: 0x0, symName: __ZNSt3__122__hash_node_destructorINS_9allocatorINS_11__hash_nodeINS_17__hash_value_typeINS_12basic_stringIcNS_11char_traitsIcEENS1_IcEEEE8FlipFlopEEPvEEEEEC2B8ue170006ERSD_b, symObjAddr: 0xC9B4, symBinAddr: 0x10000E1A0, symSize: 0x38 }
  - { offsetInCU: 0x2FB1F, offset: 0x2FB1F, size: 0x8, addend: 0x0, symName: __ZNSt3__110unique_ptrINS_11__hash_nodeINS_17__hash_value_typeINS_12basic_stringIcNS_11char_traitsIcEENS_9allocatorIcEEEE8FlipFlopEEPvEENS_22__hash_node_destructorINS6_ISC_EEEEEC2B8ue170006ILb1EvEEPSC_NS_16__dependent_typeINS_27__unique_ptr_deleter_sfinaeISF_EEXT_EE20__good_rval_ref_typeE, symObjAddr: 0xC9EC, symBinAddr: 0x10000E1D8, symSize: 0x48 }
  - { offsetInCU: 0x2FB70, offset: 0x2FB70, size: 0x8, addend: 0x0, symName: __ZNSt3__117__compressed_pairIPNS_11__hash_nodeINS_17__hash_value_typeINS_12basic_stringIcNS_11char_traitsIcEENS_9allocatorIcEEEE8FlipFlopEEPvEENS_22__hash_node_destructorINS6_ISC_EEEEEC1B8ue170006IRSD_SG_EEOT_OT0_, symObjAddr: 0xCA34, symBinAddr: 0x10000E220, symSize: 0x3C }
  - { offsetInCU: 0x2FBC8, offset: 0x2FBC8, size: 0x8, addend: 0x0, symName: __ZNSt3__117__compressed_pairIPNS_11__hash_nodeINS_17__hash_value_typeINS_12basic_stringIcNS_11char_traitsIcEENS_9allocatorIcEEEE8FlipFlopEEPvEENS_22__hash_node_destructorINS6_ISC_EEEEEC2B8ue170006IRSD_SG_EEOT_OT0_, symObjAddr: 0xCA70, symBinAddr: 0x10000E25C, symSize: 0x48 }
  - { offsetInCU: 0x2FC20, offset: 0x2FC20, size: 0x8, addend: 0x0, symName: __ZNSt3__122__compressed_pair_elemIPNS_11__hash_nodeINS_17__hash_value_typeINS_12basic_stringIcNS_11char_traitsIcEENS_9allocatorIcEEEE8FlipFlopEEPvEELi0ELb0EEC2B8ue170006IRSD_vEEOT_, symObjAddr: 0xCAB8, symBinAddr: 0x10000E2A4, symSize: 0x24 }
  - { offsetInCU: 0x2FC62, offset: 0x2FC62, size: 0x8, addend: 0x0, symName: __ZNSt3__122__compressed_pair_elemINS_22__hash_node_destructorINS_9allocatorINS_11__hash_nodeINS_17__hash_value_typeINS_12basic_stringIcNS_11char_traitsIcEENS2_IcEEEE8FlipFlopEEPvEEEEEELi1ELb0EEC2B8ue170006ISF_vEEOT_, symObjAddr: 0xCADC, symBinAddr: 0x10000E2C8, symSize: 0x24 }
  - { offsetInCU: 0x2FCA4, offset: 0x2FCA4, size: 0x8, addend: 0x0, symName: __ZNSt3__19allocatorINS_11__hash_nodeINS_17__hash_value_typeINS_12basic_stringIcNS_11char_traitsIcEENS0_IcEEEE8FlipFlopEEPvEEE9constructB8ue170006INS_4pairIKS7_S8_EEJRKNS_21piecewise_construct_tENS_5tupleIJRSF_EEENSK_IJEEEEEEvPT_DpOT0_, symObjAddr: 0xCB00, symBinAddr: 0x10000E2EC, symSize: 0x44 }
  - { offsetInCU: 0x2FD20, offset: 0x2FD20, size: 0x8, addend: 0x0, symName: __ZNSt3__14pairIKNS_12basic_stringIcNS_11char_traitsIcEENS_9allocatorIcEEEE8FlipFlopEC1B8ue170006IJRS7_EJEEENS_21piecewise_construct_tENS_5tupleIJDpT_EEENSD_IJDpT0_EEE, symObjAddr: 0xCB44, symBinAddr: 0x10000E330, symSize: 0x3C }
  - { offsetInCU: 0x2FD87, offset: 0x2FD87, size: 0x8, addend: 0x0, symName: __ZNSt3__14pairIKNS_12basic_stringIcNS_11char_traitsIcEENS_9allocatorIcEEEE8FlipFlopEC1B8ue170006IJRS7_EJEJLm0EEJEEENS_21piecewise_construct_tERNS_5tupleIJDpT_EEERNSD_IJDpT0_EEENS_15__tuple_indicesIJXspT1_EEEENSM_IJXspT2_EEEE, symObjAddr: 0xCB80, symBinAddr: 0x10000E36C, symSize: 0x3C }
  - { offsetInCU: 0x2FE17, offset: 0x2FE17, size: 0x8, addend: 0x0, symName: __ZNSt3__14pairIKNS_12basic_stringIcNS_11char_traitsIcEENS_9allocatorIcEEEE8FlipFlopEC2B8ue170006IJRS7_EJEJLm0EEJEEENS_21piecewise_construct_tERNS_5tupleIJDpT_EEERNSD_IJDpT0_EEENS_15__tuple_indicesIJXspT1_EEEENSM_IJXspT2_EEEE, symObjAddr: 0xCBBC, symBinAddr: 0x10000E3A8, symSize: 0x78 }
  - { offsetInCU: 0x2FEA7, offset: 0x2FEA7, size: 0x8, addend: 0x0, symName: __ZNSt3__117__compressed_pairIPNS_11__hash_nodeINS_17__hash_value_typeINS_12basic_stringIcNS_11char_traitsIcEENS_9allocatorIcEEEE8FlipFlopEEPvEENS_22__hash_node_destructorINS6_ISC_EEEEE6secondB8ue170006Ev, symObjAddr: 0xCC34, symBinAddr: 0x10000E420, symSize: 0x28 }
  - { offsetInCU: 0x2FECD, offset: 0x2FECD, size: 0x8, addend: 0x0, symName: __ZNSt3__122__compressed_pair_elemINS_22__hash_node_destructorINS_9allocatorINS_11__hash_nodeINS_17__hash_value_typeINS_12basic_stringIcNS_11char_traitsIcEENS2_IcEEEE8FlipFlopEEPvEEEEEELi1ELb0EE5__getB8ue170006Ev, symObjAddr: 0xCC5C, symBinAddr: 0x10000E448, symSize: 0x14 }
  - { offsetInCU: 0x2FEF3, offset: 0x2FEF3, size: 0x8, addend: 0x0, symName: __ZNSt3__117__compressed_pairImNS_22__unordered_map_hasherINS_12basic_stringIcNS_11char_traitsIcEENS_9allocatorIcEEEENS_17__hash_value_typeIS7_8FlipFlopEENS_4hashIS7_EENS_8equal_toIS7_EELb1EEEE5firstB8ue170006Ev, symObjAddr: 0xCC70, symBinAddr: 0x10000E45C, symSize: 0x24 }
  - { offsetInCU: 0x2FF19, offset: 0x2FF19, size: 0x8, addend: 0x0, symName: __ZNSt3__117__compressed_pairIfNS_21__unordered_map_equalINS_12basic_stringIcNS_11char_traitsIcEENS_9allocatorIcEEEENS_17__hash_value_typeIS7_8FlipFlopEENS_8equal_toIS7_EENS_4hashIS7_EELb1EEEE5firstB8ue170006Ev, symObjAddr: 0xCC94, symBinAddr: 0x10000E480, symSize: 0x24 }
  - { offsetInCU: 0x2FF3F, offset: 0x2FF3F, size: 0x8, addend: 0x0, symName: __ZNSt3__112__hash_tableINS_17__hash_value_typeINS_12basic_stringIcNS_11char_traitsIcEENS_9allocatorIcEEEE8FlipFlopEENS_22__unordered_map_hasherIS7_S9_NS_4hashIS7_EENS_8equal_toIS7_EELb1EEENS_21__unordered_map_equalIS7_S9_SE_SC_Lb1EEENS5_IS9_EEE8__rehashILb1EEEvm, symObjAddr: 0xCCB8, symBinAddr: 0x10000E4A4, symSize: 0x1A8 }
  - { offsetInCU: 0x2FF8F, offset: 0x2FF8F, size: 0x8, addend: 0x0, symName: __ZNSt3__112__hash_tableINS_17__hash_value_typeINS_12basic_stringIcNS_11char_traitsIcEENS_9allocatorIcEEEE8FlipFlopEENS_22__unordered_map_hasherIS7_S9_NS_4hashIS7_EENS_8equal_toIS7_EELb1EEENS_21__unordered_map_equalIS7_S9_SE_SC_Lb1EEENS5_IS9_EEE11__do_rehashILb1EEEvm, symObjAddr: 0xCE60, symBinAddr: 0x10000E64C, symSize: 0x288 }
  - { offsetInCU: 0x30072, offset: 0x30072, size: 0x8, addend: 0x0, symName: __ZNSt3__110unique_ptrIA_PNS_16__hash_node_baseIPNS_11__hash_nodeINS_17__hash_value_typeINS_12basic_stringIcNS_11char_traitsIcEENS_9allocatorIcEEEE8FlipFlopEEPvEEEENS_25__bucket_list_deallocatorINS7_ISG_EEEEE11get_deleterB8ue170006Ev, symObjAddr: 0xD0E8, symBinAddr: 0x10000E8D4, symSize: 0x24 }
  - { offsetInCU: 0x30098, offset: 0x30098, size: 0x8, addend: 0x0, symName: __ZNSt3__110unique_ptrIA_PNS_16__hash_node_baseIPNS_11__hash_nodeINS_17__hash_value_typeINS_12basic_stringIcNS_11char_traitsIcEENS_9allocatorIcEEEE8FlipFlopEEPvEEEENS_25__bucket_list_deallocatorINS7_ISG_EEEEE5resetB8ue170006IPSG_EENS_9enable_ifIXsr28_CheckArrayPointerConversionIT_EE5valueEvE4typeESP_, symObjAddr: 0xD10C, symBinAddr: 0x10000E8F8, symSize: 0x78 }
  - { offsetInCU: 0x300E5, offset: 0x300E5, size: 0x8, addend: 0x0, symName: __ZNSt3__116allocator_traitsINS_9allocatorIPNS_16__hash_node_baseIPNS_11__hash_nodeINS_17__hash_value_typeINS_12basic_stringIcNS_11char_traitsIcEENS1_IcEEEE8FlipFlopEEPvEEEEEEE8allocateB8ue170006ERSH_m, symObjAddr: 0xD184, symBinAddr: 0x10000E970, symSize: 0x2C }
  - { offsetInCU: 0x30118, offset: 0x30118, size: 0x8, addend: 0x0, symName: __ZNSt3__19allocatorIPNS_16__hash_node_baseIPNS_11__hash_nodeINS_17__hash_value_typeINS_12basic_stringIcNS_11char_traitsIcEENS0_IcEEEE8FlipFlopEEPvEEEEE8allocateB8ue170006Em, symObjAddr: 0xD1B0, symBinAddr: 0x10000E99C, symSize: 0x58 }
  - { offsetInCU: 0x30156, offset: 0x30156, size: 0x8, addend: 0x0, symName: __ZNSt3__116allocator_traitsINS_9allocatorIPNS_16__hash_node_baseIPNS_11__hash_nodeINS_17__hash_value_typeINS_12basic_stringIcNS_11char_traitsIcEENS1_IcEEEE8FlipFlopEEPvEEEEEEE8max_sizeB8ue170006ISH_vEEmRKSH_, symObjAddr: 0xD208, symBinAddr: 0x10000E9F4, symSize: 0x24 }
  - { offsetInCU: 0x30184, offset: 0x30184, size: 0x8, addend: 0x0, symName: __ZNKSt3__19allocatorIPNS_16__hash_node_baseIPNS_11__hash_nodeINS_17__hash_value_typeINS_12basic_stringIcNS_11char_traitsIcEENS0_IcEEEE8FlipFlopEEPvEEEEE8max_sizeB8ue170006Ev, symObjAddr: 0xD22C, symBinAddr: 0x10000EA18, symSize: 0x14 }
  - { offsetInCU: 0x301AA, offset: 0x301AA, size: 0x8, addend: 0x0, symName: __ZNKSt3__117__compressed_pairIPNS_11__hash_nodeINS_17__hash_value_typeINS_12basic_stringIcNS_11char_traitsIcEENS_9allocatorIcEEEE8FlipFlopEEPvEENS_22__hash_node_destructorINS6_ISC_EEEEE5firstB8ue170006Ev, symObjAddr: 0xD240, symBinAddr: 0x10000EA2C, symSize: 0x24 }
  - { offsetInCU: 0x301D0, offset: 0x301D0, size: 0x8, addend: 0x0, symName: __ZNKSt3__122__compressed_pair_elemIPNS_11__hash_nodeINS_17__hash_value_typeINS_12basic_stringIcNS_11char_traitsIcEENS_9allocatorIcEEEE8FlipFlopEEPvEELi0ELb0EE5__getB8ue170006Ev, symObjAddr: 0xD264, symBinAddr: 0x10000EA50, symSize: 0x14 }
  - { offsetInCU: 0x301F6, offset: 0x301F6, size: 0x8, addend: 0x0, symName: __ZNSt3__117__compressed_pairIPNS_11__hash_nodeINS_17__hash_value_typeINS_12basic_stringIcNS_11char_traitsIcEENS_9allocatorIcEEEE8FlipFlopEEPvEENS_22__hash_node_destructorINS6_ISC_EEEEE5firstB8ue170006Ev, symObjAddr: 0xD278, symBinAddr: 0x10000EA64, symSize: 0x24 }
  - { offsetInCU: 0x3021C, offset: 0x3021C, size: 0x8, addend: 0x0, symName: __ZNSt3__122__compressed_pair_elemIPNS_11__hash_nodeINS_17__hash_value_typeINS_12basic_stringIcNS_11char_traitsIcEENS_9allocatorIcEEEE8FlipFlopEEPvEELi0ELb0EE5__getB8ue170006Ev, symObjAddr: 0xD29C, symBinAddr: 0x10000EA88, symSize: 0x14 }
  - { offsetInCU: 0x30242, offset: 0x30242, size: 0x8, addend: 0x0, symName: __ZNSt3__110unique_ptrINS_11__hash_nodeINS_17__hash_value_typeINS_12basic_stringIcNS_11char_traitsIcEENS_9allocatorIcEEEE8FlipFlopEEPvEENS_22__hash_node_destructorINS6_ISC_EEEEED2B8ue170006Ev, symObjAddr: 0xD2B0, symBinAddr: 0x10000EA9C, symSize: 0x30 }
  - { offsetInCU: 0x3026C, offset: 0x3026C, size: 0x8, addend: 0x0, symName: __ZNSt3__110unique_ptrINS_11__hash_nodeINS_17__hash_value_typeINS_12basic_stringIcNS_11char_traitsIcEENS_9allocatorIcEEEE8FlipFlopEEPvEENS_22__hash_node_destructorINS6_ISC_EEEEE5resetB8ue170006EPSC_, symObjAddr: 0xD2E0, symBinAddr: 0x10000EACC, symSize: 0x78 }
  - { offsetInCU: 0x302B0, offset: 0x302B0, size: 0x8, addend: 0x0, symName: __ZNSt3__122__hash_node_destructorINS_9allocatorINS_11__hash_nodeINS_17__hash_value_typeINS_12basic_stringIcNS_11char_traitsIcEENS1_IcEEEE8FlipFlopEEPvEEEEEclB8ue170006EPSC_, symObjAddr: 0xD358, symBinAddr: 0x10000EB44, symSize: 0x94 }
  - { offsetInCU: 0x302E5, offset: 0x302E5, size: 0x8, addend: 0x0, symName: __ZNSt3__115__hash_iteratorIPNS_11__hash_nodeINS_17__hash_value_typeINS_12basic_stringIcNS_11char_traitsIcEENS_9allocatorIcEEEE8FlipFlopEEPvEEEC2B8ue170006EPNS_16__hash_node_baseISD_EE, symObjAddr: 0xD3EC, symBinAddr: 0x10000EBD8, symSize: 0x20 }
  - { offsetInCU: 0x3031E, offset: 0x3031E, size: 0x8, addend: 0x0, symName: __ZNSt3__14pairINS_15__hash_iteratorIPNS_11__hash_nodeINS_17__hash_value_typeINS_12basic_stringIcNS_11char_traitsIcEENS_9allocatorIcEEEE8FlipFlopEEPvEEEEbEC2B8ue170006ISF_RbLSC_0EEEOT_OT0_, symObjAddr: 0xD40C, symBinAddr: 0x10000EBF8, symSize: 0x38 }
  - { offsetInCU: 0x3037C, offset: 0x3037C, size: 0x8, addend: 0x0, symName: __ZNSt3__114pointer_traitsIPNS_17__hash_value_typeINS_12basic_stringIcNS_11char_traitsIcEENS_9allocatorIcEEEE8FlipFlopEEE10pointer_toB8ue170006ERS9_, symObjAddr: 0xD444, symBinAddr: 0x10000EC30, symSize: 0x14 }
  - { offsetInCU: 0x3039F, offset: 0x3039F, size: 0x8, addend: 0x0, symName: __ZNSt3__112__hash_tableINS_17__hash_value_typeINS_12basic_stringIcNS_11char_traitsIcEENS_9allocatorIcEEEE4GateEENS_22__unordered_map_hasherIS7_S9_NS_4hashIS7_EENS_8equal_toIS7_EELb1EEENS_21__unordered_map_equalIS7_S9_SE_SC_Lb1EEENS5_IS9_EEE25__emplace_unique_key_argsIS7_JRKNS_21piecewise_construct_tENS_5tupleIJRKS7_EEENSO_IJEEEEEENS_4pairINS_15__hash_iteratorIPNS_11__hash_nodeIS9_PvEEEEbEERKT_DpOT0_, symObjAddr: 0xD458, symBinAddr: 0x10000EC44, symSize: 0x4CC }
  - { offsetInCU: 0x304A9, offset: 0x304A9, size: 0x8, addend: 0x0, symName: __ZNKSt3__115__hash_iteratorIPNS_11__hash_nodeINS_17__hash_value_typeINS_12basic_stringIcNS_11char_traitsIcEENS_9allocatorIcEEEE4GateEEPvEEEptB8ue170006Ev, symObjAddr: 0xD924, symBinAddr: 0x10000F110, symSize: 0x30 }
  - { offsetInCU: 0x304CF, offset: 0x304CF, size: 0x8, addend: 0x0, symName: __ZNSt3__112__hash_tableINS_17__hash_value_typeINS_12basic_stringIcNS_11char_traitsIcEENS_9allocatorIcEEEE4GateEENS_22__unordered_map_hasherIS7_S9_NS_4hashIS7_EENS_8equal_toIS7_EELb1EEENS_21__unordered_map_equalIS7_S9_SE_SC_Lb1EEENS5_IS9_EEE13hash_functionB8ue170006Ev, symObjAddr: 0xD954, symBinAddr: 0x10000F140, symSize: 0x28 }
  - { offsetInCU: 0x304F5, offset: 0x304F5, size: 0x8, addend: 0x0, symName: __ZNKSt3__122__unordered_map_hasherINS_12basic_stringIcNS_11char_traitsIcEENS_9allocatorIcEEEENS_17__hash_value_typeIS6_4GateEENS_4hashIS6_EENS_8equal_toIS6_EELb1EEclB8ue170006ERKS6_, symObjAddr: 0xD97C, symBinAddr: 0x10000F168, symSize: 0x2C }
  - { offsetInCU: 0x3052A, offset: 0x3052A, size: 0x8, addend: 0x0, symName: __ZNKSt3__112__hash_tableINS_17__hash_value_typeINS_12basic_stringIcNS_11char_traitsIcEENS_9allocatorIcEEEE4GateEENS_22__unordered_map_hasherIS7_S9_NS_4hashIS7_EENS_8equal_toIS7_EELb1EEENS_21__unordered_map_equalIS7_S9_SE_SC_Lb1EEENS5_IS9_EEE12bucket_countB8ue170006Ev, symObjAddr: 0xD9A8, symBinAddr: 0x10000F194, symSize: 0x28 }
  - { offsetInCU: 0x30550, offset: 0x30550, size: 0x8, addend: 0x0, symName: __ZNKSt3__110unique_ptrIA_PNS_16__hash_node_baseIPNS_11__hash_nodeINS_17__hash_value_typeINS_12basic_stringIcNS_11char_traitsIcEENS_9allocatorIcEEEE4GateEEPvEEEENS_25__bucket_list_deallocatorINS7_ISG_EEEEEixB8ue170006Em, symObjAddr: 0xD9D0, symBinAddr: 0x10000F1BC, symSize: 0x34 }
  - { offsetInCU: 0x30585, offset: 0x30585, size: 0x8, addend: 0x0, symName: __ZNKSt3__116__hash_node_baseIPNS_11__hash_nodeINS_17__hash_value_typeINS_12basic_stringIcNS_11char_traitsIcEENS_9allocatorIcEEEE4GateEEPvEEE6__hashB8ue170006Ev, symObjAddr: 0xDA04, symBinAddr: 0x10000F1F0, symSize: 0x18 }
  - { offsetInCU: 0x305AB, offset: 0x305AB, size: 0x8, addend: 0x0, symName: __ZNSt3__112__hash_tableINS_17__hash_value_typeINS_12basic_stringIcNS_11char_traitsIcEENS_9allocatorIcEEEE4GateEENS_22__unordered_map_hasherIS7_S9_NS_4hashIS7_EENS_8equal_toIS7_EELb1EEENS_21__unordered_map_equalIS7_S9_SE_SC_Lb1EEENS5_IS9_EEE6key_eqB8ue170006Ev, symObjAddr: 0xDA1C, symBinAddr: 0x10000F208, symSize: 0x28 }
  - { offsetInCU: 0x305D1, offset: 0x305D1, size: 0x8, addend: 0x0, symName: __ZNKSt3__121__unordered_map_equalINS_12basic_stringIcNS_11char_traitsIcEENS_9allocatorIcEEEENS_17__hash_value_typeIS6_4GateEENS_8equal_toIS6_EENS_4hashIS6_EELb1EEclB8ue170006ERKS9_RKS6_, symObjAddr: 0xDA44, symBinAddr: 0x10000F230, symSize: 0x48 }
  - { offsetInCU: 0x30615, offset: 0x30615, size: 0x8, addend: 0x0, symName: __ZNSt3__112__hash_tableINS_17__hash_value_typeINS_12basic_stringIcNS_11char_traitsIcEENS_9allocatorIcEEEE4GateEENS_22__unordered_map_hasherIS7_S9_NS_4hashIS7_EENS_8equal_toIS7_EELb1EEENS_21__unordered_map_equalIS7_S9_SE_SC_Lb1EEENS5_IS9_EEE21__construct_node_hashIRKNS_21piecewise_construct_tEJNS_5tupleIJRKS7_EEENSO_IJEEEEEENS_10unique_ptrINS_11__hash_nodeIS9_PvEENS_22__hash_node_destructorINS5_ISW_EEEEEEmOT_DpOT0_, symObjAddr: 0xDA8C, symBinAddr: 0x10000F278, symSize: 0x150 }
  - { offsetInCU: 0x306B1, offset: 0x306B1, size: 0x8, addend: 0x0, symName: __ZNSt3__112__hash_tableINS_17__hash_value_typeINS_12basic_stringIcNS_11char_traitsIcEENS_9allocatorIcEEEE4GateEENS_22__unordered_map_hasherIS7_S9_NS_4hashIS7_EENS_8equal_toIS7_EELb1EEENS_21__unordered_map_equalIS7_S9_SE_SC_Lb1EEENS5_IS9_EEE4sizeB8ue170006Ev, symObjAddr: 0xDBDC, symBinAddr: 0x10000F3C8, symSize: 0x28 }
  - { offsetInCU: 0x306D7, offset: 0x306D7, size: 0x8, addend: 0x0, symName: __ZNSt3__112__hash_tableINS_17__hash_value_typeINS_12basic_stringIcNS_11char_traitsIcEENS_9allocatorIcEEEE4GateEENS_22__unordered_map_hasherIS7_S9_NS_4hashIS7_EENS_8equal_toIS7_EELb1EEENS_21__unordered_map_equalIS7_S9_SE_SC_Lb1EEENS5_IS9_EEE15max_load_factorB8ue170006Ev, symObjAddr: 0xDC04, symBinAddr: 0x10000F3F0, symSize: 0x28 }
  - { offsetInCU: 0x306FD, offset: 0x306FD, size: 0x8, addend: 0x0, symName: __ZNSt3__112__hash_tableINS_17__hash_value_typeINS_12basic_stringIcNS_11char_traitsIcEENS_9allocatorIcEEEE4GateEENS_22__unordered_map_hasherIS7_S9_NS_4hashIS7_EENS_8equal_toIS7_EELb1EEENS_21__unordered_map_equalIS7_S9_SE_SC_Lb1EEENS5_IS9_EEE15__rehash_uniqueB8ue170006Em, symObjAddr: 0xDC2C, symBinAddr: 0x10000F418, symSize: 0x2C }
  - { offsetInCU: 0x30732, offset: 0x30732, size: 0x8, addend: 0x0, symName: __ZNSt3__116__hash_node_baseIPNS_11__hash_nodeINS_17__hash_value_typeINS_12basic_stringIcNS_11char_traitsIcEENS_9allocatorIcEEEE4GateEEPvEEE5__ptrB8ue170006Ev, symObjAddr: 0xDC58, symBinAddr: 0x10000F444, symSize: 0x24 }
  - { offsetInCU: 0x30758, offset: 0x30758, size: 0x8, addend: 0x0, symName: __ZNKSt3__110unique_ptrINS_11__hash_nodeINS_17__hash_value_typeINS_12basic_stringIcNS_11char_traitsIcEENS_9allocatorIcEEEE4GateEEPvEENS_22__hash_node_destructorINS6_ISC_EEEEEptB8ue170006Ev, symObjAddr: 0xDC7C, symBinAddr: 0x10000F468, symSize: 0x28 }
  - { offsetInCU: 0x3077E, offset: 0x3077E, size: 0x8, addend: 0x0, symName: __ZNKSt3__110unique_ptrINS_11__hash_nodeINS_17__hash_value_typeINS_12basic_stringIcNS_11char_traitsIcEENS_9allocatorIcEEEE4GateEEPvEENS_22__hash_node_destructorINS6_ISC_EEEEE3getB8ue170006Ev, symObjAddr: 0xDCA4, symBinAddr: 0x10000F490, symSize: 0x28 }
  - { offsetInCU: 0x307A4, offset: 0x307A4, size: 0x8, addend: 0x0, symName: __ZNSt3__110unique_ptrINS_11__hash_nodeINS_17__hash_value_typeINS_12basic_stringIcNS_11char_traitsIcEENS_9allocatorIcEEEE4GateEEPvEENS_22__hash_node_destructorINS6_ISC_EEEEE7releaseB8ue170006Ev, symObjAddr: 0xDCCC, symBinAddr: 0x10000F4B8, symSize: 0x44 }
  - { offsetInCU: 0x307D9, offset: 0x307D9, size: 0x8, addend: 0x0, symName: __ZNSt3__110unique_ptrINS_11__hash_nodeINS_17__hash_value_typeINS_12basic_stringIcNS_11char_traitsIcEENS_9allocatorIcEEEE4GateEEPvEENS_22__hash_node_destructorINS6_ISC_EEEEED1B8ue170006Ev, symObjAddr: 0xDD10, symBinAddr: 0x10000F4FC, symSize: 0x2C }
  - { offsetInCU: 0x30803, offset: 0x30803, size: 0x8, addend: 0x0, symName: __ZNSt3__115__hash_iteratorIPNS_11__hash_nodeINS_17__hash_value_typeINS_12basic_stringIcNS_11char_traitsIcEENS_9allocatorIcEEEE4GateEEPvEEEC1B8ue170006EPNS_16__hash_node_baseISD_EE, symObjAddr: 0xDD3C, symBinAddr: 0x10000F528, symSize: 0x34 }
  - { offsetInCU: 0x30841, offset: 0x30841, size: 0x8, addend: 0x0, symName: __ZNSt3__14pairINS_15__hash_iteratorIPNS_11__hash_nodeINS_17__hash_value_typeINS_12basic_stringIcNS_11char_traitsIcEENS_9allocatorIcEEEE4GateEEPvEEEEbEC1B8ue170006ISF_RbLSC_0EEEOT_OT0_, symObjAddr: 0xDD70, symBinAddr: 0x10000F55C, symSize: 0x3C }
  - { offsetInCU: 0x3089F, offset: 0x3089F, size: 0x8, addend: 0x0, symName: __ZNSt3__117__compressed_pairImNS_22__unordered_map_hasherINS_12basic_stringIcNS_11char_traitsIcEENS_9allocatorIcEEEENS_17__hash_value_typeIS7_4GateEENS_4hashIS7_EENS_8equal_toIS7_EELb1EEEE6secondB8ue170006Ev, symObjAddr: 0xDDAC, symBinAddr: 0x10000F598, symSize: 0x24 }
  - { offsetInCU: 0x308C5, offset: 0x308C5, size: 0x8, addend: 0x0, symName: __ZNSt3__122__compressed_pair_elemINS_22__unordered_map_hasherINS_12basic_stringIcNS_11char_traitsIcEENS_9allocatorIcEEEENS_17__hash_value_typeIS7_4GateEENS_4hashIS7_EENS_8equal_toIS7_EELb1EEELi1ELb1EE5__getB8ue170006Ev, symObjAddr: 0xDDD0, symBinAddr: 0x10000F5BC, symSize: 0x14 }
  - { offsetInCU: 0x308EB, offset: 0x308EB, size: 0x8, addend: 0x0, symName: __ZNKSt3__110unique_ptrIA_PNS_16__hash_node_baseIPNS_11__hash_nodeINS_17__hash_value_typeINS_12basic_stringIcNS_11char_traitsIcEENS_9allocatorIcEEEE4GateEEPvEEEENS_25__bucket_list_deallocatorINS7_ISG_EEEEE11get_deleterB8ue170006Ev, symObjAddr: 0xDDE4, symBinAddr: 0x10000F5D0, symSize: 0x24 }
  - { offsetInCU: 0x30911, offset: 0x30911, size: 0x8, addend: 0x0, symName: __ZNKSt3__125__bucket_list_deallocatorINS_9allocatorIPNS_16__hash_node_baseIPNS_11__hash_nodeINS_17__hash_value_typeINS_12basic_stringIcNS_11char_traitsIcEENS1_IcEEEE4GateEEPvEEEEEEE4sizeB8ue170006Ev, symObjAddr: 0xDE08, symBinAddr: 0x10000F5F4, symSize: 0x28 }
  - { offsetInCU: 0x30937, offset: 0x30937, size: 0x8, addend: 0x0, symName: __ZNKSt3__117__compressed_pairIPPNS_16__hash_node_baseIPNS_11__hash_nodeINS_17__hash_value_typeINS_12basic_stringIcNS_11char_traitsIcEENS_9allocatorIcEEEE4GateEEPvEEEENS_25__bucket_list_deallocatorINS7_ISG_EEEEE6secondB8ue170006Ev, symObjAddr: 0xDE30, symBinAddr: 0x10000F61C, symSize: 0x28 }
  - { offsetInCU: 0x3095D, offset: 0x3095D, size: 0x8, addend: 0x0, symName: __ZNKSt3__122__compressed_pair_elemINS_25__bucket_list_deallocatorINS_9allocatorIPNS_16__hash_node_baseIPNS_11__hash_nodeINS_17__hash_value_typeINS_12basic_stringIcNS_11char_traitsIcEENS2_IcEEEE4GateEEPvEEEEEEEELi1ELb0EE5__getB8ue170006Ev, symObjAddr: 0xDE58, symBinAddr: 0x10000F644, symSize: 0x14 }
  - { offsetInCU: 0x30983, offset: 0x30983, size: 0x8, addend: 0x0, symName: __ZNKSt3__117__compressed_pairImNS_9allocatorIPNS_16__hash_node_baseIPNS_11__hash_nodeINS_17__hash_value_typeINS_12basic_stringIcNS_11char_traitsIcEENS1_IcEEEE4GateEEPvEEEEEEE5firstB8ue170006Ev, symObjAddr: 0xDE6C, symBinAddr: 0x10000F658, symSize: 0x24 }
  - { offsetInCU: 0x309A9, offset: 0x309A9, size: 0x8, addend: 0x0, symName: __ZNKSt3__117__compressed_pairIPPNS_16__hash_node_baseIPNS_11__hash_nodeINS_17__hash_value_typeINS_12basic_stringIcNS_11char_traitsIcEENS_9allocatorIcEEEE4GateEEPvEEEENS_25__bucket_list_deallocatorINS7_ISG_EEEEE5firstB8ue170006Ev, symObjAddr: 0xDE90, symBinAddr: 0x10000F67C, symSize: 0x24 }
  - { offsetInCU: 0x309CF, offset: 0x309CF, size: 0x8, addend: 0x0, symName: __ZNKSt3__122__compressed_pair_elemIPPNS_16__hash_node_baseIPNS_11__hash_nodeINS_17__hash_value_typeINS_12basic_stringIcNS_11char_traitsIcEENS_9allocatorIcEEEE4GateEEPvEEEELi0ELb0EE5__getB8ue170006Ev, symObjAddr: 0xDEB4, symBinAddr: 0x10000F6A0, symSize: 0x14 }
  - { offsetInCU: 0x309F5, offset: 0x309F5, size: 0x8, addend: 0x0, symName: __ZNSt3__117__compressed_pairIfNS_21__unordered_map_equalINS_12basic_stringIcNS_11char_traitsIcEENS_9allocatorIcEEEENS_17__hash_value_typeIS7_4GateEENS_8equal_toIS7_EENS_4hashIS7_EELb1EEEE6secondB8ue170006Ev, symObjAddr: 0xDEC8, symBinAddr: 0x10000F6B4, symSize: 0x24 }
  - { offsetInCU: 0x30A1B, offset: 0x30A1B, size: 0x8, addend: 0x0, symName: __ZNSt3__122__compressed_pair_elemINS_21__unordered_map_equalINS_12basic_stringIcNS_11char_traitsIcEENS_9allocatorIcEEEENS_17__hash_value_typeIS7_4GateEENS_8equal_toIS7_EENS_4hashIS7_EELb1EEELi1ELb1EE5__getB8ue170006Ev, symObjAddr: 0xDEEC, symBinAddr: 0x10000F6D8, symSize: 0x14 }
  - { offsetInCU: 0x30A41, offset: 0x30A41, size: 0x8, addend: 0x0, symName: __ZNKSt3__117__hash_value_typeINS_12basic_stringIcNS_11char_traitsIcEENS_9allocatorIcEEEE4GateE11__get_valueB8ue170006Ev, symObjAddr: 0xDF00, symBinAddr: 0x10000F6EC, symSize: 0x24 }
  - { offsetInCU: 0x30A67, offset: 0x30A67, size: 0x8, addend: 0x0, symName: __ZNSt3__116allocator_traitsINS_9allocatorINS_11__hash_nodeINS_17__hash_value_typeINS_12basic_stringIcNS_11char_traitsIcEENS1_IcEEEE4GateEEPvEEEEE8allocateB8ue170006ERSD_m, symObjAddr: 0xDF5C, symBinAddr: 0x10000F748, symSize: 0x2C }
  - { offsetInCU: 0x30A9A, offset: 0x30A9A, size: 0x8, addend: 0x0, symName: __ZNSt3__122__hash_node_destructorINS_9allocatorINS_11__hash_nodeINS_17__hash_value_typeINS_12basic_stringIcNS_11char_traitsIcEENS1_IcEEEE4GateEEPvEEEEEC1B8ue170006ERSD_b, symObjAddr: 0xDF88, symBinAddr: 0x10000F774, symSize: 0x48 }
  - { offsetInCU: 0x30AE7, offset: 0x30AE7, size: 0x8, addend: 0x0, symName: __ZNSt3__110unique_ptrINS_11__hash_nodeINS_17__hash_value_typeINS_12basic_stringIcNS_11char_traitsIcEENS_9allocatorIcEEEE4GateEEPvEENS_22__hash_node_destructorINS6_ISC_EEEEEC1B8ue170006ILb1EvEEPSC_NS_16__dependent_typeINS_27__unique_ptr_deleter_sfinaeISF_EEXT_EE20__good_rval_ref_typeE, symObjAddr: 0xDFD0, symBinAddr: 0x10000F7BC, symSize: 0x3C }
  - { offsetInCU: 0x30B38, offset: 0x30B38, size: 0x8, addend: 0x0, symName: __ZNSt3__116allocator_traitsINS_9allocatorINS_11__hash_nodeINS_17__hash_value_typeINS_12basic_stringIcNS_11char_traitsIcEENS1_IcEEEE4GateEEPvEEEEE9constructB8ue170006INS_4pairIKS8_S9_EEJRKNS_21piecewise_construct_tENS_5tupleIJRSH_EEENSM_IJEEEEvEEvRSD_PT_DpOT0_, symObjAddr: 0xE00C, symBinAddr: 0x10000F7F8, symSize: 0x44 }
  - { offsetInCU: 0x30BB7, offset: 0x30BB7, size: 0x8, addend: 0x0, symName: __ZNSt3__110unique_ptrINS_11__hash_nodeINS_17__hash_value_typeINS_12basic_stringIcNS_11char_traitsIcEENS_9allocatorIcEEEE4GateEEPvEENS_22__hash_node_destructorINS6_ISC_EEEEE11get_deleterB8ue170006Ev, symObjAddr: 0xE050, symBinAddr: 0x10000F83C, symSize: 0x24 }
  - { offsetInCU: 0x30BDD, offset: 0x30BDD, size: 0x8, addend: 0x0, symName: __ZNSt3__19allocatorINS_11__hash_nodeINS_17__hash_value_typeINS_12basic_stringIcNS_11char_traitsIcEENS0_IcEEEE4GateEEPvEEE8allocateB8ue170006Em, symObjAddr: 0xE074, symBinAddr: 0x10000F860, symSize: 0x5C }
  - { offsetInCU: 0x30C1B, offset: 0x30C1B, size: 0x8, addend: 0x0, symName: __ZNSt3__116allocator_traitsINS_9allocatorINS_11__hash_nodeINS_17__hash_value_typeINS_12basic_stringIcNS_11char_traitsIcEENS1_IcEEEE4GateEEPvEEEEE8max_sizeB8ue170006ISD_vEEmRKSD_, symObjAddr: 0xE0D0, symBinAddr: 0x10000F8BC, symSize: 0x24 }
  - { offsetInCU: 0x30C49, offset: 0x30C49, size: 0x8, addend: 0x0, symName: __ZNKSt3__19allocatorINS_11__hash_nodeINS_17__hash_value_typeINS_12basic_stringIcNS_11char_traitsIcEENS0_IcEEEE4GateEEPvEEE8max_sizeB8ue170006Ev, symObjAddr: 0xE0F4, symBinAddr: 0x10000F8E0, symSize: 0x18 }
  - { offsetInCU: 0x30C6F, offset: 0x30C6F, size: 0x8, addend: 0x0, symName: __ZNSt3__122__hash_node_destructorINS_9allocatorINS_11__hash_nodeINS_17__hash_value_typeINS_12basic_stringIcNS_11char_traitsIcEENS1_IcEEEE4GateEEPvEEEEEC2B8ue170006ERSD_b, symObjAddr: 0xE10C, symBinAddr: 0x10000F8F8, symSize: 0x38 }
  - { offsetInCU: 0x30CB7, offset: 0x30CB7, size: 0x8, addend: 0x0, symName: __ZNSt3__110unique_ptrINS_11__hash_nodeINS_17__hash_value_typeINS_12basic_stringIcNS_11char_traitsIcEENS_9allocatorIcEEEE4GateEEPvEENS_22__hash_node_destructorINS6_ISC_EEEEEC2B8ue170006ILb1EvEEPSC_NS_16__dependent_typeINS_27__unique_ptr_deleter_sfinaeISF_EEXT_EE20__good_rval_ref_typeE, symObjAddr: 0xE144, symBinAddr: 0x10000F930, symSize: 0x48 }
  - { offsetInCU: 0x30D08, offset: 0x30D08, size: 0x8, addend: 0x0, symName: __ZNSt3__117__compressed_pairIPNS_11__hash_nodeINS_17__hash_value_typeINS_12basic_stringIcNS_11char_traitsIcEENS_9allocatorIcEEEE4GateEEPvEENS_22__hash_node_destructorINS6_ISC_EEEEEC1B8ue170006IRSD_SG_EEOT_OT0_, symObjAddr: 0xE18C, symBinAddr: 0x10000F978, symSize: 0x3C }
  - { offsetInCU: 0x30D60, offset: 0x30D60, size: 0x8, addend: 0x0, symName: __ZNSt3__117__compressed_pairIPNS_11__hash_nodeINS_17__hash_value_typeINS_12basic_stringIcNS_11char_traitsIcEENS_9allocatorIcEEEE4GateEEPvEENS_22__hash_node_destructorINS6_ISC_EEEEEC2B8ue170006IRSD_SG_EEOT_OT0_, symObjAddr: 0xE1C8, symBinAddr: 0x10000F9B4, symSize: 0x48 }
  - { offsetInCU: 0x30DB8, offset: 0x30DB8, size: 0x8, addend: 0x0, symName: __ZNSt3__122__compressed_pair_elemIPNS_11__hash_nodeINS_17__hash_value_typeINS_12basic_stringIcNS_11char_traitsIcEENS_9allocatorIcEEEE4GateEEPvEELi0ELb0EEC2B8ue170006IRSD_vEEOT_, symObjAddr: 0xE210, symBinAddr: 0x10000F9FC, symSize: 0x24 }
  - { offsetInCU: 0x30DFA, offset: 0x30DFA, size: 0x8, addend: 0x0, symName: __ZNSt3__122__compressed_pair_elemINS_22__hash_node_destructorINS_9allocatorINS_11__hash_nodeINS_17__hash_value_typeINS_12basic_stringIcNS_11char_traitsIcEENS2_IcEEEE4GateEEPvEEEEEELi1ELb0EEC2B8ue170006ISF_vEEOT_, symObjAddr: 0xE234, symBinAddr: 0x10000FA20, symSize: 0x24 }
  - { offsetInCU: 0x30E3C, offset: 0x30E3C, size: 0x8, addend: 0x0, symName: __ZNSt3__19allocatorINS_11__hash_nodeINS_17__hash_value_typeINS_12basic_stringIcNS_11char_traitsIcEENS0_IcEEEE4GateEEPvEEE9constructB8ue170006INS_4pairIKS7_S8_EEJRKNS_21piecewise_construct_tENS_5tupleIJRSF_EEENSK_IJEEEEEEvPT_DpOT0_, symObjAddr: 0xE258, symBinAddr: 0x10000FA44, symSize: 0x44 }
  - { offsetInCU: 0x30EB8, offset: 0x30EB8, size: 0x8, addend: 0x0, symName: __ZNSt3__14pairIKNS_12basic_stringIcNS_11char_traitsIcEENS_9allocatorIcEEEE4GateEC1B8ue170006IJRS7_EJEEENS_21piecewise_construct_tENS_5tupleIJDpT_EEENSD_IJDpT0_EEE, symObjAddr: 0xE29C, symBinAddr: 0x10000FA88, symSize: 0x3C }
  - { offsetInCU: 0x30F1F, offset: 0x30F1F, size: 0x8, addend: 0x0, symName: __ZNSt3__14pairIKNS_12basic_stringIcNS_11char_traitsIcEENS_9allocatorIcEEEE4GateEC1B8ue170006IJRS7_EJEJLm0EEJEEENS_21piecewise_construct_tERNS_5tupleIJDpT_EEERNSD_IJDpT0_EEENS_15__tuple_indicesIJXspT1_EEEENSM_IJXspT2_EEEE, symObjAddr: 0xE2D8, symBinAddr: 0x10000FAC4, symSize: 0x3C }
  - { offsetInCU: 0x30FAF, offset: 0x30FAF, size: 0x8, addend: 0x0, symName: __ZNSt3__14pairIKNS_12basic_stringIcNS_11char_traitsIcEENS_9allocatorIcEEEE4GateEC2B8ue170006IJRS7_EJEJLm0EEJEEENS_21piecewise_construct_tERNS_5tupleIJDpT_EEERNSD_IJDpT0_EEENS_15__tuple_indicesIJXspT1_EEEENSM_IJXspT2_EEEE, symObjAddr: 0xE314, symBinAddr: 0x10000FB00, symSize: 0x78 }
  - { offsetInCU: 0x3103F, offset: 0x3103F, size: 0x8, addend: 0x0, symName: __ZNSt3__117__compressed_pairIPNS_11__hash_nodeINS_17__hash_value_typeINS_12basic_stringIcNS_11char_traitsIcEENS_9allocatorIcEEEE4GateEEPvEENS_22__hash_node_destructorINS6_ISC_EEEEE6secondB8ue170006Ev, symObjAddr: 0xE38C, symBinAddr: 0x10000FB78, symSize: 0x28 }
  - { offsetInCU: 0x31065, offset: 0x31065, size: 0x8, addend: 0x0, symName: __ZNSt3__122__compressed_pair_elemINS_22__hash_node_destructorINS_9allocatorINS_11__hash_nodeINS_17__hash_value_typeINS_12basic_stringIcNS_11char_traitsIcEENS2_IcEEEE4GateEEPvEEEEEELi1ELb0EE5__getB8ue170006Ev, symObjAddr: 0xE3B4, symBinAddr: 0x10000FBA0, symSize: 0x14 }
  - { offsetInCU: 0x3108B, offset: 0x3108B, size: 0x8, addend: 0x0, symName: __ZNSt3__117__compressed_pairImNS_22__unordered_map_hasherINS_12basic_stringIcNS_11char_traitsIcEENS_9allocatorIcEEEENS_17__hash_value_typeIS7_4GateEENS_4hashIS7_EENS_8equal_toIS7_EELb1EEEE5firstB8ue170006Ev, symObjAddr: 0xE3C8, symBinAddr: 0x10000FBB4, symSize: 0x24 }
  - { offsetInCU: 0x310B1, offset: 0x310B1, size: 0x8, addend: 0x0, symName: __ZNSt3__117__compressed_pairIfNS_21__unordered_map_equalINS_12basic_stringIcNS_11char_traitsIcEENS_9allocatorIcEEEENS_17__hash_value_typeIS7_4GateEENS_8equal_toIS7_EENS_4hashIS7_EELb1EEEE5firstB8ue170006Ev, symObjAddr: 0xE3EC, symBinAddr: 0x10000FBD8, symSize: 0x24 }
  - { offsetInCU: 0x310D7, offset: 0x310D7, size: 0x8, addend: 0x0, symName: __ZNSt3__112__hash_tableINS_17__hash_value_typeINS_12basic_stringIcNS_11char_traitsIcEENS_9allocatorIcEEEE4GateEENS_22__unordered_map_hasherIS7_S9_NS_4hashIS7_EENS_8equal_toIS7_EELb1EEENS_21__unordered_map_equalIS7_S9_SE_SC_Lb1EEENS5_IS9_EEE8__rehashILb1EEEvm, symObjAddr: 0xE410, symBinAddr: 0x10000FBFC, symSize: 0x1A8 }
  - { offsetInCU: 0x31127, offset: 0x31127, size: 0x8, addend: 0x0, symName: __ZNSt3__112__hash_tableINS_17__hash_value_typeINS_12basic_stringIcNS_11char_traitsIcEENS_9allocatorIcEEEE4GateEENS_22__unordered_map_hasherIS7_S9_NS_4hashIS7_EENS_8equal_toIS7_EELb1EEENS_21__unordered_map_equalIS7_S9_SE_SC_Lb1EEENS5_IS9_EEE11__do_rehashILb1EEEvm, symObjAddr: 0xE5B8, symBinAddr: 0x10000FDA4, symSize: 0x288 }
  - { offsetInCU: 0x3120A, offset: 0x3120A, size: 0x8, addend: 0x0, symName: __ZNSt3__110unique_ptrIA_PNS_16__hash_node_baseIPNS_11__hash_nodeINS_17__hash_value_typeINS_12basic_stringIcNS_11char_traitsIcEENS_9allocatorIcEEEE4GateEEPvEEEENS_25__bucket_list_deallocatorINS7_ISG_EEEEE11get_deleterB8ue170006Ev, symObjAddr: 0xE840, symBinAddr: 0x10001002C, symSize: 0x24 }
  - { offsetInCU: 0x31230, offset: 0x31230, size: 0x8, addend: 0x0, symName: __ZNSt3__110unique_ptrIA_PNS_16__hash_node_baseIPNS_11__hash_nodeINS_17__hash_value_typeINS_12basic_stringIcNS_11char_traitsIcEENS_9allocatorIcEEEE4GateEEPvEEEENS_25__bucket_list_deallocatorINS7_ISG_EEEEE5resetB8ue170006IPSG_EENS_9enable_ifIXsr28_CheckArrayPointerConversionIT_EE5valueEvE4typeESP_, symObjAddr: 0xE864, symBinAddr: 0x100010050, symSize: 0x78 }
  - { offsetInCU: 0x3127D, offset: 0x3127D, size: 0x8, addend: 0x0, symName: __ZNSt3__116allocator_traitsINS_9allocatorIPNS_16__hash_node_baseIPNS_11__hash_nodeINS_17__hash_value_typeINS_12basic_stringIcNS_11char_traitsIcEENS1_IcEEEE4GateEEPvEEEEEEE8allocateB8ue170006ERSH_m, symObjAddr: 0xE8DC, symBinAddr: 0x1000100C8, symSize: 0x2C }
  - { offsetInCU: 0x312B0, offset: 0x312B0, size: 0x8, addend: 0x0, symName: __ZNSt3__19allocatorIPNS_16__hash_node_baseIPNS_11__hash_nodeINS_17__hash_value_typeINS_12basic_stringIcNS_11char_traitsIcEENS0_IcEEEE4GateEEPvEEEEE8allocateB8ue170006Em, symObjAddr: 0xE908, symBinAddr: 0x1000100F4, symSize: 0x58 }
  - { offsetInCU: 0x312EE, offset: 0x312EE, size: 0x8, addend: 0x0, symName: __ZNSt3__116allocator_traitsINS_9allocatorIPNS_16__hash_node_baseIPNS_11__hash_nodeINS_17__hash_value_typeINS_12basic_stringIcNS_11char_traitsIcEENS1_IcEEEE4GateEEPvEEEEEEE8max_sizeB8ue170006ISH_vEEmRKSH_, symObjAddr: 0xE960, symBinAddr: 0x10001014C, symSize: 0x24 }
  - { offsetInCU: 0x3131C, offset: 0x3131C, size: 0x8, addend: 0x0, symName: __ZNKSt3__19allocatorIPNS_16__hash_node_baseIPNS_11__hash_nodeINS_17__hash_value_typeINS_12basic_stringIcNS_11char_traitsIcEENS0_IcEEEE4GateEEPvEEEEE8max_sizeB8ue170006Ev, symObjAddr: 0xE984, symBinAddr: 0x100010170, symSize: 0x14 }
  - { offsetInCU: 0x31342, offset: 0x31342, size: 0x8, addend: 0x0, symName: __ZNKSt3__117__compressed_pairIPNS_11__hash_nodeINS_17__hash_value_typeINS_12basic_stringIcNS_11char_traitsIcEENS_9allocatorIcEEEE4GateEEPvEENS_22__hash_node_destructorINS6_ISC_EEEEE5firstB8ue170006Ev, symObjAddr: 0xE998, symBinAddr: 0x100010184, symSize: 0x24 }
  - { offsetInCU: 0x31368, offset: 0x31368, size: 0x8, addend: 0x0, symName: __ZNKSt3__122__compressed_pair_elemIPNS_11__hash_nodeINS_17__hash_value_typeINS_12basic_stringIcNS_11char_traitsIcEENS_9allocatorIcEEEE4GateEEPvEELi0ELb0EE5__getB8ue170006Ev, symObjAddr: 0xE9BC, symBinAddr: 0x1000101A8, symSize: 0x14 }
  - { offsetInCU: 0x3138E, offset: 0x3138E, size: 0x8, addend: 0x0, symName: __ZNSt3__117__compressed_pairIPNS_11__hash_nodeINS_17__hash_value_typeINS_12basic_stringIcNS_11char_traitsIcEENS_9allocatorIcEEEE4GateEEPvEENS_22__hash_node_destructorINS6_ISC_EEEEE5firstB8ue170006Ev, symObjAddr: 0xE9D0, symBinAddr: 0x1000101BC, symSize: 0x24 }
  - { offsetInCU: 0x313B4, offset: 0x313B4, size: 0x8, addend: 0x0, symName: __ZNSt3__122__compressed_pair_elemIPNS_11__hash_nodeINS_17__hash_value_typeINS_12basic_stringIcNS_11char_traitsIcEENS_9allocatorIcEEEE4GateEEPvEELi0ELb0EE5__getB8ue170006Ev, symObjAddr: 0xE9F4, symBinAddr: 0x1000101E0, symSize: 0x14 }
  - { offsetInCU: 0x313DA, offset: 0x313DA, size: 0x8, addend: 0x0, symName: __ZNSt3__110unique_ptrINS_11__hash_nodeINS_17__hash_value_typeINS_12basic_stringIcNS_11char_traitsIcEENS_9allocatorIcEEEE4GateEEPvEENS_22__hash_node_destructorINS6_ISC_EEEEED2B8ue170006Ev, symObjAddr: 0xEA08, symBinAddr: 0x1000101F4, symSize: 0x30 }
  - { offsetInCU: 0x31404, offset: 0x31404, size: 0x8, addend: 0x0, symName: __ZNSt3__110unique_ptrINS_11__hash_nodeINS_17__hash_value_typeINS_12basic_stringIcNS_11char_traitsIcEENS_9allocatorIcEEEE4GateEEPvEENS_22__hash_node_destructorINS6_ISC_EEEEE5resetB8ue170006EPSC_, symObjAddr: 0xEA38, symBinAddr: 0x100010224, symSize: 0x78 }
  - { offsetInCU: 0x31448, offset: 0x31448, size: 0x8, addend: 0x0, symName: __ZNSt3__122__hash_node_destructorINS_9allocatorINS_11__hash_nodeINS_17__hash_value_typeINS_12basic_stringIcNS_11char_traitsIcEENS1_IcEEEE4GateEEPvEEEEEclB8ue170006EPSC_, symObjAddr: 0xEAB0, symBinAddr: 0x10001029C, symSize: 0x94 }
  - { offsetInCU: 0x3147D, offset: 0x3147D, size: 0x8, addend: 0x0, symName: __ZNSt3__115__hash_iteratorIPNS_11__hash_nodeINS_17__hash_value_typeINS_12basic_stringIcNS_11char_traitsIcEENS_9allocatorIcEEEE4GateEEPvEEEC2B8ue170006EPNS_16__hash_node_baseISD_EE, symObjAddr: 0xEB44, symBinAddr: 0x100010330, symSize: 0x20 }
  - { offsetInCU: 0x314B6, offset: 0x314B6, size: 0x8, addend: 0x0, symName: __ZNSt3__14pairINS_15__hash_iteratorIPNS_11__hash_nodeINS_17__hash_value_typeINS_12basic_stringIcNS_11char_traitsIcEENS_9allocatorIcEEEE4GateEEPvEEEEbEC2B8ue170006ISF_RbLSC_0EEEOT_OT0_, symObjAddr: 0xEB64, symBinAddr: 0x100010350, symSize: 0x38 }
  - { offsetInCU: 0x31514, offset: 0x31514, size: 0x8, addend: 0x0, symName: __ZNSt3__114pointer_traitsIPNS_17__hash_value_typeINS_12basic_stringIcNS_11char_traitsIcEENS_9allocatorIcEEEE4GateEEE10pointer_toB8ue170006ERS9_, symObjAddr: 0xEB9C, symBinAddr: 0x100010388, symSize: 0x14 }
  - { offsetInCU: 0x31537, offset: 0x31537, size: 0x8, addend: 0x0, symName: __ZNSt3__113unordered_mapINS_12basic_stringIcNS_11char_traitsIcEENS_9allocatorIcEEEEP9InstanceFNS_4hashIS6_EENS_8equal_toIS6_EENS4_INS_4pairIKS6_S8_EEEEEC2B8ue170006Ev, symObjAddr: 0xEBB0, symBinAddr: 0x10001039C, symSize: 0x2C }
  - { offsetInCU: 0x31561, offset: 0x31561, size: 0x8, addend: 0x0, symName: __ZNSt3__112__hash_tableINS_17__hash_value_typeINS_12basic_stringIcNS_11char_traitsIcEENS_9allocatorIcEEEEP9InstanceFEENS_22__unordered_map_hasherIS7_SA_NS_4hashIS7_EENS_8equal_toIS7_EELb1EEENS_21__unordered_map_equalIS7_SA_SF_SD_Lb1EEENS5_ISA_EEEC1Ev, symObjAddr: 0xEBDC, symBinAddr: 0x1000103C8, symSize: 0x2C }
  - { offsetInCU: 0x3158D, offset: 0x3158D, size: 0x8, addend: 0x0, symName: __ZNSt3__112__hash_tableINS_17__hash_value_typeINS_12basic_stringIcNS_11char_traitsIcEENS_9allocatorIcEEEEP9InstanceFEENS_22__unordered_map_hasherIS7_SA_NS_4hashIS7_EENS_8equal_toIS7_EELb1EEENS_21__unordered_map_equalIS7_SA_SF_SD_Lb1EEENS5_ISA_EEEC2Ev, symObjAddr: 0xEC08, symBinAddr: 0x1000103F4, symSize: 0x7C }
  - { offsetInCU: 0x315B9, offset: 0x315B9, size: 0x8, addend: 0x0, symName: __ZNSt3__110unique_ptrIA_PNS_16__hash_node_baseIPNS_11__hash_nodeINS_17__hash_value_typeINS_12basic_stringIcNS_11char_traitsIcEENS_9allocatorIcEEEEP9InstanceFEEPvEEEENS_25__bucket_list_deallocatorINS7_ISH_EEEEEC1B8ue170006ILb1EvEEv, symObjAddr: 0xEC84, symBinAddr: 0x100010470, symSize: 0x2C }
  - { offsetInCU: 0x315EE, offset: 0x315EE, size: 0x8, addend: 0x0, symName: __ZNSt3__117__compressed_pairINS_16__hash_node_baseIPNS_11__hash_nodeINS_17__hash_value_typeINS_12basic_stringIcNS_11char_traitsIcEENS_9allocatorIcEEEEP9InstanceFEEPvEEEENS7_ISE_EEEC1B8ue170006ILb1EvEEv, symObjAddr: 0xECB0, symBinAddr: 0x10001049C, symSize: 0x2C }
  - { offsetInCU: 0x31623, offset: 0x31623, size: 0x8, addend: 0x0, symName: __ZNSt3__117__compressed_pairImNS_22__unordered_map_hasherINS_12basic_stringIcNS_11char_traitsIcEENS_9allocatorIcEEEENS_17__hash_value_typeIS7_P9InstanceFEENS_4hashIS7_EENS_8equal_toIS7_EELb1EEEEC1B8ue170006IiNS_18__default_init_tagEEEOT_OT0_, symObjAddr: 0xECDC, symBinAddr: 0x1000104C8, symSize: 0x3C }
  - { offsetInCU: 0x3167B, offset: 0x3167B, size: 0x8, addend: 0x0, symName: __ZNSt3__117__compressed_pairIfNS_21__unordered_map_equalINS_12basic_stringIcNS_11char_traitsIcEENS_9allocatorIcEEEENS_17__hash_value_typeIS7_P9InstanceFEENS_8equal_toIS7_EENS_4hashIS7_EELb1EEEEC1B8ue170006IfNS_18__default_init_tagEEEOT_OT0_, symObjAddr: 0xED18, symBinAddr: 0x100010504, symSize: 0x3C }
  - { offsetInCU: 0x316D3, offset: 0x316D3, size: 0x8, addend: 0x0, symName: __ZNSt3__110unique_ptrIA_PNS_16__hash_node_baseIPNS_11__hash_nodeINS_17__hash_value_typeINS_12basic_stringIcNS_11char_traitsIcEENS_9allocatorIcEEEEP9InstanceFEEPvEEEENS_25__bucket_list_deallocatorINS7_ISH_EEEEEC2B8ue170006ILb1EvEEv, symObjAddr: 0xED54, symBinAddr: 0x100010540, symSize: 0x3C }
  - { offsetInCU: 0x31708, offset: 0x31708, size: 0x8, addend: 0x0, symName: __ZNSt3__117__compressed_pairIPPNS_16__hash_node_baseIPNS_11__hash_nodeINS_17__hash_value_typeINS_12basic_stringIcNS_11char_traitsIcEENS_9allocatorIcEEEEP9InstanceFEEPvEEEENS_25__bucket_list_deallocatorINS7_ISH_EEEEEC1B8ue170006INS_16__value_init_tagESO_EEOT_OT0_, symObjAddr: 0xED90, symBinAddr: 0x10001057C, symSize: 0x3C }
  - { offsetInCU: 0x31760, offset: 0x31760, size: 0x8, addend: 0x0, symName: __ZNSt3__117__compressed_pairIPPNS_16__hash_node_baseIPNS_11__hash_nodeINS_17__hash_value_typeINS_12basic_stringIcNS_11char_traitsIcEENS_9allocatorIcEEEEP9InstanceFEEPvEEEENS_25__bucket_list_deallocatorINS7_ISH_EEEEEC2B8ue170006INS_16__value_init_tagESO_EEOT_OT0_, symObjAddr: 0xEDCC, symBinAddr: 0x1000105B8, symSize: 0x40 }
  - { offsetInCU: 0x317B8, offset: 0x317B8, size: 0x8, addend: 0x0, symName: __ZNSt3__122__compressed_pair_elemIPPNS_16__hash_node_baseIPNS_11__hash_nodeINS_17__hash_value_typeINS_12basic_stringIcNS_11char_traitsIcEENS_9allocatorIcEEEEP9InstanceFEEPvEEEELi0ELb0EEC2B8ue170006ENS_16__value_init_tagE, symObjAddr: 0xEE0C, symBinAddr: 0x1000105F8, symSize: 0x18 }
  - { offsetInCU: 0x317ED, offset: 0x317ED, size: 0x8, addend: 0x0, symName: __ZNSt3__122__compressed_pair_elemINS_25__bucket_list_deallocatorINS_9allocatorIPNS_16__hash_node_baseIPNS_11__hash_nodeINS_17__hash_value_typeINS_12basic_stringIcNS_11char_traitsIcEENS2_IcEEEEP9InstanceFEEPvEEEEEEEELi1ELb0EEC2B8ue170006ENS_16__value_init_tagE, symObjAddr: 0xEE24, symBinAddr: 0x100010610, symSize: 0x2C }
  - { offsetInCU: 0x31822, offset: 0x31822, size: 0x8, addend: 0x0, symName: __ZNSt3__125__bucket_list_deallocatorINS_9allocatorIPNS_16__hash_node_baseIPNS_11__hash_nodeINS_17__hash_value_typeINS_12basic_stringIcNS_11char_traitsIcEENS1_IcEEEEP9InstanceFEEPvEEEEEEEC1B8ue170006Ev, symObjAddr: 0xEE50, symBinAddr: 0x10001063C, symSize: 0x2C }
  - { offsetInCU: 0x3184C, offset: 0x3184C, size: 0x8, addend: 0x0, symName: __ZNSt3__125__bucket_list_deallocatorINS_9allocatorIPNS_16__hash_node_baseIPNS_11__hash_nodeINS_17__hash_value_typeINS_12basic_stringIcNS_11char_traitsIcEENS1_IcEEEEP9InstanceFEEPvEEEEEEEC2B8ue170006Ev, symObjAddr: 0xEE7C, symBinAddr: 0x100010668, symSize: 0x40 }
  - { offsetInCU: 0x31876, offset: 0x31876, size: 0x8, addend: 0x0, symName: __ZNSt3__117__compressed_pairImNS_9allocatorIPNS_16__hash_node_baseIPNS_11__hash_nodeINS_17__hash_value_typeINS_12basic_stringIcNS_11char_traitsIcEENS1_IcEEEEP9InstanceFEEPvEEEEEEEC1B8ue170006IiNS_18__default_init_tagEEEOT_OT0_, symObjAddr: 0xEEBC, symBinAddr: 0x1000106A8, symSize: 0x3C }
  - { offsetInCU: 0x318CE, offset: 0x318CE, size: 0x8, addend: 0x0, symName: __ZNSt3__117__compressed_pairImNS_9allocatorIPNS_16__hash_node_baseIPNS_11__hash_nodeINS_17__hash_value_typeINS_12basic_stringIcNS_11char_traitsIcEENS1_IcEEEEP9InstanceFEEPvEEEEEEEC2B8ue170006IiNS_18__default_init_tagEEEOT_OT0_, symObjAddr: 0xEEF8, symBinAddr: 0x1000106E4, symSize: 0x40 }
  - { offsetInCU: 0x31926, offset: 0x31926, size: 0x8, addend: 0x0, symName: __ZNSt3__122__compressed_pair_elemINS_9allocatorIPNS_16__hash_node_baseIPNS_11__hash_nodeINS_17__hash_value_typeINS_12basic_stringIcNS_11char_traitsIcEENS1_IcEEEEP9InstanceFEEPvEEEEEELi1ELb1EEC2B8ue170006ENS_18__default_init_tagE, symObjAddr: 0xEF38, symBinAddr: 0x100010724, symSize: 0x2C }
  - { offsetInCU: 0x3195B, offset: 0x3195B, size: 0x8, addend: 0x0, symName: __ZNSt3__19allocatorIPNS_16__hash_node_baseIPNS_11__hash_nodeINS_17__hash_value_typeINS_12basic_stringIcNS_11char_traitsIcEENS0_IcEEEEP9InstanceFEEPvEEEEEC2B8ue170006Ev, symObjAddr: 0xEF64, symBinAddr: 0x100010750, symSize: 0x2C }
  - { offsetInCU: 0x31985, offset: 0x31985, size: 0x8, addend: 0x0, symName: __ZNSt3__116__non_trivial_ifILb1ENS_9allocatorIPNS_16__hash_node_baseIPNS_11__hash_nodeINS_17__hash_value_typeINS_12basic_stringIcNS_11char_traitsIcEENS1_IcEEEEP9InstanceFEEPvEEEEEEEC2B8ue170006Ev, symObjAddr: 0xEF90, symBinAddr: 0x10001077C, symSize: 0x14 }
  - { offsetInCU: 0x319AF, offset: 0x319AF, size: 0x8, addend: 0x0, symName: __ZNSt3__117__compressed_pairINS_16__hash_node_baseIPNS_11__hash_nodeINS_17__hash_value_typeINS_12basic_stringIcNS_11char_traitsIcEENS_9allocatorIcEEEEP9InstanceFEEPvEEEENS7_ISE_EEEC2B8ue170006ILb1EvEEv, symObjAddr: 0xEFA4, symBinAddr: 0x100010790, symSize: 0x34 }
  - { offsetInCU: 0x319E4, offset: 0x319E4, size: 0x8, addend: 0x0, symName: __ZNSt3__122__compressed_pair_elemINS_16__hash_node_baseIPNS_11__hash_nodeINS_17__hash_value_typeINS_12basic_stringIcNS_11char_traitsIcEENS_9allocatorIcEEEEP9InstanceFEEPvEEEELi0ELb0EEC2B8ue170006ENS_16__value_init_tagE, symObjAddr: 0xEFD8, symBinAddr: 0x1000107C4, symSize: 0x2C }
  - { offsetInCU: 0x31A19, offset: 0x31A19, size: 0x8, addend: 0x0, symName: __ZNSt3__122__compressed_pair_elemINS_9allocatorINS_11__hash_nodeINS_17__hash_value_typeINS_12basic_stringIcNS_11char_traitsIcEENS1_IcEEEEP9InstanceFEEPvEEEELi1ELb1EEC2B8ue170006ENS_16__value_init_tagE, symObjAddr: 0xF004, symBinAddr: 0x1000107F0, symSize: 0x2C }
  - { offsetInCU: 0x31A4E, offset: 0x31A4E, size: 0x8, addend: 0x0, symName: __ZNSt3__116__hash_node_baseIPNS_11__hash_nodeINS_17__hash_value_typeINS_12basic_stringIcNS_11char_traitsIcEENS_9allocatorIcEEEEP9InstanceFEEPvEEEC1B8ue170006Ev, symObjAddr: 0xF030, symBinAddr: 0x10001081C, symSize: 0x2C }
  - { offsetInCU: 0x31A78, offset: 0x31A78, size: 0x8, addend: 0x0, symName: __ZNSt3__116__hash_node_baseIPNS_11__hash_nodeINS_17__hash_value_typeINS_12basic_stringIcNS_11char_traitsIcEENS_9allocatorIcEEEEP9InstanceFEEPvEEEC2B8ue170006Ev, symObjAddr: 0xF05C, symBinAddr: 0x100010848, symSize: 0x18 }
  - { offsetInCU: 0x31AA2, offset: 0x31AA2, size: 0x8, addend: 0x0, symName: __ZNSt3__19allocatorINS_11__hash_nodeINS_17__hash_value_typeINS_12basic_stringIcNS_11char_traitsIcEENS0_IcEEEEP9InstanceFEEPvEEEC2B8ue170006Ev, symObjAddr: 0xF074, symBinAddr: 0x100010860, symSize: 0x2C }
  - { offsetInCU: 0x31ACC, offset: 0x31ACC, size: 0x8, addend: 0x0, symName: __ZNSt3__116__non_trivial_ifILb1ENS_9allocatorINS_11__hash_nodeINS_17__hash_value_typeINS_12basic_stringIcNS_11char_traitsIcEENS1_IcEEEEP9InstanceFEEPvEEEEEC2B8ue170006Ev, symObjAddr: 0xF0A0, symBinAddr: 0x10001088C, symSize: 0x14 }
  - { offsetInCU: 0x31AF6, offset: 0x31AF6, size: 0x8, addend: 0x0, symName: __ZNSt3__117__compressed_pairImNS_22__unordered_map_hasherINS_12basic_stringIcNS_11char_traitsIcEENS_9allocatorIcEEEENS_17__hash_value_typeIS7_P9InstanceFEENS_4hashIS7_EENS_8equal_toIS7_EELb1EEEEC2B8ue170006IiNS_18__default_init_tagEEEOT_OT0_, symObjAddr: 0xF0B4, symBinAddr: 0x1000108A0, symSize: 0x40 }
  - { offsetInCU: 0x31B4E, offset: 0x31B4E, size: 0x8, addend: 0x0, symName: __ZNSt3__122__compressed_pair_elemINS_22__unordered_map_hasherINS_12basic_stringIcNS_11char_traitsIcEENS_9allocatorIcEEEENS_17__hash_value_typeIS7_P9InstanceFEENS_4hashIS7_EENS_8equal_toIS7_EELb1EEELi1ELb1EEC2B8ue170006ENS_18__default_init_tagE, symObjAddr: 0xF0F4, symBinAddr: 0x1000108E0, symSize: 0x2C }
  - { offsetInCU: 0x31B83, offset: 0x31B83, size: 0x8, addend: 0x0, symName: __ZNSt3__122__unordered_map_hasherINS_12basic_stringIcNS_11char_traitsIcEENS_9allocatorIcEEEENS_17__hash_value_typeIS6_P9InstanceFEENS_4hashIS6_EENS_8equal_toIS6_EELb1EEC2B8ue170006Ev, symObjAddr: 0xF120, symBinAddr: 0x10001090C, symSize: 0x14 }
  - { offsetInCU: 0x31BAD, offset: 0x31BAD, size: 0x8, addend: 0x0, symName: __ZNSt3__117__compressed_pairIfNS_21__unordered_map_equalINS_12basic_stringIcNS_11char_traitsIcEENS_9allocatorIcEEEENS_17__hash_value_typeIS7_P9InstanceFEENS_8equal_toIS7_EENS_4hashIS7_EELb1EEEEC2B8ue170006IfNS_18__default_init_tagEEEOT_OT0_, symObjAddr: 0xF134, symBinAddr: 0x100010920, symSize: 0x40 }
  - { offsetInCU: 0x31C05, offset: 0x31C05, size: 0x8, addend: 0x0, symName: __ZNSt3__122__compressed_pair_elemINS_21__unordered_map_equalINS_12basic_stringIcNS_11char_traitsIcEENS_9allocatorIcEEEENS_17__hash_value_typeIS7_P9InstanceFEENS_8equal_toIS7_EENS_4hashIS7_EELb1EEELi1ELb1EEC2B8ue170006ENS_18__default_init_tagE, symObjAddr: 0xF174, symBinAddr: 0x100010960, symSize: 0x2C }
  - { offsetInCU: 0x31C3A, offset: 0x31C3A, size: 0x8, addend: 0x0, symName: __ZNSt3__121__unordered_map_equalINS_12basic_stringIcNS_11char_traitsIcEENS_9allocatorIcEEEENS_17__hash_value_typeIS6_P9InstanceFEENS_8equal_toIS6_EENS_4hashIS6_EELb1EEC2B8ue170006Ev, symObjAddr: 0xF1A0, symBinAddr: 0x10001098C, symSize: 0x14 }
  - { offsetInCU: 0x31C64, offset: 0x31C64, size: 0x8, addend: 0x0, symName: __ZNSt3__113unordered_mapINS_12basic_stringIcNS_11char_traitsIcEENS_9allocatorIcEEEEP9InstanceFNS_4hashIS6_EENS_8equal_toIS6_EENS4_INS_4pairIKS6_S8_EEEEED2B8ue170006Ev, symObjAddr: 0xF1B4, symBinAddr: 0x1000109A0, symSize: 0x2C }
  - { offsetInCU: 0x31C8E, offset: 0x31C8E, size: 0x8, addend: 0x0, symName: __ZNSt3__112__hash_tableINS_17__hash_value_typeINS_12basic_stringIcNS_11char_traitsIcEENS_9allocatorIcEEEEP9InstanceFEENS_22__unordered_map_hasherIS7_SA_NS_4hashIS7_EENS_8equal_toIS7_EELb1EEENS_21__unordered_map_equalIS7_SA_SF_SD_Lb1EEENS5_ISA_EEED1Ev, symObjAddr: 0xF1E0, symBinAddr: 0x1000109CC, symSize: 0x2C }
  - { offsetInCU: 0x31CBA, offset: 0x31CBA, size: 0x8, addend: 0x0, symName: __ZNSt3__112__hash_tableINS_17__hash_value_typeINS_12basic_stringIcNS_11char_traitsIcEENS_9allocatorIcEEEEP9InstanceFEENS_22__unordered_map_hasherIS7_SA_NS_4hashIS7_EENS_8equal_toIS7_EELb1EEENS_21__unordered_map_equalIS7_SA_SF_SD_Lb1EEENS5_ISA_EEED2Ev, symObjAddr: 0xF20C, symBinAddr: 0x1000109F8, symSize: 0x48 }
  - { offsetInCU: 0x31CE6, offset: 0x31CE6, size: 0x8, addend: 0x0, symName: __ZNSt3__112__hash_tableINS_17__hash_value_typeINS_12basic_stringIcNS_11char_traitsIcEENS_9allocatorIcEEEEP9InstanceFEENS_22__unordered_map_hasherIS7_SA_NS_4hashIS7_EENS_8equal_toIS7_EELb1EEENS_21__unordered_map_equalIS7_SA_SF_SD_Lb1EEENS5_ISA_EEE17__deallocate_nodeEPNS_16__hash_node_baseIPNS_11__hash_nodeISA_PvEEEE, symObjAddr: 0xF254, symBinAddr: 0x100010A40, symSize: 0xA8 }
  - { offsetInCU: 0x31D50, offset: 0x31D50, size: 0x8, addend: 0x0, symName: __ZNSt3__117__compressed_pairINS_16__hash_node_baseIPNS_11__hash_nodeINS_17__hash_value_typeINS_12basic_stringIcNS_11char_traitsIcEENS_9allocatorIcEEEEP9InstanceFEEPvEEEENS7_ISE_EEE5firstB8ue170006Ev, symObjAddr: 0xF2FC, symBinAddr: 0x100010AE8, symSize: 0x24 }
  - { offsetInCU: 0x31D76, offset: 0x31D76, size: 0x8, addend: 0x0, symName: __ZNSt3__110unique_ptrIA_PNS_16__hash_node_baseIPNS_11__hash_nodeINS_17__hash_value_typeINS_12basic_stringIcNS_11char_traitsIcEENS_9allocatorIcEEEEP9InstanceFEEPvEEEENS_25__bucket_list_deallocatorINS7_ISH_EEEEED1B8ue170006Ev, symObjAddr: 0xF320, symBinAddr: 0x100010B0C, symSize: 0x2C }
  - { offsetInCU: 0x31DA0, offset: 0x31DA0, size: 0x8, addend: 0x0, symName: __ZNSt3__112__hash_tableINS_17__hash_value_typeINS_12basic_stringIcNS_11char_traitsIcEENS_9allocatorIcEEEEP9InstanceFEENS_22__unordered_map_hasherIS7_SA_NS_4hashIS7_EENS_8equal_toIS7_EELb1EEENS_21__unordered_map_equalIS7_SA_SF_SD_Lb1EEENS5_ISA_EEE12__node_allocB8ue170006Ev, symObjAddr: 0xF34C, symBinAddr: 0x100010B38, symSize: 0x28 }
  - { offsetInCU: 0x31DC6, offset: 0x31DC6, size: 0x8, addend: 0x0, symName: __ZNSt3__116__hash_node_baseIPNS_11__hash_nodeINS_17__hash_value_typeINS_12basic_stringIcNS_11char_traitsIcEENS_9allocatorIcEEEEP9InstanceFEEPvEEE8__upcastB8ue170006Ev, symObjAddr: 0xF374, symBinAddr: 0x100010B60, symSize: 0x24 }
  - { offsetInCU: 0x31DEC, offset: 0x31DEC, size: 0x8, addend: 0x0, symName: __ZNSt3__116allocator_traitsINS_9allocatorINS_11__hash_nodeINS_17__hash_value_typeINS_12basic_stringIcNS_11char_traitsIcEENS1_IcEEEEP9InstanceFEEPvEEEEE7destroyB8ue170006INS_4pairIKS8_SA_EEvvEEvRSE_PT_, symObjAddr: 0xF398, symBinAddr: 0x100010B84, symSize: 0x28 }
  - { offsetInCU: 0x31E27, offset: 0x31E27, size: 0x8, addend: 0x0, symName: __ZNSt3__122__hash_key_value_typesINS_17__hash_value_typeINS_12basic_stringIcNS_11char_traitsIcEENS_9allocatorIcEEEEP9InstanceFEEE9__get_ptrB8ue170006ERSA_, symObjAddr: 0xF3C0, symBinAddr: 0x100010BAC, symSize: 0x24 }
  - { offsetInCU: 0x31E4A, offset: 0x31E4A, size: 0x8, addend: 0x0, symName: __ZNSt3__116allocator_traitsINS_9allocatorINS_11__hash_nodeINS_17__hash_value_typeINS_12basic_stringIcNS_11char_traitsIcEENS1_IcEEEEP9InstanceFEEPvEEEEE10deallocateB8ue170006ERSE_PSD_m, symObjAddr: 0xF3E4, symBinAddr: 0x100010BD0, symSize: 0x34 }
  - { offsetInCU: 0x31E8C, offset: 0x31E8C, size: 0x8, addend: 0x0, symName: __ZNSt3__117__compressed_pairINS_16__hash_node_baseIPNS_11__hash_nodeINS_17__hash_value_typeINS_12basic_stringIcNS_11char_traitsIcEENS_9allocatorIcEEEEP9InstanceFEEPvEEEENS7_ISE_EEE6secondB8ue170006Ev, symObjAddr: 0xF418, symBinAddr: 0x100010C04, symSize: 0x24 }
  - { offsetInCU: 0x31EB2, offset: 0x31EB2, size: 0x8, addend: 0x0, symName: __ZNSt3__122__compressed_pair_elemINS_9allocatorINS_11__hash_nodeINS_17__hash_value_typeINS_12basic_stringIcNS_11char_traitsIcEENS1_IcEEEEP9InstanceFEEPvEEEELi1ELb1EE5__getB8ue170006Ev, symObjAddr: 0xF43C, symBinAddr: 0x100010C28, symSize: 0x14 }
  - { offsetInCU: 0x31ED8, offset: 0x31ED8, size: 0x8, addend: 0x0, symName: __ZNSt3__114pointer_traitsIPNS_16__hash_node_baseIPNS_11__hash_nodeINS_17__hash_value_typeINS_12basic_stringIcNS_11char_traitsIcEENS_9allocatorIcEEEEP9InstanceFEEPvEEEEE10pointer_toB8ue170006ERSG_, symObjAddr: 0xF450, symBinAddr: 0x100010C3C, symSize: 0x14 }
  - { offsetInCU: 0x31EFB, offset: 0x31EFB, size: 0x8, addend: 0x0, symName: __ZNSt3__14pairIKNS_12basic_stringIcNS_11char_traitsIcEENS_9allocatorIcEEEEP9InstanceFED1Ev, symObjAddr: 0xF464, symBinAddr: 0x100010C50, symSize: 0x2C }
  - { offsetInCU: 0x31F27, offset: 0x31F27, size: 0x8, addend: 0x0, symName: __ZNSt3__14pairIKNS_12basic_stringIcNS_11char_traitsIcEENS_9allocatorIcEEEEP9InstanceFED2Ev, symObjAddr: 0xF490, symBinAddr: 0x100010C7C, symSize: 0x2C }
  - { offsetInCU: 0x31F53, offset: 0x31F53, size: 0x8, addend: 0x0, symName: __ZNSt3__117__hash_value_typeINS_12basic_stringIcNS_11char_traitsIcEENS_9allocatorIcEEEEP9InstanceFE11__get_valueB8ue170006Ev, symObjAddr: 0xF4BC, symBinAddr: 0x100010CA8, symSize: 0x24 }
  - { offsetInCU: 0x31F79, offset: 0x31F79, size: 0x8, addend: 0x0, symName: __ZNSt3__19allocatorINS_11__hash_nodeINS_17__hash_value_typeINS_12basic_stringIcNS_11char_traitsIcEENS0_IcEEEEP9InstanceFEEPvEEE10deallocateB8ue170006EPSC_m, symObjAddr: 0xF518, symBinAddr: 0x100010D04, symSize: 0x44 }
  - { offsetInCU: 0x31FBB, offset: 0x31FBB, size: 0x8, addend: 0x0, symName: __ZNSt3__122__compressed_pair_elemINS_16__hash_node_baseIPNS_11__hash_nodeINS_17__hash_value_typeINS_12basic_stringIcNS_11char_traitsIcEENS_9allocatorIcEEEEP9InstanceFEEPvEEEELi0ELb0EE5__getB8ue170006Ev, symObjAddr: 0xF55C, symBinAddr: 0x100010D48, symSize: 0x14 }
  - { offsetInCU: 0x31FE1, offset: 0x31FE1, size: 0x8, addend: 0x0, symName: __ZNSt3__110unique_ptrIA_PNS_16__hash_node_baseIPNS_11__hash_nodeINS_17__hash_value_typeINS_12basic_stringIcNS_11char_traitsIcEENS_9allocatorIcEEEEP9InstanceFEEPvEEEENS_25__bucket_list_deallocatorINS7_ISH_EEEEED2B8ue170006Ev, symObjAddr: 0xF570, symBinAddr: 0x100010D5C, symSize: 0x30 }
  - { offsetInCU: 0x3200B, offset: 0x3200B, size: 0x8, addend: 0x0, symName: __ZNSt3__110unique_ptrIA_PNS_16__hash_node_baseIPNS_11__hash_nodeINS_17__hash_value_typeINS_12basic_stringIcNS_11char_traitsIcEENS_9allocatorIcEEEEP9InstanceFEEPvEEEENS_25__bucket_list_deallocatorINS7_ISH_EEEEE5resetB8ue170006EDn, symObjAddr: 0xF5A0, symBinAddr: 0x100010D8C, symSize: 0x6C }
  - { offsetInCU: 0x3204C, offset: 0x3204C, size: 0x8, addend: 0x0, symName: __ZNSt3__117__compressed_pairIPPNS_16__hash_node_baseIPNS_11__hash_nodeINS_17__hash_value_typeINS_12basic_stringIcNS_11char_traitsIcEENS_9allocatorIcEEEEP9InstanceFEEPvEEEENS_25__bucket_list_deallocatorINS7_ISH_EEEEE5firstB8ue170006Ev, symObjAddr: 0xF60C, symBinAddr: 0x100010DF8, symSize: 0x24 }
  - { offsetInCU: 0x32072, offset: 0x32072, size: 0x8, addend: 0x0, symName: __ZNSt3__117__compressed_pairIPPNS_16__hash_node_baseIPNS_11__hash_nodeINS_17__hash_value_typeINS_12basic_stringIcNS_11char_traitsIcEENS_9allocatorIcEEEEP9InstanceFEEPvEEEENS_25__bucket_list_deallocatorINS7_ISH_EEEEE6secondB8ue170006Ev, symObjAddr: 0xF630, symBinAddr: 0x100010E1C, symSize: 0x28 }
  - { offsetInCU: 0x32098, offset: 0x32098, size: 0x8, addend: 0x0, symName: __ZNSt3__125__bucket_list_deallocatorINS_9allocatorIPNS_16__hash_node_baseIPNS_11__hash_nodeINS_17__hash_value_typeINS_12basic_stringIcNS_11char_traitsIcEENS1_IcEEEEP9InstanceFEEPvEEEEEEEclB8ue170006EPSH_, symObjAddr: 0xF658, symBinAddr: 0x100010E44, symSize: 0x58 }
  - { offsetInCU: 0x320CD, offset: 0x320CD, size: 0x8, addend: 0x0, symName: __ZNSt3__122__compressed_pair_elemIPPNS_16__hash_node_baseIPNS_11__hash_nodeINS_17__hash_value_typeINS_12basic_stringIcNS_11char_traitsIcEENS_9allocatorIcEEEEP9InstanceFEEPvEEEELi0ELb0EE5__getB8ue170006Ev, symObjAddr: 0xF6B0, symBinAddr: 0x100010E9C, symSize: 0x14 }
  - { offsetInCU: 0x320F3, offset: 0x320F3, size: 0x8, addend: 0x0, symName: __ZNSt3__122__compressed_pair_elemINS_25__bucket_list_deallocatorINS_9allocatorIPNS_16__hash_node_baseIPNS_11__hash_nodeINS_17__hash_value_typeINS_12basic_stringIcNS_11char_traitsIcEENS2_IcEEEEP9InstanceFEEPvEEEEEEEELi1ELb0EE5__getB8ue170006Ev, symObjAddr: 0xF6C4, symBinAddr: 0x100010EB0, symSize: 0x14 }
  - { offsetInCU: 0x32119, offset: 0x32119, size: 0x8, addend: 0x0, symName: __ZNSt3__116allocator_traitsINS_9allocatorIPNS_16__hash_node_baseIPNS_11__hash_nodeINS_17__hash_value_typeINS_12basic_stringIcNS_11char_traitsIcEENS1_IcEEEEP9InstanceFEEPvEEEEEEE10deallocateB8ue170006ERSI_PSH_m, symObjAddr: 0xF6D8, symBinAddr: 0x100010EC4, symSize: 0x34 }
  - { offsetInCU: 0x3215B, offset: 0x3215B, size: 0x8, addend: 0x0, symName: __ZNSt3__125__bucket_list_deallocatorINS_9allocatorIPNS_16__hash_node_baseIPNS_11__hash_nodeINS_17__hash_value_typeINS_12basic_stringIcNS_11char_traitsIcEENS1_IcEEEEP9InstanceFEEPvEEEEEEE7__allocB8ue170006Ev, symObjAddr: 0xF70C, symBinAddr: 0x100010EF8, symSize: 0x24 }
  - { offsetInCU: 0x32181, offset: 0x32181, size: 0x8, addend: 0x0, symName: __ZNSt3__125__bucket_list_deallocatorINS_9allocatorIPNS_16__hash_node_baseIPNS_11__hash_nodeINS_17__hash_value_typeINS_12basic_stringIcNS_11char_traitsIcEENS1_IcEEEEP9InstanceFEEPvEEEEEEE4sizeB8ue170006Ev, symObjAddr: 0xF730, symBinAddr: 0x100010F1C, symSize: 0x24 }
  - { offsetInCU: 0x321A7, offset: 0x321A7, size: 0x8, addend: 0x0, symName: __ZNSt3__19allocatorIPNS_16__hash_node_baseIPNS_11__hash_nodeINS_17__hash_value_typeINS_12basic_stringIcNS_11char_traitsIcEENS0_IcEEEEP9InstanceFEEPvEEEEE10deallocateB8ue170006EPSG_m, symObjAddr: 0xF754, symBinAddr: 0x100010F40, symSize: 0x40 }
  - { offsetInCU: 0x321E9, offset: 0x321E9, size: 0x8, addend: 0x0, symName: __ZNSt3__117__compressed_pairImNS_9allocatorIPNS_16__hash_node_baseIPNS_11__hash_nodeINS_17__hash_value_typeINS_12basic_stringIcNS_11char_traitsIcEENS1_IcEEEEP9InstanceFEEPvEEEEEEE6secondB8ue170006Ev, symObjAddr: 0xF794, symBinAddr: 0x100010F80, symSize: 0x24 }
  - { offsetInCU: 0x3220F, offset: 0x3220F, size: 0x8, addend: 0x0, symName: __ZNSt3__122__compressed_pair_elemINS_9allocatorIPNS_16__hash_node_baseIPNS_11__hash_nodeINS_17__hash_value_typeINS_12basic_stringIcNS_11char_traitsIcEENS1_IcEEEEP9InstanceFEEPvEEEEEELi1ELb1EE5__getB8ue170006Ev, symObjAddr: 0xF7B8, symBinAddr: 0x100010FA4, symSize: 0x14 }
  - { offsetInCU: 0x32235, offset: 0x32235, size: 0x8, addend: 0x0, symName: __ZNSt3__117__compressed_pairImNS_9allocatorIPNS_16__hash_node_baseIPNS_11__hash_nodeINS_17__hash_value_typeINS_12basic_stringIcNS_11char_traitsIcEENS1_IcEEEEP9InstanceFEEPvEEEEEEE5firstB8ue170006Ev, symObjAddr: 0xF7CC, symBinAddr: 0x100010FB8, symSize: 0x24 }
  - { offsetInCU: 0x3225B, offset: 0x3225B, size: 0x8, addend: 0x0, symName: __ZNSt3__113unordered_mapINS_12basic_stringIcNS_11char_traitsIcEENS_9allocatorIcEEEEP9InstanceGNS_4hashIS6_EENS_8equal_toIS6_EENS4_INS_4pairIKS6_S8_EEEEEC2B8ue170006Ev, symObjAddr: 0xF7F0, symBinAddr: 0x100010FDC, symSize: 0x2C }
  - { offsetInCU: 0x32285, offset: 0x32285, size: 0x8, addend: 0x0, symName: __ZNSt3__112__hash_tableINS_17__hash_value_typeINS_12basic_stringIcNS_11char_traitsIcEENS_9allocatorIcEEEEP9InstanceGEENS_22__unordered_map_hasherIS7_SA_NS_4hashIS7_EENS_8equal_toIS7_EELb1EEENS_21__unordered_map_equalIS7_SA_SF_SD_Lb1EEENS5_ISA_EEEC1Ev, symObjAddr: 0xF81C, symBinAddr: 0x100011008, symSize: 0x2C }
  - { offsetInCU: 0x322B1, offset: 0x322B1, size: 0x8, addend: 0x0, symName: __ZNSt3__112__hash_tableINS_17__hash_value_typeINS_12basic_stringIcNS_11char_traitsIcEENS_9allocatorIcEEEEP9InstanceGEENS_22__unordered_map_hasherIS7_SA_NS_4hashIS7_EENS_8equal_toIS7_EELb1EEENS_21__unordered_map_equalIS7_SA_SF_SD_Lb1EEENS5_ISA_EEEC2Ev, symObjAddr: 0xF848, symBinAddr: 0x100011034, symSize: 0x7C }
  - { offsetInCU: 0x322DD, offset: 0x322DD, size: 0x8, addend: 0x0, symName: __ZNSt3__110unique_ptrIA_PNS_16__hash_node_baseIPNS_11__hash_nodeINS_17__hash_value_typeINS_12basic_stringIcNS_11char_traitsIcEENS_9allocatorIcEEEEP9InstanceGEEPvEEEENS_25__bucket_list_deallocatorINS7_ISH_EEEEEC1B8ue170006ILb1EvEEv, symObjAddr: 0xF8C4, symBinAddr: 0x1000110B0, symSize: 0x2C }
  - { offsetInCU: 0x32312, offset: 0x32312, size: 0x8, addend: 0x0, symName: __ZNSt3__117__compressed_pairINS_16__hash_node_baseIPNS_11__hash_nodeINS_17__hash_value_typeINS_12basic_stringIcNS_11char_traitsIcEENS_9allocatorIcEEEEP9InstanceGEEPvEEEENS7_ISE_EEEC1B8ue170006ILb1EvEEv, symObjAddr: 0xF8F0, symBinAddr: 0x1000110DC, symSize: 0x2C }
  - { offsetInCU: 0x32347, offset: 0x32347, size: 0x8, addend: 0x0, symName: __ZNSt3__117__compressed_pairImNS_22__unordered_map_hasherINS_12basic_stringIcNS_11char_traitsIcEENS_9allocatorIcEEEENS_17__hash_value_typeIS7_P9InstanceGEENS_4hashIS7_EENS_8equal_toIS7_EELb1EEEEC1B8ue170006IiNS_18__default_init_tagEEEOT_OT0_, symObjAddr: 0xF91C, symBinAddr: 0x100011108, symSize: 0x3C }
  - { offsetInCU: 0x3239F, offset: 0x3239F, size: 0x8, addend: 0x0, symName: __ZNSt3__117__compressed_pairIfNS_21__unordered_map_equalINS_12basic_stringIcNS_11char_traitsIcEENS_9allocatorIcEEEENS_17__hash_value_typeIS7_P9InstanceGEENS_8equal_toIS7_EENS_4hashIS7_EELb1EEEEC1B8ue170006IfNS_18__default_init_tagEEEOT_OT0_, symObjAddr: 0xF958, symBinAddr: 0x100011144, symSize: 0x3C }
  - { offsetInCU: 0x323F7, offset: 0x323F7, size: 0x8, addend: 0x0, symName: __ZNSt3__110unique_ptrIA_PNS_16__hash_node_baseIPNS_11__hash_nodeINS_17__hash_value_typeINS_12basic_stringIcNS_11char_traitsIcEENS_9allocatorIcEEEEP9InstanceGEEPvEEEENS_25__bucket_list_deallocatorINS7_ISH_EEEEEC2B8ue170006ILb1EvEEv, symObjAddr: 0xF994, symBinAddr: 0x100011180, symSize: 0x3C }
  - { offsetInCU: 0x3242C, offset: 0x3242C, size: 0x8, addend: 0x0, symName: __ZNSt3__117__compressed_pairIPPNS_16__hash_node_baseIPNS_11__hash_nodeINS_17__hash_value_typeINS_12basic_stringIcNS_11char_traitsIcEENS_9allocatorIcEEEEP9InstanceGEEPvEEEENS_25__bucket_list_deallocatorINS7_ISH_EEEEEC1B8ue170006INS_16__value_init_tagESO_EEOT_OT0_, symObjAddr: 0xF9D0, symBinAddr: 0x1000111BC, symSize: 0x3C }
  - { offsetInCU: 0x32484, offset: 0x32484, size: 0x8, addend: 0x0, symName: __ZNSt3__117__compressed_pairIPPNS_16__hash_node_baseIPNS_11__hash_nodeINS_17__hash_value_typeINS_12basic_stringIcNS_11char_traitsIcEENS_9allocatorIcEEEEP9InstanceGEEPvEEEENS_25__bucket_list_deallocatorINS7_ISH_EEEEEC2B8ue170006INS_16__value_init_tagESO_EEOT_OT0_, symObjAddr: 0xFA0C, symBinAddr: 0x1000111F8, symSize: 0x40 }
  - { offsetInCU: 0x324DC, offset: 0x324DC, size: 0x8, addend: 0x0, symName: __ZNSt3__122__compressed_pair_elemIPPNS_16__hash_node_baseIPNS_11__hash_nodeINS_17__hash_value_typeINS_12basic_stringIcNS_11char_traitsIcEENS_9allocatorIcEEEEP9InstanceGEEPvEEEELi0ELb0EEC2B8ue170006ENS_16__value_init_tagE, symObjAddr: 0xFA4C, symBinAddr: 0x100011238, symSize: 0x18 }
  - { offsetInCU: 0x32511, offset: 0x32511, size: 0x8, addend: 0x0, symName: __ZNSt3__122__compressed_pair_elemINS_25__bucket_list_deallocatorINS_9allocatorIPNS_16__hash_node_baseIPNS_11__hash_nodeINS_17__hash_value_typeINS_12basic_stringIcNS_11char_traitsIcEENS2_IcEEEEP9InstanceGEEPvEEEEEEEELi1ELb0EEC2B8ue170006ENS_16__value_init_tagE, symObjAddr: 0xFA64, symBinAddr: 0x100011250, symSize: 0x2C }
  - { offsetInCU: 0x32546, offset: 0x32546, size: 0x8, addend: 0x0, symName: __ZNSt3__125__bucket_list_deallocatorINS_9allocatorIPNS_16__hash_node_baseIPNS_11__hash_nodeINS_17__hash_value_typeINS_12basic_stringIcNS_11char_traitsIcEENS1_IcEEEEP9InstanceGEEPvEEEEEEEC1B8ue170006Ev, symObjAddr: 0xFA90, symBinAddr: 0x10001127C, symSize: 0x2C }
  - { offsetInCU: 0x32570, offset: 0x32570, size: 0x8, addend: 0x0, symName: __ZNSt3__125__bucket_list_deallocatorINS_9allocatorIPNS_16__hash_node_baseIPNS_11__hash_nodeINS_17__hash_value_typeINS_12basic_stringIcNS_11char_traitsIcEENS1_IcEEEEP9InstanceGEEPvEEEEEEEC2B8ue170006Ev, symObjAddr: 0xFABC, symBinAddr: 0x1000112A8, symSize: 0x40 }
  - { offsetInCU: 0x3259A, offset: 0x3259A, size: 0x8, addend: 0x0, symName: __ZNSt3__117__compressed_pairImNS_9allocatorIPNS_16__hash_node_baseIPNS_11__hash_nodeINS_17__hash_value_typeINS_12basic_stringIcNS_11char_traitsIcEENS1_IcEEEEP9InstanceGEEPvEEEEEEEC1B8ue170006IiNS_18__default_init_tagEEEOT_OT0_, symObjAddr: 0xFAFC, symBinAddr: 0x1000112E8, symSize: 0x3C }
  - { offsetInCU: 0x325F2, offset: 0x325F2, size: 0x8, addend: 0x0, symName: __ZNSt3__117__compressed_pairImNS_9allocatorIPNS_16__hash_node_baseIPNS_11__hash_nodeINS_17__hash_value_typeINS_12basic_stringIcNS_11char_traitsIcEENS1_IcEEEEP9InstanceGEEPvEEEEEEEC2B8ue170006IiNS_18__default_init_tagEEEOT_OT0_, symObjAddr: 0xFB38, symBinAddr: 0x100011324, symSize: 0x40 }
  - { offsetInCU: 0x3264A, offset: 0x3264A, size: 0x8, addend: 0x0, symName: __ZNSt3__122__compressed_pair_elemINS_9allocatorIPNS_16__hash_node_baseIPNS_11__hash_nodeINS_17__hash_value_typeINS_12basic_stringIcNS_11char_traitsIcEENS1_IcEEEEP9InstanceGEEPvEEEEEELi1ELb1EEC2B8ue170006ENS_18__default_init_tagE, symObjAddr: 0xFB78, symBinAddr: 0x100011364, symSize: 0x2C }
  - { offsetInCU: 0x3267F, offset: 0x3267F, size: 0x8, addend: 0x0, symName: __ZNSt3__19allocatorIPNS_16__hash_node_baseIPNS_11__hash_nodeINS_17__hash_value_typeINS_12basic_stringIcNS_11char_traitsIcEENS0_IcEEEEP9InstanceGEEPvEEEEEC2B8ue170006Ev, symObjAddr: 0xFBA4, symBinAddr: 0x100011390, symSize: 0x2C }
  - { offsetInCU: 0x326A9, offset: 0x326A9, size: 0x8, addend: 0x0, symName: __ZNSt3__116__non_trivial_ifILb1ENS_9allocatorIPNS_16__hash_node_baseIPNS_11__hash_nodeINS_17__hash_value_typeINS_12basic_stringIcNS_11char_traitsIcEENS1_IcEEEEP9InstanceGEEPvEEEEEEEC2B8ue170006Ev, symObjAddr: 0xFBD0, symBinAddr: 0x1000113BC, symSize: 0x14 }
  - { offsetInCU: 0x326D3, offset: 0x326D3, size: 0x8, addend: 0x0, symName: __ZNSt3__117__compressed_pairINS_16__hash_node_baseIPNS_11__hash_nodeINS_17__hash_value_typeINS_12basic_stringIcNS_11char_traitsIcEENS_9allocatorIcEEEEP9InstanceGEEPvEEEENS7_ISE_EEEC2B8ue170006ILb1EvEEv, symObjAddr: 0xFBE4, symBinAddr: 0x1000113D0, symSize: 0x34 }
  - { offsetInCU: 0x32708, offset: 0x32708, size: 0x8, addend: 0x0, symName: __ZNSt3__122__compressed_pair_elemINS_16__hash_node_baseIPNS_11__hash_nodeINS_17__hash_value_typeINS_12basic_stringIcNS_11char_traitsIcEENS_9allocatorIcEEEEP9InstanceGEEPvEEEELi0ELb0EEC2B8ue170006ENS_16__value_init_tagE, symObjAddr: 0xFC18, symBinAddr: 0x100011404, symSize: 0x2C }
  - { offsetInCU: 0x3273D, offset: 0x3273D, size: 0x8, addend: 0x0, symName: __ZNSt3__122__compressed_pair_elemINS_9allocatorINS_11__hash_nodeINS_17__hash_value_typeINS_12basic_stringIcNS_11char_traitsIcEENS1_IcEEEEP9InstanceGEEPvEEEELi1ELb1EEC2B8ue170006ENS_16__value_init_tagE, symObjAddr: 0xFC44, symBinAddr: 0x100011430, symSize: 0x2C }
  - { offsetInCU: 0x32772, offset: 0x32772, size: 0x8, addend: 0x0, symName: __ZNSt3__116__hash_node_baseIPNS_11__hash_nodeINS_17__hash_value_typeINS_12basic_stringIcNS_11char_traitsIcEENS_9allocatorIcEEEEP9InstanceGEEPvEEEC1B8ue170006Ev, symObjAddr: 0xFC70, symBinAddr: 0x10001145C, symSize: 0x2C }
  - { offsetInCU: 0x3279C, offset: 0x3279C, size: 0x8, addend: 0x0, symName: __ZNSt3__116__hash_node_baseIPNS_11__hash_nodeINS_17__hash_value_typeINS_12basic_stringIcNS_11char_traitsIcEENS_9allocatorIcEEEEP9InstanceGEEPvEEEC2B8ue170006Ev, symObjAddr: 0xFC9C, symBinAddr: 0x100011488, symSize: 0x18 }
  - { offsetInCU: 0x327C6, offset: 0x327C6, size: 0x8, addend: 0x0, symName: __ZNSt3__19allocatorINS_11__hash_nodeINS_17__hash_value_typeINS_12basic_stringIcNS_11char_traitsIcEENS0_IcEEEEP9InstanceGEEPvEEEC2B8ue170006Ev, symObjAddr: 0xFCB4, symBinAddr: 0x1000114A0, symSize: 0x2C }
  - { offsetInCU: 0x327F0, offset: 0x327F0, size: 0x8, addend: 0x0, symName: __ZNSt3__116__non_trivial_ifILb1ENS_9allocatorINS_11__hash_nodeINS_17__hash_value_typeINS_12basic_stringIcNS_11char_traitsIcEENS1_IcEEEEP9InstanceGEEPvEEEEEC2B8ue170006Ev, symObjAddr: 0xFCE0, symBinAddr: 0x1000114CC, symSize: 0x14 }
  - { offsetInCU: 0x3281A, offset: 0x3281A, size: 0x8, addend: 0x0, symName: __ZNSt3__117__compressed_pairImNS_22__unordered_map_hasherINS_12basic_stringIcNS_11char_traitsIcEENS_9allocatorIcEEEENS_17__hash_value_typeIS7_P9InstanceGEENS_4hashIS7_EENS_8equal_toIS7_EELb1EEEEC2B8ue170006IiNS_18__default_init_tagEEEOT_OT0_, symObjAddr: 0xFCF4, symBinAddr: 0x1000114E0, symSize: 0x40 }
  - { offsetInCU: 0x32872, offset: 0x32872, size: 0x8, addend: 0x0, symName: __ZNSt3__122__compressed_pair_elemINS_22__unordered_map_hasherINS_12basic_stringIcNS_11char_traitsIcEENS_9allocatorIcEEEENS_17__hash_value_typeIS7_P9InstanceGEENS_4hashIS7_EENS_8equal_toIS7_EELb1EEELi1ELb1EEC2B8ue170006ENS_18__default_init_tagE, symObjAddr: 0xFD34, symBinAddr: 0x100011520, symSize: 0x2C }
  - { offsetInCU: 0x328A7, offset: 0x328A7, size: 0x8, addend: 0x0, symName: __ZNSt3__122__unordered_map_hasherINS_12basic_stringIcNS_11char_traitsIcEENS_9allocatorIcEEEENS_17__hash_value_typeIS6_P9InstanceGEENS_4hashIS6_EENS_8equal_toIS6_EELb1EEC2B8ue170006Ev, symObjAddr: 0xFD60, symBinAddr: 0x10001154C, symSize: 0x14 }
  - { offsetInCU: 0x328D1, offset: 0x328D1, size: 0x8, addend: 0x0, symName: __ZNSt3__117__compressed_pairIfNS_21__unordered_map_equalINS_12basic_stringIcNS_11char_traitsIcEENS_9allocatorIcEEEENS_17__hash_value_typeIS7_P9InstanceGEENS_8equal_toIS7_EENS_4hashIS7_EELb1EEEEC2B8ue170006IfNS_18__default_init_tagEEEOT_OT0_, symObjAddr: 0xFD74, symBinAddr: 0x100011560, symSize: 0x40 }
  - { offsetInCU: 0x32929, offset: 0x32929, size: 0x8, addend: 0x0, symName: __ZNSt3__122__compressed_pair_elemINS_21__unordered_map_equalINS_12basic_stringIcNS_11char_traitsIcEENS_9allocatorIcEEEENS_17__hash_value_typeIS7_P9InstanceGEENS_8equal_toIS7_EENS_4hashIS7_EELb1EEELi1ELb1EEC2B8ue170006ENS_18__default_init_tagE, symObjAddr: 0xFDB4, symBinAddr: 0x1000115A0, symSize: 0x2C }
  - { offsetInCU: 0x3295E, offset: 0x3295E, size: 0x8, addend: 0x0, symName: __ZNSt3__121__unordered_map_equalINS_12basic_stringIcNS_11char_traitsIcEENS_9allocatorIcEEEENS_17__hash_value_typeIS6_P9InstanceGEENS_8equal_toIS6_EENS_4hashIS6_EELb1EEC2B8ue170006Ev, symObjAddr: 0xFDE0, symBinAddr: 0x1000115CC, symSize: 0x14 }
  - { offsetInCU: 0x32988, offset: 0x32988, size: 0x8, addend: 0x0, symName: __ZNSt3__113unordered_mapINS_12basic_stringIcNS_11char_traitsIcEENS_9allocatorIcEEEEP9InstanceGNS_4hashIS6_EENS_8equal_toIS6_EENS4_INS_4pairIKS6_S8_EEEEED2B8ue170006Ev, symObjAddr: 0xFDF4, symBinAddr: 0x1000115E0, symSize: 0x2C }
  - { offsetInCU: 0x329B2, offset: 0x329B2, size: 0x8, addend: 0x0, symName: __ZNSt3__112__hash_tableINS_17__hash_value_typeINS_12basic_stringIcNS_11char_traitsIcEENS_9allocatorIcEEEEP9InstanceGEENS_22__unordered_map_hasherIS7_SA_NS_4hashIS7_EENS_8equal_toIS7_EELb1EEENS_21__unordered_map_equalIS7_SA_SF_SD_Lb1EEENS5_ISA_EEED1Ev, symObjAddr: 0xFE20, symBinAddr: 0x10001160C, symSize: 0x2C }
  - { offsetInCU: 0x329DE, offset: 0x329DE, size: 0x8, addend: 0x0, symName: __ZNSt3__112__hash_tableINS_17__hash_value_typeINS_12basic_stringIcNS_11char_traitsIcEENS_9allocatorIcEEEEP9InstanceGEENS_22__unordered_map_hasherIS7_SA_NS_4hashIS7_EENS_8equal_toIS7_EELb1EEENS_21__unordered_map_equalIS7_SA_SF_SD_Lb1EEENS5_ISA_EEED2Ev, symObjAddr: 0xFE4C, symBinAddr: 0x100011638, symSize: 0x48 }
  - { offsetInCU: 0x32A0A, offset: 0x32A0A, size: 0x8, addend: 0x0, symName: __ZNSt3__112__hash_tableINS_17__hash_value_typeINS_12basic_stringIcNS_11char_traitsIcEENS_9allocatorIcEEEEP9InstanceGEENS_22__unordered_map_hasherIS7_SA_NS_4hashIS7_EENS_8equal_toIS7_EELb1EEENS_21__unordered_map_equalIS7_SA_SF_SD_Lb1EEENS5_ISA_EEE17__deallocate_nodeEPNS_16__hash_node_baseIPNS_11__hash_nodeISA_PvEEEE, symObjAddr: 0xFE94, symBinAddr: 0x100011680, symSize: 0xA8 }
  - { offsetInCU: 0x32A74, offset: 0x32A74, size: 0x8, addend: 0x0, symName: __ZNSt3__117__compressed_pairINS_16__hash_node_baseIPNS_11__hash_nodeINS_17__hash_value_typeINS_12basic_stringIcNS_11char_traitsIcEENS_9allocatorIcEEEEP9InstanceGEEPvEEEENS7_ISE_EEE5firstB8ue170006Ev, symObjAddr: 0xFF3C, symBinAddr: 0x100011728, symSize: 0x24 }
  - { offsetInCU: 0x32A9A, offset: 0x32A9A, size: 0x8, addend: 0x0, symName: __ZNSt3__110unique_ptrIA_PNS_16__hash_node_baseIPNS_11__hash_nodeINS_17__hash_value_typeINS_12basic_stringIcNS_11char_traitsIcEENS_9allocatorIcEEEEP9InstanceGEEPvEEEENS_25__bucket_list_deallocatorINS7_ISH_EEEEED1B8ue170006Ev, symObjAddr: 0xFF60, symBinAddr: 0x10001174C, symSize: 0x2C }
  - { offsetInCU: 0x32AC4, offset: 0x32AC4, size: 0x8, addend: 0x0, symName: __ZNSt3__112__hash_tableINS_17__hash_value_typeINS_12basic_stringIcNS_11char_traitsIcEENS_9allocatorIcEEEEP9InstanceGEENS_22__unordered_map_hasherIS7_SA_NS_4hashIS7_EENS_8equal_toIS7_EELb1EEENS_21__unordered_map_equalIS7_SA_SF_SD_Lb1EEENS5_ISA_EEE12__node_allocB8ue170006Ev, symObjAddr: 0xFF8C, symBinAddr: 0x100011778, symSize: 0x28 }
  - { offsetInCU: 0x32AEA, offset: 0x32AEA, size: 0x8, addend: 0x0, symName: __ZNSt3__116__hash_node_baseIPNS_11__hash_nodeINS_17__hash_value_typeINS_12basic_stringIcNS_11char_traitsIcEENS_9allocatorIcEEEEP9InstanceGEEPvEEE8__upcastB8ue170006Ev, symObjAddr: 0xFFB4, symBinAddr: 0x1000117A0, symSize: 0x24 }
  - { offsetInCU: 0x32B10, offset: 0x32B10, size: 0x8, addend: 0x0, symName: __ZNSt3__116allocator_traitsINS_9allocatorINS_11__hash_nodeINS_17__hash_value_typeINS_12basic_stringIcNS_11char_traitsIcEENS1_IcEEEEP9InstanceGEEPvEEEEE7destroyB8ue170006INS_4pairIKS8_SA_EEvvEEvRSE_PT_, symObjAddr: 0xFFD8, symBinAddr: 0x1000117C4, symSize: 0x28 }
  - { offsetInCU: 0x32B4B, offset: 0x32B4B, size: 0x8, addend: 0x0, symName: __ZNSt3__122__hash_key_value_typesINS_17__hash_value_typeINS_12basic_stringIcNS_11char_traitsIcEENS_9allocatorIcEEEEP9InstanceGEEE9__get_ptrB8ue170006ERSA_, symObjAddr: 0x10000, symBinAddr: 0x1000117EC, symSize: 0x24 }
  - { offsetInCU: 0x32B6E, offset: 0x32B6E, size: 0x8, addend: 0x0, symName: __ZNSt3__116allocator_traitsINS_9allocatorINS_11__hash_nodeINS_17__hash_value_typeINS_12basic_stringIcNS_11char_traitsIcEENS1_IcEEEEP9InstanceGEEPvEEEEE10deallocateB8ue170006ERSE_PSD_m, symObjAddr: 0x10024, symBinAddr: 0x100011810, symSize: 0x34 }
  - { offsetInCU: 0x32BB0, offset: 0x32BB0, size: 0x8, addend: 0x0, symName: __ZNSt3__117__compressed_pairINS_16__hash_node_baseIPNS_11__hash_nodeINS_17__hash_value_typeINS_12basic_stringIcNS_11char_traitsIcEENS_9allocatorIcEEEEP9InstanceGEEPvEEEENS7_ISE_EEE6secondB8ue170006Ev, symObjAddr: 0x10058, symBinAddr: 0x100011844, symSize: 0x24 }
  - { offsetInCU: 0x32BD6, offset: 0x32BD6, size: 0x8, addend: 0x0, symName: __ZNSt3__122__compressed_pair_elemINS_9allocatorINS_11__hash_nodeINS_17__hash_value_typeINS_12basic_stringIcNS_11char_traitsIcEENS1_IcEEEEP9InstanceGEEPvEEEELi1ELb1EE5__getB8ue170006Ev, symObjAddr: 0x1007C, symBinAddr: 0x100011868, symSize: 0x14 }
  - { offsetInCU: 0x32BFC, offset: 0x32BFC, size: 0x8, addend: 0x0, symName: __ZNSt3__114pointer_traitsIPNS_16__hash_node_baseIPNS_11__hash_nodeINS_17__hash_value_typeINS_12basic_stringIcNS_11char_traitsIcEENS_9allocatorIcEEEEP9InstanceGEEPvEEEEE10pointer_toB8ue170006ERSG_, symObjAddr: 0x10090, symBinAddr: 0x10001187C, symSize: 0x14 }
  - { offsetInCU: 0x32C1F, offset: 0x32C1F, size: 0x8, addend: 0x0, symName: __ZNSt3__14pairIKNS_12basic_stringIcNS_11char_traitsIcEENS_9allocatorIcEEEEP9InstanceGED1Ev, symObjAddr: 0x100A4, symBinAddr: 0x100011890, symSize: 0x2C }
  - { offsetInCU: 0x32C4B, offset: 0x32C4B, size: 0x8, addend: 0x0, symName: __ZNSt3__14pairIKNS_12basic_stringIcNS_11char_traitsIcEENS_9allocatorIcEEEEP9InstanceGED2Ev, symObjAddr: 0x100D0, symBinAddr: 0x1000118BC, symSize: 0x2C }
  - { offsetInCU: 0x32C77, offset: 0x32C77, size: 0x8, addend: 0x0, symName: __ZNSt3__117__hash_value_typeINS_12basic_stringIcNS_11char_traitsIcEENS_9allocatorIcEEEEP9InstanceGE11__get_valueB8ue170006Ev, symObjAddr: 0x100FC, symBinAddr: 0x1000118E8, symSize: 0x24 }
  - { offsetInCU: 0x32C9D, offset: 0x32C9D, size: 0x8, addend: 0x0, symName: __ZNSt3__19allocatorINS_11__hash_nodeINS_17__hash_value_typeINS_12basic_stringIcNS_11char_traitsIcEENS0_IcEEEEP9InstanceGEEPvEEE10deallocateB8ue170006EPSC_m, symObjAddr: 0x10158, symBinAddr: 0x100011944, symSize: 0x44 }
  - { offsetInCU: 0x32CDF, offset: 0x32CDF, size: 0x8, addend: 0x0, symName: __ZNSt3__122__compressed_pair_elemINS_16__hash_node_baseIPNS_11__hash_nodeINS_17__hash_value_typeINS_12basic_stringIcNS_11char_traitsIcEENS_9allocatorIcEEEEP9InstanceGEEPvEEEELi0ELb0EE5__getB8ue170006Ev, symObjAddr: 0x1019C, symBinAddr: 0x100011988, symSize: 0x14 }
  - { offsetInCU: 0x32D05, offset: 0x32D05, size: 0x8, addend: 0x0, symName: __ZNSt3__110unique_ptrIA_PNS_16__hash_node_baseIPNS_11__hash_nodeINS_17__hash_value_typeINS_12basic_stringIcNS_11char_traitsIcEENS_9allocatorIcEEEEP9InstanceGEEPvEEEENS_25__bucket_list_deallocatorINS7_ISH_EEEEED2B8ue170006Ev, symObjAddr: 0x101B0, symBinAddr: 0x10001199C, symSize: 0x30 }
  - { offsetInCU: 0x32D2F, offset: 0x32D2F, size: 0x8, addend: 0x0, symName: __ZNSt3__110unique_ptrIA_PNS_16__hash_node_baseIPNS_11__hash_nodeINS_17__hash_value_typeINS_12basic_stringIcNS_11char_traitsIcEENS_9allocatorIcEEEEP9InstanceGEEPvEEEENS_25__bucket_list_deallocatorINS7_ISH_EEEEE5resetB8ue170006EDn, symObjAddr: 0x101E0, symBinAddr: 0x1000119CC, symSize: 0x6C }
  - { offsetInCU: 0x32D70, offset: 0x32D70, size: 0x8, addend: 0x0, symName: __ZNSt3__117__compressed_pairIPPNS_16__hash_node_baseIPNS_11__hash_nodeINS_17__hash_value_typeINS_12basic_stringIcNS_11char_traitsIcEENS_9allocatorIcEEEEP9InstanceGEEPvEEEENS_25__bucket_list_deallocatorINS7_ISH_EEEEE5firstB8ue170006Ev, symObjAddr: 0x1024C, symBinAddr: 0x100011A38, symSize: 0x24 }
  - { offsetInCU: 0x32D96, offset: 0x32D96, size: 0x8, addend: 0x0, symName: __ZNSt3__117__compressed_pairIPPNS_16__hash_node_baseIPNS_11__hash_nodeINS_17__hash_value_typeINS_12basic_stringIcNS_11char_traitsIcEENS_9allocatorIcEEEEP9InstanceGEEPvEEEENS_25__bucket_list_deallocatorINS7_ISH_EEEEE6secondB8ue170006Ev, symObjAddr: 0x10270, symBinAddr: 0x100011A5C, symSize: 0x28 }
  - { offsetInCU: 0x32DBC, offset: 0x32DBC, size: 0x8, addend: 0x0, symName: __ZNSt3__125__bucket_list_deallocatorINS_9allocatorIPNS_16__hash_node_baseIPNS_11__hash_nodeINS_17__hash_value_typeINS_12basic_stringIcNS_11char_traitsIcEENS1_IcEEEEP9InstanceGEEPvEEEEEEEclB8ue170006EPSH_, symObjAddr: 0x10298, symBinAddr: 0x100011A84, symSize: 0x58 }
  - { offsetInCU: 0x32DF1, offset: 0x32DF1, size: 0x8, addend: 0x0, symName: __ZNSt3__122__compressed_pair_elemIPPNS_16__hash_node_baseIPNS_11__hash_nodeINS_17__hash_value_typeINS_12basic_stringIcNS_11char_traitsIcEENS_9allocatorIcEEEEP9InstanceGEEPvEEEELi0ELb0EE5__getB8ue170006Ev, symObjAddr: 0x102F0, symBinAddr: 0x100011ADC, symSize: 0x14 }
  - { offsetInCU: 0x32E17, offset: 0x32E17, size: 0x8, addend: 0x0, symName: __ZNSt3__122__compressed_pair_elemINS_25__bucket_list_deallocatorINS_9allocatorIPNS_16__hash_node_baseIPNS_11__hash_nodeINS_17__hash_value_typeINS_12basic_stringIcNS_11char_traitsIcEENS2_IcEEEEP9InstanceGEEPvEEEEEEEELi1ELb0EE5__getB8ue170006Ev, symObjAddr: 0x10304, symBinAddr: 0x100011AF0, symSize: 0x14 }
  - { offsetInCU: 0x32E3D, offset: 0x32E3D, size: 0x8, addend: 0x0, symName: __ZNSt3__116allocator_traitsINS_9allocatorIPNS_16__hash_node_baseIPNS_11__hash_nodeINS_17__hash_value_typeINS_12basic_stringIcNS_11char_traitsIcEENS1_IcEEEEP9InstanceGEEPvEEEEEEE10deallocateB8ue170006ERSI_PSH_m, symObjAddr: 0x10318, symBinAddr: 0x100011B04, symSize: 0x34 }
  - { offsetInCU: 0x32E7F, offset: 0x32E7F, size: 0x8, addend: 0x0, symName: __ZNSt3__125__bucket_list_deallocatorINS_9allocatorIPNS_16__hash_node_baseIPNS_11__hash_nodeINS_17__hash_value_typeINS_12basic_stringIcNS_11char_traitsIcEENS1_IcEEEEP9InstanceGEEPvEEEEEEE7__allocB8ue170006Ev, symObjAddr: 0x1034C, symBinAddr: 0x100011B38, symSize: 0x24 }
  - { offsetInCU: 0x32EA5, offset: 0x32EA5, size: 0x8, addend: 0x0, symName: __ZNSt3__125__bucket_list_deallocatorINS_9allocatorIPNS_16__hash_node_baseIPNS_11__hash_nodeINS_17__hash_value_typeINS_12basic_stringIcNS_11char_traitsIcEENS1_IcEEEEP9InstanceGEEPvEEEEEEE4sizeB8ue170006Ev, symObjAddr: 0x10370, symBinAddr: 0x100011B5C, symSize: 0x24 }
  - { offsetInCU: 0x32ECB, offset: 0x32ECB, size: 0x8, addend: 0x0, symName: __ZNSt3__19allocatorIPNS_16__hash_node_baseIPNS_11__hash_nodeINS_17__hash_value_typeINS_12basic_stringIcNS_11char_traitsIcEENS0_IcEEEEP9InstanceGEEPvEEEEE10deallocateB8ue170006EPSG_m, symObjAddr: 0x10394, symBinAddr: 0x100011B80, symSize: 0x40 }
  - { offsetInCU: 0x32F0D, offset: 0x32F0D, size: 0x8, addend: 0x0, symName: __ZNSt3__117__compressed_pairImNS_9allocatorIPNS_16__hash_node_baseIPNS_11__hash_nodeINS_17__hash_value_typeINS_12basic_stringIcNS_11char_traitsIcEENS1_IcEEEEP9InstanceGEEPvEEEEEEE6secondB8ue170006Ev, symObjAddr: 0x103D4, symBinAddr: 0x100011BC0, symSize: 0x24 }
  - { offsetInCU: 0x32F33, offset: 0x32F33, size: 0x8, addend: 0x0, symName: __ZNSt3__122__compressed_pair_elemINS_9allocatorIPNS_16__hash_node_baseIPNS_11__hash_nodeINS_17__hash_value_typeINS_12basic_stringIcNS_11char_traitsIcEENS1_IcEEEEP9InstanceGEEPvEEEEEELi1ELb1EE5__getB8ue170006Ev, symObjAddr: 0x103F8, symBinAddr: 0x100011BE4, symSize: 0x14 }
  - { offsetInCU: 0x32F59, offset: 0x32F59, size: 0x8, addend: 0x0, symName: __ZNSt3__117__compressed_pairImNS_9allocatorIPNS_16__hash_node_baseIPNS_11__hash_nodeINS_17__hash_value_typeINS_12basic_stringIcNS_11char_traitsIcEENS1_IcEEEEP9InstanceGEEPvEEEEEEE5firstB8ue170006Ev, symObjAddr: 0x1040C, symBinAddr: 0x100011BF8, symSize: 0x24 }
  - { offsetInCU: 0x32F7F, offset: 0x32F7F, size: 0x8, addend: 0x0, symName: __ZNSt3__113unordered_mapINS_12basic_stringIcNS_11char_traitsIcEENS_9allocatorIcEEEEP3NetNS_4hashIS6_EENS_8equal_toIS6_EENS4_INS_4pairIKS6_S8_EEEEEC2B8ue170006Ev, symObjAddr: 0x10430, symBinAddr: 0x100011C1C, symSize: 0x2C }
  - { offsetInCU: 0x32FA9, offset: 0x32FA9, size: 0x8, addend: 0x0, symName: __ZNSt3__112__hash_tableINS_17__hash_value_typeINS_12basic_stringIcNS_11char_traitsIcEENS_9allocatorIcEEEEP3NetEENS_22__unordered_map_hasherIS7_SA_NS_4hashIS7_EENS_8equal_toIS7_EELb1EEENS_21__unordered_map_equalIS7_SA_SF_SD_Lb1EEENS5_ISA_EEEC1Ev, symObjAddr: 0x1045C, symBinAddr: 0x100011C48, symSize: 0x2C }
  - { offsetInCU: 0x32FD5, offset: 0x32FD5, size: 0x8, addend: 0x0, symName: __ZNSt3__112__hash_tableINS_17__hash_value_typeINS_12basic_stringIcNS_11char_traitsIcEENS_9allocatorIcEEEEP3NetEENS_22__unordered_map_hasherIS7_SA_NS_4hashIS7_EENS_8equal_toIS7_EELb1EEENS_21__unordered_map_equalIS7_SA_SF_SD_Lb1EEENS5_ISA_EEEC2Ev, symObjAddr: 0x10488, symBinAddr: 0x100011C74, symSize: 0x7C }
  - { offsetInCU: 0x33001, offset: 0x33001, size: 0x8, addend: 0x0, symName: __ZNSt3__110unique_ptrIA_PNS_16__hash_node_baseIPNS_11__hash_nodeINS_17__hash_value_typeINS_12basic_stringIcNS_11char_traitsIcEENS_9allocatorIcEEEEP3NetEEPvEEEENS_25__bucket_list_deallocatorINS7_ISH_EEEEEC1B8ue170006ILb1EvEEv, symObjAddr: 0x10504, symBinAddr: 0x100011CF0, symSize: 0x2C }
  - { offsetInCU: 0x33036, offset: 0x33036, size: 0x8, addend: 0x0, symName: __ZNSt3__117__compressed_pairINS_16__hash_node_baseIPNS_11__hash_nodeINS_17__hash_value_typeINS_12basic_stringIcNS_11char_traitsIcEENS_9allocatorIcEEEEP3NetEEPvEEEENS7_ISE_EEEC1B8ue170006ILb1EvEEv, symObjAddr: 0x10530, symBinAddr: 0x100011D1C, symSize: 0x2C }
  - { offsetInCU: 0x3306B, offset: 0x3306B, size: 0x8, addend: 0x0, symName: __ZNSt3__117__compressed_pairImNS_22__unordered_map_hasherINS_12basic_stringIcNS_11char_traitsIcEENS_9allocatorIcEEEENS_17__hash_value_typeIS7_P3NetEENS_4hashIS7_EENS_8equal_toIS7_EELb1EEEEC1B8ue170006IiNS_18__default_init_tagEEEOT_OT0_, symObjAddr: 0x1055C, symBinAddr: 0x100011D48, symSize: 0x3C }
  - { offsetInCU: 0x330C3, offset: 0x330C3, size: 0x8, addend: 0x0, symName: __ZNSt3__117__compressed_pairIfNS_21__unordered_map_equalINS_12basic_stringIcNS_11char_traitsIcEENS_9allocatorIcEEEENS_17__hash_value_typeIS7_P3NetEENS_8equal_toIS7_EENS_4hashIS7_EELb1EEEEC1B8ue170006IfNS_18__default_init_tagEEEOT_OT0_, symObjAddr: 0x10598, symBinAddr: 0x100011D84, symSize: 0x3C }
  - { offsetInCU: 0x3311B, offset: 0x3311B, size: 0x8, addend: 0x0, symName: __ZNSt3__110unique_ptrIA_PNS_16__hash_node_baseIPNS_11__hash_nodeINS_17__hash_value_typeINS_12basic_stringIcNS_11char_traitsIcEENS_9allocatorIcEEEEP3NetEEPvEEEENS_25__bucket_list_deallocatorINS7_ISH_EEEEEC2B8ue170006ILb1EvEEv, symObjAddr: 0x105D4, symBinAddr: 0x100011DC0, symSize: 0x3C }
  - { offsetInCU: 0x33150, offset: 0x33150, size: 0x8, addend: 0x0, symName: __ZNSt3__117__compressed_pairIPPNS_16__hash_node_baseIPNS_11__hash_nodeINS_17__hash_value_typeINS_12basic_stringIcNS_11char_traitsIcEENS_9allocatorIcEEEEP3NetEEPvEEEENS_25__bucket_list_deallocatorINS7_ISH_EEEEEC1B8ue170006INS_16__value_init_tagESO_EEOT_OT0_, symObjAddr: 0x10610, symBinAddr: 0x100011DFC, symSize: 0x3C }
  - { offsetInCU: 0x331A8, offset: 0x331A8, size: 0x8, addend: 0x0, symName: __ZNSt3__117__compressed_pairIPPNS_16__hash_node_baseIPNS_11__hash_nodeINS_17__hash_value_typeINS_12basic_stringIcNS_11char_traitsIcEENS_9allocatorIcEEEEP3NetEEPvEEEENS_25__bucket_list_deallocatorINS7_ISH_EEEEEC2B8ue170006INS_16__value_init_tagESO_EEOT_OT0_, symObjAddr: 0x1064C, symBinAddr: 0x100011E38, symSize: 0x40 }
  - { offsetInCU: 0x33200, offset: 0x33200, size: 0x8, addend: 0x0, symName: __ZNSt3__122__compressed_pair_elemIPPNS_16__hash_node_baseIPNS_11__hash_nodeINS_17__hash_value_typeINS_12basic_stringIcNS_11char_traitsIcEENS_9allocatorIcEEEEP3NetEEPvEEEELi0ELb0EEC2B8ue170006ENS_16__value_init_tagE, symObjAddr: 0x1068C, symBinAddr: 0x100011E78, symSize: 0x18 }
  - { offsetInCU: 0x33235, offset: 0x33235, size: 0x8, addend: 0x0, symName: __ZNSt3__122__compressed_pair_elemINS_25__bucket_list_deallocatorINS_9allocatorIPNS_16__hash_node_baseIPNS_11__hash_nodeINS_17__hash_value_typeINS_12basic_stringIcNS_11char_traitsIcEENS2_IcEEEEP3NetEEPvEEEEEEEELi1ELb0EEC2B8ue170006ENS_16__value_init_tagE, symObjAddr: 0x106A4, symBinAddr: 0x100011E90, symSize: 0x2C }
  - { offsetInCU: 0x3326A, offset: 0x3326A, size: 0x8, addend: 0x0, symName: __ZNSt3__125__bucket_list_deallocatorINS_9allocatorIPNS_16__hash_node_baseIPNS_11__hash_nodeINS_17__hash_value_typeINS_12basic_stringIcNS_11char_traitsIcEENS1_IcEEEEP3NetEEPvEEEEEEEC1B8ue170006Ev, symObjAddr: 0x106D0, symBinAddr: 0x100011EBC, symSize: 0x2C }
  - { offsetInCU: 0x33294, offset: 0x33294, size: 0x8, addend: 0x0, symName: __ZNSt3__125__bucket_list_deallocatorINS_9allocatorIPNS_16__hash_node_baseIPNS_11__hash_nodeINS_17__hash_value_typeINS_12basic_stringIcNS_11char_traitsIcEENS1_IcEEEEP3NetEEPvEEEEEEEC2B8ue170006Ev, symObjAddr: 0x106FC, symBinAddr: 0x100011EE8, symSize: 0x40 }
  - { offsetInCU: 0x332BE, offset: 0x332BE, size: 0x8, addend: 0x0, symName: __ZNSt3__117__compressed_pairImNS_9allocatorIPNS_16__hash_node_baseIPNS_11__hash_nodeINS_17__hash_value_typeINS_12basic_stringIcNS_11char_traitsIcEENS1_IcEEEEP3NetEEPvEEEEEEEC1B8ue170006IiNS_18__default_init_tagEEEOT_OT0_, symObjAddr: 0x1073C, symBinAddr: 0x100011F28, symSize: 0x3C }
  - { offsetInCU: 0x33316, offset: 0x33316, size: 0x8, addend: 0x0, symName: __ZNSt3__117__compressed_pairImNS_9allocatorIPNS_16__hash_node_baseIPNS_11__hash_nodeINS_17__hash_value_typeINS_12basic_stringIcNS_11char_traitsIcEENS1_IcEEEEP3NetEEPvEEEEEEEC2B8ue170006IiNS_18__default_init_tagEEEOT_OT0_, symObjAddr: 0x10778, symBinAddr: 0x100011F64, symSize: 0x40 }
  - { offsetInCU: 0x3336E, offset: 0x3336E, size: 0x8, addend: 0x0, symName: __ZNSt3__122__compressed_pair_elemINS_9allocatorIPNS_16__hash_node_baseIPNS_11__hash_nodeINS_17__hash_value_typeINS_12basic_stringIcNS_11char_traitsIcEENS1_IcEEEEP3NetEEPvEEEEEELi1ELb1EEC2B8ue170006ENS_18__default_init_tagE, symObjAddr: 0x107B8, symBinAddr: 0x100011FA4, symSize: 0x2C }
  - { offsetInCU: 0x333A3, offset: 0x333A3, size: 0x8, addend: 0x0, symName: __ZNSt3__19allocatorIPNS_16__hash_node_baseIPNS_11__hash_nodeINS_17__hash_value_typeINS_12basic_stringIcNS_11char_traitsIcEENS0_IcEEEEP3NetEEPvEEEEEC2B8ue170006Ev, symObjAddr: 0x107E4, symBinAddr: 0x100011FD0, symSize: 0x2C }
  - { offsetInCU: 0x333CD, offset: 0x333CD, size: 0x8, addend: 0x0, symName: __ZNSt3__116__non_trivial_ifILb1ENS_9allocatorIPNS_16__hash_node_baseIPNS_11__hash_nodeINS_17__hash_value_typeINS_12basic_stringIcNS_11char_traitsIcEENS1_IcEEEEP3NetEEPvEEEEEEEC2B8ue170006Ev, symObjAddr: 0x10810, symBinAddr: 0x100011FFC, symSize: 0x14 }
  - { offsetInCU: 0x333F7, offset: 0x333F7, size: 0x8, addend: 0x0, symName: __ZNSt3__117__compressed_pairINS_16__hash_node_baseIPNS_11__hash_nodeINS_17__hash_value_typeINS_12basic_stringIcNS_11char_traitsIcEENS_9allocatorIcEEEEP3NetEEPvEEEENS7_ISE_EEEC2B8ue170006ILb1EvEEv, symObjAddr: 0x10824, symBinAddr: 0x100012010, symSize: 0x34 }
  - { offsetInCU: 0x3342C, offset: 0x3342C, size: 0x8, addend: 0x0, symName: __ZNSt3__122__compressed_pair_elemINS_16__hash_node_baseIPNS_11__hash_nodeINS_17__hash_value_typeINS_12basic_stringIcNS_11char_traitsIcEENS_9allocatorIcEEEEP3NetEEPvEEEELi0ELb0EEC2B8ue170006ENS_16__value_init_tagE, symObjAddr: 0x10858, symBinAddr: 0x100012044, symSize: 0x2C }
  - { offsetInCU: 0x33461, offset: 0x33461, size: 0x8, addend: 0x0, symName: __ZNSt3__122__compressed_pair_elemINS_9allocatorINS_11__hash_nodeINS_17__hash_value_typeINS_12basic_stringIcNS_11char_traitsIcEENS1_IcEEEEP3NetEEPvEEEELi1ELb1EEC2B8ue170006ENS_16__value_init_tagE, symObjAddr: 0x10884, symBinAddr: 0x100012070, symSize: 0x2C }
  - { offsetInCU: 0x33496, offset: 0x33496, size: 0x8, addend: 0x0, symName: __ZNSt3__116__hash_node_baseIPNS_11__hash_nodeINS_17__hash_value_typeINS_12basic_stringIcNS_11char_traitsIcEENS_9allocatorIcEEEEP3NetEEPvEEEC1B8ue170006Ev, symObjAddr: 0x108B0, symBinAddr: 0x10001209C, symSize: 0x2C }
  - { offsetInCU: 0x334C0, offset: 0x334C0, size: 0x8, addend: 0x0, symName: __ZNSt3__116__hash_node_baseIPNS_11__hash_nodeINS_17__hash_value_typeINS_12basic_stringIcNS_11char_traitsIcEENS_9allocatorIcEEEEP3NetEEPvEEEC2B8ue170006Ev, symObjAddr: 0x108DC, symBinAddr: 0x1000120C8, symSize: 0x18 }
  - { offsetInCU: 0x334EA, offset: 0x334EA, size: 0x8, addend: 0x0, symName: __ZNSt3__19allocatorINS_11__hash_nodeINS_17__hash_value_typeINS_12basic_stringIcNS_11char_traitsIcEENS0_IcEEEEP3NetEEPvEEEC2B8ue170006Ev, symObjAddr: 0x108F4, symBinAddr: 0x1000120E0, symSize: 0x2C }
  - { offsetInCU: 0x33514, offset: 0x33514, size: 0x8, addend: 0x0, symName: __ZNSt3__116__non_trivial_ifILb1ENS_9allocatorINS_11__hash_nodeINS_17__hash_value_typeINS_12basic_stringIcNS_11char_traitsIcEENS1_IcEEEEP3NetEEPvEEEEEC2B8ue170006Ev, symObjAddr: 0x10920, symBinAddr: 0x10001210C, symSize: 0x14 }
  - { offsetInCU: 0x3353E, offset: 0x3353E, size: 0x8, addend: 0x0, symName: __ZNSt3__117__compressed_pairImNS_22__unordered_map_hasherINS_12basic_stringIcNS_11char_traitsIcEENS_9allocatorIcEEEENS_17__hash_value_typeIS7_P3NetEENS_4hashIS7_EENS_8equal_toIS7_EELb1EEEEC2B8ue170006IiNS_18__default_init_tagEEEOT_OT0_, symObjAddr: 0x10934, symBinAddr: 0x100012120, symSize: 0x40 }
  - { offsetInCU: 0x33596, offset: 0x33596, size: 0x8, addend: 0x0, symName: __ZNSt3__122__compressed_pair_elemINS_22__unordered_map_hasherINS_12basic_stringIcNS_11char_traitsIcEENS_9allocatorIcEEEENS_17__hash_value_typeIS7_P3NetEENS_4hashIS7_EENS_8equal_toIS7_EELb1EEELi1ELb1EEC2B8ue170006ENS_18__default_init_tagE, symObjAddr: 0x10974, symBinAddr: 0x100012160, symSize: 0x2C }
  - { offsetInCU: 0x335CB, offset: 0x335CB, size: 0x8, addend: 0x0, symName: __ZNSt3__122__unordered_map_hasherINS_12basic_stringIcNS_11char_traitsIcEENS_9allocatorIcEEEENS_17__hash_value_typeIS6_P3NetEENS_4hashIS6_EENS_8equal_toIS6_EELb1EEC2B8ue170006Ev, symObjAddr: 0x109A0, symBinAddr: 0x10001218C, symSize: 0x14 }
  - { offsetInCU: 0x335F5, offset: 0x335F5, size: 0x8, addend: 0x0, symName: __ZNSt3__117__compressed_pairIfNS_21__unordered_map_equalINS_12basic_stringIcNS_11char_traitsIcEENS_9allocatorIcEEEENS_17__hash_value_typeIS7_P3NetEENS_8equal_toIS7_EENS_4hashIS7_EELb1EEEEC2B8ue170006IfNS_18__default_init_tagEEEOT_OT0_, symObjAddr: 0x109B4, symBinAddr: 0x1000121A0, symSize: 0x40 }
  - { offsetInCU: 0x3364D, offset: 0x3364D, size: 0x8, addend: 0x0, symName: __ZNSt3__122__compressed_pair_elemINS_21__unordered_map_equalINS_12basic_stringIcNS_11char_traitsIcEENS_9allocatorIcEEEENS_17__hash_value_typeIS7_P3NetEENS_8equal_toIS7_EENS_4hashIS7_EELb1EEELi1ELb1EEC2B8ue170006ENS_18__default_init_tagE, symObjAddr: 0x109F4, symBinAddr: 0x1000121E0, symSize: 0x2C }
  - { offsetInCU: 0x33682, offset: 0x33682, size: 0x8, addend: 0x0, symName: __ZNSt3__121__unordered_map_equalINS_12basic_stringIcNS_11char_traitsIcEENS_9allocatorIcEEEENS_17__hash_value_typeIS6_P3NetEENS_8equal_toIS6_EENS_4hashIS6_EELb1EEC2B8ue170006Ev, symObjAddr: 0x10A20, symBinAddr: 0x10001220C, symSize: 0x14 }
  - { offsetInCU: 0x336AC, offset: 0x336AC, size: 0x8, addend: 0x0, symName: __ZNSt3__113unordered_mapINS_12basic_stringIcNS_11char_traitsIcEENS_9allocatorIcEEEEP3NetNS_4hashIS6_EENS_8equal_toIS6_EENS4_INS_4pairIKS6_S8_EEEEED2B8ue170006Ev, symObjAddr: 0x10A34, symBinAddr: 0x100012220, symSize: 0x2C }
  - { offsetInCU: 0x336D6, offset: 0x336D6, size: 0x8, addend: 0x0, symName: __ZNSt3__112__hash_tableINS_17__hash_value_typeINS_12basic_stringIcNS_11char_traitsIcEENS_9allocatorIcEEEEP3NetEENS_22__unordered_map_hasherIS7_SA_NS_4hashIS7_EENS_8equal_toIS7_EELb1EEENS_21__unordered_map_equalIS7_SA_SF_SD_Lb1EEENS5_ISA_EEED1Ev, symObjAddr: 0x10A60, symBinAddr: 0x10001224C, symSize: 0x2C }
  - { offsetInCU: 0x33702, offset: 0x33702, size: 0x8, addend: 0x0, symName: __ZNSt3__112__hash_tableINS_17__hash_value_typeINS_12basic_stringIcNS_11char_traitsIcEENS_9allocatorIcEEEEP3NetEENS_22__unordered_map_hasherIS7_SA_NS_4hashIS7_EENS_8equal_toIS7_EELb1EEENS_21__unordered_map_equalIS7_SA_SF_SD_Lb1EEENS5_ISA_EEED2Ev, symObjAddr: 0x10A8C, symBinAddr: 0x100012278, symSize: 0x48 }
  - { offsetInCU: 0x3372E, offset: 0x3372E, size: 0x8, addend: 0x0, symName: __ZNSt3__112__hash_tableINS_17__hash_value_typeINS_12basic_stringIcNS_11char_traitsIcEENS_9allocatorIcEEEEP3NetEENS_22__unordered_map_hasherIS7_SA_NS_4hashIS7_EENS_8equal_toIS7_EELb1EEENS_21__unordered_map_equalIS7_SA_SF_SD_Lb1EEENS5_ISA_EEE17__deallocate_nodeEPNS_16__hash_node_baseIPNS_11__hash_nodeISA_PvEEEE, symObjAddr: 0x10AD4, symBinAddr: 0x1000122C0, symSize: 0xA8 }
  - { offsetInCU: 0x33798, offset: 0x33798, size: 0x8, addend: 0x0, symName: __ZNSt3__117__compressed_pairINS_16__hash_node_baseIPNS_11__hash_nodeINS_17__hash_value_typeINS_12basic_stringIcNS_11char_traitsIcEENS_9allocatorIcEEEEP3NetEEPvEEEENS7_ISE_EEE5firstB8ue170006Ev, symObjAddr: 0x10B7C, symBinAddr: 0x100012368, symSize: 0x24 }
  - { offsetInCU: 0x337BE, offset: 0x337BE, size: 0x8, addend: 0x0, symName: __ZNSt3__110unique_ptrIA_PNS_16__hash_node_baseIPNS_11__hash_nodeINS_17__hash_value_typeINS_12basic_stringIcNS_11char_traitsIcEENS_9allocatorIcEEEEP3NetEEPvEEEENS_25__bucket_list_deallocatorINS7_ISH_EEEEED1B8ue170006Ev, symObjAddr: 0x10BA0, symBinAddr: 0x10001238C, symSize: 0x2C }
  - { offsetInCU: 0x337E8, offset: 0x337E8, size: 0x8, addend: 0x0, symName: __ZNSt3__112__hash_tableINS_17__hash_value_typeINS_12basic_stringIcNS_11char_traitsIcEENS_9allocatorIcEEEEP3NetEENS_22__unordered_map_hasherIS7_SA_NS_4hashIS7_EENS_8equal_toIS7_EELb1EEENS_21__unordered_map_equalIS7_SA_SF_SD_Lb1EEENS5_ISA_EEE12__node_allocB8ue170006Ev, symObjAddr: 0x10BCC, symBinAddr: 0x1000123B8, symSize: 0x28 }
  - { offsetInCU: 0x3380E, offset: 0x3380E, size: 0x8, addend: 0x0, symName: __ZNSt3__116__hash_node_baseIPNS_11__hash_nodeINS_17__hash_value_typeINS_12basic_stringIcNS_11char_traitsIcEENS_9allocatorIcEEEEP3NetEEPvEEE8__upcastB8ue170006Ev, symObjAddr: 0x10BF4, symBinAddr: 0x1000123E0, symSize: 0x24 }
  - { offsetInCU: 0x33834, offset: 0x33834, size: 0x8, addend: 0x0, symName: __ZNSt3__116allocator_traitsINS_9allocatorINS_11__hash_nodeINS_17__hash_value_typeINS_12basic_stringIcNS_11char_traitsIcEENS1_IcEEEEP3NetEEPvEEEEE7destroyB8ue170006INS_4pairIKS8_SA_EEvvEEvRSE_PT_, symObjAddr: 0x10C18, symBinAddr: 0x100012404, symSize: 0x28 }
  - { offsetInCU: 0x3386F, offset: 0x3386F, size: 0x8, addend: 0x0, symName: __ZNSt3__122__hash_key_value_typesINS_17__hash_value_typeINS_12basic_stringIcNS_11char_traitsIcEENS_9allocatorIcEEEEP3NetEEE9__get_ptrB8ue170006ERSA_, symObjAddr: 0x10C40, symBinAddr: 0x10001242C, symSize: 0x24 }
  - { offsetInCU: 0x33892, offset: 0x33892, size: 0x8, addend: 0x0, symName: __ZNSt3__116allocator_traitsINS_9allocatorINS_11__hash_nodeINS_17__hash_value_typeINS_12basic_stringIcNS_11char_traitsIcEENS1_IcEEEEP3NetEEPvEEEEE10deallocateB8ue170006ERSE_PSD_m, symObjAddr: 0x10C64, symBinAddr: 0x100012450, symSize: 0x34 }
  - { offsetInCU: 0x338D4, offset: 0x338D4, size: 0x8, addend: 0x0, symName: __ZNSt3__117__compressed_pairINS_16__hash_node_baseIPNS_11__hash_nodeINS_17__hash_value_typeINS_12basic_stringIcNS_11char_traitsIcEENS_9allocatorIcEEEEP3NetEEPvEEEENS7_ISE_EEE6secondB8ue170006Ev, symObjAddr: 0x10C98, symBinAddr: 0x100012484, symSize: 0x24 }
  - { offsetInCU: 0x338FA, offset: 0x338FA, size: 0x8, addend: 0x0, symName: __ZNSt3__122__compressed_pair_elemINS_9allocatorINS_11__hash_nodeINS_17__hash_value_typeINS_12basic_stringIcNS_11char_traitsIcEENS1_IcEEEEP3NetEEPvEEEELi1ELb1EE5__getB8ue170006Ev, symObjAddr: 0x10CBC, symBinAddr: 0x1000124A8, symSize: 0x14 }
  - { offsetInCU: 0x33920, offset: 0x33920, size: 0x8, addend: 0x0, symName: __ZNSt3__114pointer_traitsIPNS_16__hash_node_baseIPNS_11__hash_nodeINS_17__hash_value_typeINS_12basic_stringIcNS_11char_traitsIcEENS_9allocatorIcEEEEP3NetEEPvEEEEE10pointer_toB8ue170006ERSG_, symObjAddr: 0x10CD0, symBinAddr: 0x1000124BC, symSize: 0x14 }
  - { offsetInCU: 0x33943, offset: 0x33943, size: 0x8, addend: 0x0, symName: __ZNSt3__14pairIKNS_12basic_stringIcNS_11char_traitsIcEENS_9allocatorIcEEEEP3NetED1Ev, symObjAddr: 0x10CE4, symBinAddr: 0x1000124D0, symSize: 0x2C }
  - { offsetInCU: 0x3396F, offset: 0x3396F, size: 0x8, addend: 0x0, symName: __ZNSt3__14pairIKNS_12basic_stringIcNS_11char_traitsIcEENS_9allocatorIcEEEEP3NetED2Ev, symObjAddr: 0x10D10, symBinAddr: 0x1000124FC, symSize: 0x2C }
  - { offsetInCU: 0x3399B, offset: 0x3399B, size: 0x8, addend: 0x0, symName: __ZNSt3__117__hash_value_typeINS_12basic_stringIcNS_11char_traitsIcEENS_9allocatorIcEEEEP3NetE11__get_valueB8ue170006Ev, symObjAddr: 0x10D3C, symBinAddr: 0x100012528, symSize: 0x24 }
  - { offsetInCU: 0x339C1, offset: 0x339C1, size: 0x8, addend: 0x0, symName: __ZNSt3__19allocatorINS_11__hash_nodeINS_17__hash_value_typeINS_12basic_stringIcNS_11char_traitsIcEENS0_IcEEEEP3NetEEPvEEE10deallocateB8ue170006EPSC_m, symObjAddr: 0x10D98, symBinAddr: 0x100012584, symSize: 0x44 }
  - { offsetInCU: 0x33A03, offset: 0x33A03, size: 0x8, addend: 0x0, symName: __ZNSt3__122__compressed_pair_elemINS_16__hash_node_baseIPNS_11__hash_nodeINS_17__hash_value_typeINS_12basic_stringIcNS_11char_traitsIcEENS_9allocatorIcEEEEP3NetEEPvEEEELi0ELb0EE5__getB8ue170006Ev, symObjAddr: 0x10DDC, symBinAddr: 0x1000125C8, symSize: 0x14 }
  - { offsetInCU: 0x33A29, offset: 0x33A29, size: 0x8, addend: 0x0, symName: __ZNSt3__110unique_ptrIA_PNS_16__hash_node_baseIPNS_11__hash_nodeINS_17__hash_value_typeINS_12basic_stringIcNS_11char_traitsIcEENS_9allocatorIcEEEEP3NetEEPvEEEENS_25__bucket_list_deallocatorINS7_ISH_EEEEED2B8ue170006Ev, symObjAddr: 0x10DF0, symBinAddr: 0x1000125DC, symSize: 0x30 }
  - { offsetInCU: 0x33A53, offset: 0x33A53, size: 0x8, addend: 0x0, symName: __ZNSt3__110unique_ptrIA_PNS_16__hash_node_baseIPNS_11__hash_nodeINS_17__hash_value_typeINS_12basic_stringIcNS_11char_traitsIcEENS_9allocatorIcEEEEP3NetEEPvEEEENS_25__bucket_list_deallocatorINS7_ISH_EEEEE5resetB8ue170006EDn, symObjAddr: 0x10E20, symBinAddr: 0x10001260C, symSize: 0x6C }
  - { offsetInCU: 0x33A94, offset: 0x33A94, size: 0x8, addend: 0x0, symName: __ZNSt3__117__compressed_pairIPPNS_16__hash_node_baseIPNS_11__hash_nodeINS_17__hash_value_typeINS_12basic_stringIcNS_11char_traitsIcEENS_9allocatorIcEEEEP3NetEEPvEEEENS_25__bucket_list_deallocatorINS7_ISH_EEEEE5firstB8ue170006Ev, symObjAddr: 0x10E8C, symBinAddr: 0x100012678, symSize: 0x24 }
  - { offsetInCU: 0x33ABA, offset: 0x33ABA, size: 0x8, addend: 0x0, symName: __ZNSt3__117__compressed_pairIPPNS_16__hash_node_baseIPNS_11__hash_nodeINS_17__hash_value_typeINS_12basic_stringIcNS_11char_traitsIcEENS_9allocatorIcEEEEP3NetEEPvEEEENS_25__bucket_list_deallocatorINS7_ISH_EEEEE6secondB8ue170006Ev, symObjAddr: 0x10EB0, symBinAddr: 0x10001269C, symSize: 0x28 }
  - { offsetInCU: 0x33AE0, offset: 0x33AE0, size: 0x8, addend: 0x0, symName: __ZNSt3__125__bucket_list_deallocatorINS_9allocatorIPNS_16__hash_node_baseIPNS_11__hash_nodeINS_17__hash_value_typeINS_12basic_stringIcNS_11char_traitsIcEENS1_IcEEEEP3NetEEPvEEEEEEEclB8ue170006EPSH_, symObjAddr: 0x10ED8, symBinAddr: 0x1000126C4, symSize: 0x58 }
  - { offsetInCU: 0x33B15, offset: 0x33B15, size: 0x8, addend: 0x0, symName: __ZNSt3__122__compressed_pair_elemIPPNS_16__hash_node_baseIPNS_11__hash_nodeINS_17__hash_value_typeINS_12basic_stringIcNS_11char_traitsIcEENS_9allocatorIcEEEEP3NetEEPvEEEELi0ELb0EE5__getB8ue170006Ev, symObjAddr: 0x10F30, symBinAddr: 0x10001271C, symSize: 0x14 }
  - { offsetInCU: 0x33B3B, offset: 0x33B3B, size: 0x8, addend: 0x0, symName: __ZNSt3__122__compressed_pair_elemINS_25__bucket_list_deallocatorINS_9allocatorIPNS_16__hash_node_baseIPNS_11__hash_nodeINS_17__hash_value_typeINS_12basic_stringIcNS_11char_traitsIcEENS2_IcEEEEP3NetEEPvEEEEEEEELi1ELb0EE5__getB8ue170006Ev, symObjAddr: 0x10F44, symBinAddr: 0x100012730, symSize: 0x14 }
  - { offsetInCU: 0x33B61, offset: 0x33B61, size: 0x8, addend: 0x0, symName: __ZNSt3__116allocator_traitsINS_9allocatorIPNS_16__hash_node_baseIPNS_11__hash_nodeINS_17__hash_value_typeINS_12basic_stringIcNS_11char_traitsIcEENS1_IcEEEEP3NetEEPvEEEEEEE10deallocateB8ue170006ERSI_PSH_m, symObjAddr: 0x10F58, symBinAddr: 0x100012744, symSize: 0x34 }
  - { offsetInCU: 0x33BA3, offset: 0x33BA3, size: 0x8, addend: 0x0, symName: __ZNSt3__125__bucket_list_deallocatorINS_9allocatorIPNS_16__hash_node_baseIPNS_11__hash_nodeINS_17__hash_value_typeINS_12basic_stringIcNS_11char_traitsIcEENS1_IcEEEEP3NetEEPvEEEEEEE7__allocB8ue170006Ev, symObjAddr: 0x10F8C, symBinAddr: 0x100012778, symSize: 0x24 }
  - { offsetInCU: 0x33BC9, offset: 0x33BC9, size: 0x8, addend: 0x0, symName: __ZNSt3__125__bucket_list_deallocatorINS_9allocatorIPNS_16__hash_node_baseIPNS_11__hash_nodeINS_17__hash_value_typeINS_12basic_stringIcNS_11char_traitsIcEENS1_IcEEEEP3NetEEPvEEEEEEE4sizeB8ue170006Ev, symObjAddr: 0x10FB0, symBinAddr: 0x10001279C, symSize: 0x24 }
  - { offsetInCU: 0x33BEF, offset: 0x33BEF, size: 0x8, addend: 0x0, symName: __ZNSt3__19allocatorIPNS_16__hash_node_baseIPNS_11__hash_nodeINS_17__hash_value_typeINS_12basic_stringIcNS_11char_traitsIcEENS0_IcEEEEP3NetEEPvEEEEE10deallocateB8ue170006EPSG_m, symObjAddr: 0x10FD4, symBinAddr: 0x1000127C0, symSize: 0x40 }
  - { offsetInCU: 0x33C31, offset: 0x33C31, size: 0x8, addend: 0x0, symName: __ZNSt3__117__compressed_pairImNS_9allocatorIPNS_16__hash_node_baseIPNS_11__hash_nodeINS_17__hash_value_typeINS_12basic_stringIcNS_11char_traitsIcEENS1_IcEEEEP3NetEEPvEEEEEEE6secondB8ue170006Ev, symObjAddr: 0x11014, symBinAddr: 0x100012800, symSize: 0x24 }
  - { offsetInCU: 0x33C57, offset: 0x33C57, size: 0x8, addend: 0x0, symName: __ZNSt3__122__compressed_pair_elemINS_9allocatorIPNS_16__hash_node_baseIPNS_11__hash_nodeINS_17__hash_value_typeINS_12basic_stringIcNS_11char_traitsIcEENS1_IcEEEEP3NetEEPvEEEEEELi1ELb1EE5__getB8ue170006Ev, symObjAddr: 0x11038, symBinAddr: 0x100012824, symSize: 0x14 }
  - { offsetInCU: 0x33C7D, offset: 0x33C7D, size: 0x8, addend: 0x0, symName: __ZNSt3__117__compressed_pairImNS_9allocatorIPNS_16__hash_node_baseIPNS_11__hash_nodeINS_17__hash_value_typeINS_12basic_stringIcNS_11char_traitsIcEENS1_IcEEEEP3NetEEPvEEEEEEE5firstB8ue170006Ev, symObjAddr: 0x1104C, symBinAddr: 0x100012838, symSize: 0x24 }
  - { offsetInCU: 0x33CA3, offset: 0x33CA3, size: 0x8, addend: 0x0, symName: __ZNSt3__19basic_iosIcNS_11char_traitsIcEEEC2B8ue170006Ev, symObjAddr: 0x11070, symBinAddr: 0x10001285C, symSize: 0x44 }
  - { offsetInCU: 0x33CCD, offset: 0x33CCD, size: 0x8, addend: 0x0, symName: __ZNSt3__113basic_istreamIcNS_11char_traitsIcEEEC2B8ue170006EPNS_15basic_streambufIcS2_EE, symObjAddr: 0x110B4, symBinAddr: 0x1000128A0, symSize: 0x64 }
  - { offsetInCU: 0x33D12, offset: 0x33D12, size: 0x8, addend: 0x0, symName: __ZNSt3__113basic_filebufIcNS_11char_traitsIcEEE4openERKNS_12basic_stringIcS2_NS_9allocatorIcEEEEj, symObjAddr: 0x11118, symBinAddr: 0x100012904, symSize: 0x44 }
  - { offsetInCU: 0x33D56, offset: 0x33D56, size: 0x8, addend: 0x0, symName: __ZNSt3__18ios_baseC2B8ue170006Ev, symObjAddr: 0x1115C, symBinAddr: 0x100012948, symSize: 0x24 }
  - { offsetInCU: 0x33D80, offset: 0x33D80, size: 0x8, addend: 0x0, symName: __ZNSt3__19basic_iosIcNS_11char_traitsIcEEE4initB8ue170006EPNS_15basic_streambufIcS2_EE, symObjAddr: 0x11180, symBinAddr: 0x10001296C, symSize: 0x44 }
  - { offsetInCU: 0x33DB7, offset: 0x33DB7, size: 0x8, addend: 0x0, symName: __ZNKSt3__112basic_stringIcNS_11char_traitsIcEENS_9allocatorIcEEE5c_strB8ue170006Ev, symObjAddr: 0x111C4, symBinAddr: 0x1000129B0, symSize: 0x24 }
  - { offsetInCU: 0x33DDD, offset: 0x33DDD, size: 0x8, addend: 0x0, symName: __ZNKSt3__113basic_filebufIcNS_11char_traitsIcEEE7is_openEv, symObjAddr: 0x111E8, symBinAddr: 0x1000129D4, symSize: 0x24 }
  - { offsetInCU: 0x33E05, offset: 0x33E05, size: 0x8, addend: 0x0, symName: __ZNKSt3__19basic_iosIcNS_11char_traitsIcEEE4failB8ue170006Ev, symObjAddr: 0x1120C, symBinAddr: 0x1000129F8, symSize: 0x28 }
  - { offsetInCU: 0x33E2B, offset: 0x33E2B, size: 0x8, addend: 0x0, symName: __ZNKSt3__18ios_base4failB8ue170006Ev, symObjAddr: 0x11234, symBinAddr: 0x100012A20, symSize: 0x28 }
  - { offsetInCU: 0x33E53, offset: 0x33E53, size: 0x8, addend: 0x0, symName: __ZNSt3__115basic_stringbufIcNS_11char_traitsIcEENS_9allocatorIcEEEC1B8ue170006ERKNS_12basic_stringIcS2_S4_EEj, symObjAddr: 0x1125C, symBinAddr: 0x100012A48, symSize: 0x3C }
  - { offsetInCU: 0x33E9B, offset: 0x33E9B, size: 0x8, addend: 0x0, symName: __ZNSt3__115basic_stringbufIcNS_11char_traitsIcEENS_9allocatorIcEEEC2B8ue170006ERKNS_12basic_stringIcS2_S4_EEj, symObjAddr: 0x11298, symBinAddr: 0x100012A84, symSize: 0xB4 }
  - { offsetInCU: 0x33EE3, offset: 0x33EE3, size: 0x8, addend: 0x0, symName: __ZNKSt3__112basic_stringIcNS_11char_traitsIcEENS_9allocatorIcEEE13get_allocatorB8ue170006Ev, symObjAddr: 0x1134C, symBinAddr: 0x100012B38, symSize: 0x24 }
  - { offsetInCU: 0x33F09, offset: 0x33F09, size: 0x8, addend: 0x0, symName: __ZNSt3__112basic_stringIcNS_11char_traitsIcEENS_9allocatorIcEEEC1B8ue170006ERKS4_, symObjAddr: 0x11370, symBinAddr: 0x100012B5C, symSize: 0x34 }
  - { offsetInCU: 0x33F42, offset: 0x33F42, size: 0x8, addend: 0x0, symName: __ZNKSt3__112basic_stringIcNS_11char_traitsIcEENS_9allocatorIcEEE7__allocB8ue170006Ev, symObjAddr: 0x113A4, symBinAddr: 0x100012B90, symSize: 0x24 }
  - { offsetInCU: 0x33F68, offset: 0x33F68, size: 0x8, addend: 0x0, symName: __ZNKSt3__117__compressed_pairINS_12basic_stringIcNS_11char_traitsIcEENS_9allocatorIcEEE5__repES5_E6secondB8ue170006Ev, symObjAddr: 0x113C8, symBinAddr: 0x100012BB4, symSize: 0x24 }
  - { offsetInCU: 0x33F8E, offset: 0x33F8E, size: 0x8, addend: 0x0, symName: __ZNKSt3__122__compressed_pair_elemINS_9allocatorIcEELi1ELb1EE5__getB8ue170006Ev, symObjAddr: 0x113EC, symBinAddr: 0x100012BD8, symSize: 0x14 }
  - { offsetInCU: 0x33FB4, offset: 0x33FB4, size: 0x8, addend: 0x0, symName: __ZNSt3__112basic_stringIcNS_11char_traitsIcEENS_9allocatorIcEEEC2B8ue170006ERKS4_, symObjAddr: 0x11400, symBinAddr: 0x100012BEC, symSize: 0x48 }
  - { offsetInCU: 0x33FED, offset: 0x33FED, size: 0x8, addend: 0x0, symName: __ZNSt3__117__compressed_pairINS_12basic_stringIcNS_11char_traitsIcEENS_9allocatorIcEEE5__repES5_EC1B8ue170006INS_18__default_init_tagERKS5_EEOT_OT0_, symObjAddr: 0x11448, symBinAddr: 0x100012C34, symSize: 0x3C }
  - { offsetInCU: 0x34045, offset: 0x34045, size: 0x8, addend: 0x0, symName: __ZNSt3__117__compressed_pairINS_12basic_stringIcNS_11char_traitsIcEENS_9allocatorIcEEE5__repES5_EC2B8ue170006INS_18__default_init_tagERKS5_EEOT_OT0_, symObjAddr: 0x11484, symBinAddr: 0x100012C70, symSize: 0x40 }
  - { offsetInCU: 0x3409D, offset: 0x3409D, size: 0x8, addend: 0x0, symName: __ZNSt3__122__compressed_pair_elemINS_9allocatorIcEELi1ELb1EEC2B8ue170006IRKS2_vEEOT_, symObjAddr: 0x114C4, symBinAddr: 0x100012CB0, symSize: 0x18 }
  - { offsetInCU: 0x340FD, offset: 0x340FD, size: 0x8, addend: 0x0, symName: __ZNKSt3__113basic_istreamIcNS_11char_traitsIcEEE6sentrycvbB8ue170006Ev, symObjAddr: 0x114DC, symBinAddr: 0x100012CC8, symSize: 0x1C }
  - { offsetInCU: 0x34123, offset: 0x34123, size: 0x8, addend: 0x0, symName: __ZNSt3__112basic_stringIcNS_11char_traitsIcEENS_9allocatorIcEEE5clearB8ue170006Ev, symObjAddr: 0x114F8, symBinAddr: 0x100012CE4, symSize: 0x78 }
  - { offsetInCU: 0x3414B, offset: 0x3414B, size: 0x8, addend: 0x0, symName: __ZNKSt3__112basic_stringIcNS_11char_traitsIcEENS_9allocatorIcEEE8max_sizeB8ue170006Ev, symObjAddr: 0x11570, symBinAddr: 0x100012D5C, symSize: 0xAC }
  - { offsetInCU: 0x3419D, offset: 0x3419D, size: 0x8, addend: 0x0, symName: __ZNSt3__114numeric_limitsIlE3maxB8ue170006Ev, symObjAddr: 0x1161C, symBinAddr: 0x100012E08, symSize: 0x14 }
  - { offsetInCU: 0x341B1, offset: 0x341B1, size: 0x8, addend: 0x0, symName: __ZNSt3__115basic_streambufIcNS_11char_traitsIcEEE5sgetcB8ue170006Ev, symObjAddr: 0x11630, symBinAddr: 0x100012E1C, symSize: 0x70 }
  - { offsetInCU: 0x341D7, offset: 0x341D7, size: 0x8, addend: 0x0, symName: __ZNSt3__111char_traitsIcE12to_char_typeB8ue170006Ei, symObjAddr: 0x116A0, symBinAddr: 0x100012E8C, symSize: 0x18 }
  - { offsetInCU: 0x341FA, offset: 0x341FA, size: 0x8, addend: 0x0, symName: __ZNKSt3__15ctypeIcE2isB8ue170006Ejc, symObjAddr: 0x116B8, symBinAddr: 0x100012EA4, symSize: 0x7C }
  - { offsetInCU: 0x3423E, offset: 0x3423E, size: 0x8, addend: 0x0, symName: __ZNSt3__115basic_streambufIcNS_11char_traitsIcEEE6sbumpcB8ue170006Ev, symObjAddr: 0x11734, symBinAddr: 0x100012F20, symSize: 0x78 }
  - { offsetInCU: 0x34264, offset: 0x34264, size: 0x8, addend: 0x0, symName: __ZNSt3__18ios_base18__setstate_nothrowB8ue170006Ej, symObjAddr: 0x117AC, symBinAddr: 0x100012F98, symSize: 0x64 }
  - { offsetInCU: 0x34299, offset: 0x34299, size: 0x8, addend: 0x0, symName: __ZNKSt3__19basic_iosIcNS_11char_traitsIcEEE10exceptionsB8ue170006Ev, symObjAddr: 0x11810, symBinAddr: 0x100012FFC, symSize: 0x24 }
  - { offsetInCU: 0x342BF, offset: 0x342BF, size: 0x8, addend: 0x0, symName: __ZNSt3__111char_traitsIcE6assignB8ue170006ERcRKc, symObjAddr: 0x11834, symBinAddr: 0x100013020, symSize: 0x24 }
  - { offsetInCU: 0x342F0, offset: 0x342F0, size: 0x8, addend: 0x0, symName: __ZNSt3__112basic_stringIcNS_11char_traitsIcEENS_9allocatorIcEEE15__set_long_sizeB8ue170006Em, symObjAddr: 0x11858, symBinAddr: 0x100013044, symSize: 0x38 }
  - { offsetInCU: 0x34325, offset: 0x34325, size: 0x8, addend: 0x0, symName: __ZNSt3__112basic_stringIcNS_11char_traitsIcEENS_9allocatorIcEEE16__set_short_sizeB8ue170006Em, symObjAddr: 0x11890, symBinAddr: 0x10001307C, symSize: 0x78 }
  - { offsetInCU: 0x34364, offset: 0x34364, size: 0x8, addend: 0x0, symName: __ZNSt3__116allocator_traitsINS_9allocatorIcEEE8max_sizeB8ue170006IS2_vEEmRKS2_, symObjAddr: 0x11908, symBinAddr: 0x1000130F4, symSize: 0x24 }
  - { offsetInCU: 0x34392, offset: 0x34392, size: 0x8, addend: 0x0, symName: __ZNSt3__114numeric_limitsImE3maxB8ue170006Ev, symObjAddr: 0x1192C, symBinAddr: 0x100013118, symSize: 0x14 }
  - { offsetInCU: 0x343A6, offset: 0x343A6, size: 0x8, addend: 0x0, symName: __ZNKSt3__19allocatorIcE8max_sizeB8ue170006Ev, symObjAddr: 0x11940, symBinAddr: 0x10001312C, symSize: 0x14 }
  - { offsetInCU: 0x343CC, offset: 0x343CC, size: 0x8, addend: 0x0, symName: __ZNSt3__123__libcpp_numeric_limitsImLb1EE3maxB8ue170006Ev, symObjAddr: 0x11954, symBinAddr: 0x100013140, symSize: 0x8 }
  - { offsetInCU: 0x343E0, offset: 0x343E0, size: 0x8, addend: 0x0, symName: __ZNSt3__123__libcpp_numeric_limitsIlLb1EE3maxB8ue170006Ev, symObjAddr: 0x1195C, symBinAddr: 0x100013148, symSize: 0x8 }
  - { offsetInCU: 0x343F4, offset: 0x343F4, size: 0x8, addend: 0x0, symName: __ZNSt3__111char_traitsIcE11to_int_typeB8ue170006Ec, symObjAddr: 0x11964, symBinAddr: 0x100013150, symSize: 0x14 }
  - { offsetInCU: 0x34417, offset: 0x34417, size: 0x8, addend: 0x0, symName: __Z7isasciii, symObjAddr: 0x11978, symBinAddr: 0x100013164, symSize: 0x24 }
  - { offsetInCU: 0x34444, offset: 0x34444, size: 0x8, addend: 0x0, symName: __ZNKSt3__18ios_base10exceptionsB8ue170006Ev, symObjAddr: 0x1199C, symBinAddr: 0x100013188, symSize: 0x18 }
  - { offsetInCU: 0x3446C, offset: 0x3446C, size: 0x8, addend: 0x0, symName: __ZNSt3__112__hash_tableINS_17__hash_value_typeINS_12basic_stringIcNS_11char_traitsIcEENS_9allocatorIcEEEE8FlipFlopEENS_22__unordered_map_hasherIS7_S9_NS_4hashIS7_EENS_8equal_toIS7_EELb1EEENS_21__unordered_map_equalIS7_S9_SE_SC_Lb1EEENS5_IS9_EEE4findIS7_EENS_15__hash_iteratorIPNS_11__hash_nodeIS9_PvEEEERKT_, symObjAddr: 0x119B4, symBinAddr: 0x1000131A0, symSize: 0x1B0 }
  - { offsetInCU: 0x344F6, offset: 0x344F6, size: 0x8, addend: 0x0, symName: __ZNSt3__119__hash_map_iteratorINS_15__hash_iteratorIPNS_11__hash_nodeINS_17__hash_value_typeINS_12basic_stringIcNS_11char_traitsIcEENS_9allocatorIcEEEE8FlipFlopEEPvEEEEEC1B8ue170006ESF_, symObjAddr: 0x11B64, symBinAddr: 0x100013350, symSize: 0x34 }
  - { offsetInCU: 0x3452F, offset: 0x3452F, size: 0x8, addend: 0x0, symName: __ZNSt3__112__hash_tableINS_17__hash_value_typeINS_12basic_stringIcNS_11char_traitsIcEENS_9allocatorIcEEEE8FlipFlopEENS_22__unordered_map_hasherIS7_S9_NS_4hashIS7_EENS_8equal_toIS7_EELb1EEENS_21__unordered_map_equalIS7_S9_SE_SC_Lb1EEENS5_IS9_EEE3endEv, symObjAddr: 0x11B98, symBinAddr: 0x100013384, symSize: 0x2C }
  - { offsetInCU: 0x34557, offset: 0x34557, size: 0x8, addend: 0x0, symName: __ZNSt3__119__hash_map_iteratorINS_15__hash_iteratorIPNS_11__hash_nodeINS_17__hash_value_typeINS_12basic_stringIcNS_11char_traitsIcEENS_9allocatorIcEEEE8FlipFlopEEPvEEEEEC2B8ue170006ESF_, symObjAddr: 0x11BC4, symBinAddr: 0x1000133B0, symSize: 0x20 }
  - { offsetInCU: 0x34590, offset: 0x34590, size: 0x8, addend: 0x0, symName: __ZNSt3__112__hash_tableINS_17__hash_value_typeINS_12basic_stringIcNS_11char_traitsIcEENS_9allocatorIcEEEEP9InstanceFEENS_22__unordered_map_hasherIS7_SA_NS_4hashIS7_EENS_8equal_toIS7_EELb1EEENS_21__unordered_map_equalIS7_SA_SF_SD_Lb1EEENS5_ISA_EEE25__emplace_unique_key_argsIS7_JRKNS_21piecewise_construct_tENS_5tupleIJRKS7_EEENSP_IJEEEEEENS_4pairINS_15__hash_iteratorIPNS_11__hash_nodeISA_PvEEEEbEERKT_DpOT0_, symObjAddr: 0x11C48, symBinAddr: 0x100013434, symSize: 0x4CC }
  - { offsetInCU: 0x3469A, offset: 0x3469A, size: 0x8, addend: 0x0, symName: __ZNKSt3__115__hash_iteratorIPNS_11__hash_nodeINS_17__hash_value_typeINS_12basic_stringIcNS_11char_traitsIcEENS_9allocatorIcEEEEP9InstanceFEEPvEEEptB8ue170006Ev, symObjAddr: 0x12114, symBinAddr: 0x100013900, symSize: 0x30 }
  - { offsetInCU: 0x346C0, offset: 0x346C0, size: 0x8, addend: 0x0, symName: __ZNSt3__112__hash_tableINS_17__hash_value_typeINS_12basic_stringIcNS_11char_traitsIcEENS_9allocatorIcEEEEP9InstanceFEENS_22__unordered_map_hasherIS7_SA_NS_4hashIS7_EENS_8equal_toIS7_EELb1EEENS_21__unordered_map_equalIS7_SA_SF_SD_Lb1EEENS5_ISA_EEE13hash_functionB8ue170006Ev, symObjAddr: 0x12144, symBinAddr: 0x100013930, symSize: 0x28 }
  - { offsetInCU: 0x346E6, offset: 0x346E6, size: 0x8, addend: 0x0, symName: __ZNKSt3__122__unordered_map_hasherINS_12basic_stringIcNS_11char_traitsIcEENS_9allocatorIcEEEENS_17__hash_value_typeIS6_P9InstanceFEENS_4hashIS6_EENS_8equal_toIS6_EELb1EEclB8ue170006ERKS6_, symObjAddr: 0x1216C, symBinAddr: 0x100013958, symSize: 0x2C }
  - { offsetInCU: 0x3471B, offset: 0x3471B, size: 0x8, addend: 0x0, symName: __ZNKSt3__112__hash_tableINS_17__hash_value_typeINS_12basic_stringIcNS_11char_traitsIcEENS_9allocatorIcEEEEP9InstanceFEENS_22__unordered_map_hasherIS7_SA_NS_4hashIS7_EENS_8equal_toIS7_EELb1EEENS_21__unordered_map_equalIS7_SA_SF_SD_Lb1EEENS5_ISA_EEE12bucket_countB8ue170006Ev, symObjAddr: 0x12198, symBinAddr: 0x100013984, symSize: 0x28 }
  - { offsetInCU: 0x34741, offset: 0x34741, size: 0x8, addend: 0x0, symName: __ZNKSt3__110unique_ptrIA_PNS_16__hash_node_baseIPNS_11__hash_nodeINS_17__hash_value_typeINS_12basic_stringIcNS_11char_traitsIcEENS_9allocatorIcEEEEP9InstanceFEEPvEEEENS_25__bucket_list_deallocatorINS7_ISH_EEEEEixB8ue170006Em, symObjAddr: 0x121C0, symBinAddr: 0x1000139AC, symSize: 0x34 }
  - { offsetInCU: 0x34776, offset: 0x34776, size: 0x8, addend: 0x0, symName: __ZNKSt3__116__hash_node_baseIPNS_11__hash_nodeINS_17__hash_value_typeINS_12basic_stringIcNS_11char_traitsIcEENS_9allocatorIcEEEEP9InstanceFEEPvEEE6__hashB8ue170006Ev, symObjAddr: 0x121F4, symBinAddr: 0x1000139E0, symSize: 0x18 }
  - { offsetInCU: 0x3479C, offset: 0x3479C, size: 0x8, addend: 0x0, symName: __ZNSt3__112__hash_tableINS_17__hash_value_typeINS_12basic_stringIcNS_11char_traitsIcEENS_9allocatorIcEEEEP9InstanceFEENS_22__unordered_map_hasherIS7_SA_NS_4hashIS7_EENS_8equal_toIS7_EELb1EEENS_21__unordered_map_equalIS7_SA_SF_SD_Lb1EEENS5_ISA_EEE6key_eqB8ue170006Ev, symObjAddr: 0x1220C, symBinAddr: 0x1000139F8, symSize: 0x28 }
  - { offsetInCU: 0x347C2, offset: 0x347C2, size: 0x8, addend: 0x0, symName: __ZNKSt3__121__unordered_map_equalINS_12basic_stringIcNS_11char_traitsIcEENS_9allocatorIcEEEENS_17__hash_value_typeIS6_P9InstanceFEENS_8equal_toIS6_EENS_4hashIS6_EELb1EEclB8ue170006ERKSA_RKS6_, symObjAddr: 0x12234, symBinAddr: 0x100013A20, symSize: 0x48 }
  - { offsetInCU: 0x34806, offset: 0x34806, size: 0x8, addend: 0x0, symName: __ZNSt3__112__hash_tableINS_17__hash_value_typeINS_12basic_stringIcNS_11char_traitsIcEENS_9allocatorIcEEEEP9InstanceFEENS_22__unordered_map_hasherIS7_SA_NS_4hashIS7_EENS_8equal_toIS7_EELb1EEENS_21__unordered_map_equalIS7_SA_SF_SD_Lb1EEENS5_ISA_EEE21__construct_node_hashIRKNS_21piecewise_construct_tEJNS_5tupleIJRKS7_EEENSP_IJEEEEEENS_10unique_ptrINS_11__hash_nodeISA_PvEENS_22__hash_node_destructorINS5_ISX_EEEEEEmOT_DpOT0_, symObjAddr: 0x1227C, symBinAddr: 0x100013A68, symSize: 0x150 }
  - { offsetInCU: 0x348A2, offset: 0x348A2, size: 0x8, addend: 0x0, symName: __ZNSt3__112__hash_tableINS_17__hash_value_typeINS_12basic_stringIcNS_11char_traitsIcEENS_9allocatorIcEEEEP9InstanceFEENS_22__unordered_map_hasherIS7_SA_NS_4hashIS7_EENS_8equal_toIS7_EELb1EEENS_21__unordered_map_equalIS7_SA_SF_SD_Lb1EEENS5_ISA_EEE4sizeB8ue170006Ev, symObjAddr: 0x123CC, symBinAddr: 0x100013BB8, symSize: 0x28 }
  - { offsetInCU: 0x348C8, offset: 0x348C8, size: 0x8, addend: 0x0, symName: __ZNSt3__112__hash_tableINS_17__hash_value_typeINS_12basic_stringIcNS_11char_traitsIcEENS_9allocatorIcEEEEP9InstanceFEENS_22__unordered_map_hasherIS7_SA_NS_4hashIS7_EENS_8equal_toIS7_EELb1EEENS_21__unordered_map_equalIS7_SA_SF_SD_Lb1EEENS5_ISA_EEE15max_load_factorB8ue170006Ev, symObjAddr: 0x123F4, symBinAddr: 0x100013BE0, symSize: 0x28 }
  - { offsetInCU: 0x348EE, offset: 0x348EE, size: 0x8, addend: 0x0, symName: __ZNSt3__112__hash_tableINS_17__hash_value_typeINS_12basic_stringIcNS_11char_traitsIcEENS_9allocatorIcEEEEP9InstanceFEENS_22__unordered_map_hasherIS7_SA_NS_4hashIS7_EENS_8equal_toIS7_EELb1EEENS_21__unordered_map_equalIS7_SA_SF_SD_Lb1EEENS5_ISA_EEE15__rehash_uniqueB8ue170006Em, symObjAddr: 0x1241C, symBinAddr: 0x100013C08, symSize: 0x2C }
  - { offsetInCU: 0x34923, offset: 0x34923, size: 0x8, addend: 0x0, symName: __ZNSt3__116__hash_node_baseIPNS_11__hash_nodeINS_17__hash_value_typeINS_12basic_stringIcNS_11char_traitsIcEENS_9allocatorIcEEEEP9InstanceFEEPvEEE5__ptrB8ue170006Ev, symObjAddr: 0x12448, symBinAddr: 0x100013C34, symSize: 0x24 }
  - { offsetInCU: 0x34949, offset: 0x34949, size: 0x8, addend: 0x0, symName: __ZNKSt3__110unique_ptrINS_11__hash_nodeINS_17__hash_value_typeINS_12basic_stringIcNS_11char_traitsIcEENS_9allocatorIcEEEEP9InstanceFEEPvEENS_22__hash_node_destructorINS6_ISD_EEEEEptB8ue170006Ev, symObjAddr: 0x1246C, symBinAddr: 0x100013C58, symSize: 0x28 }
  - { offsetInCU: 0x3496F, offset: 0x3496F, size: 0x8, addend: 0x0, symName: __ZNKSt3__110unique_ptrINS_11__hash_nodeINS_17__hash_value_typeINS_12basic_stringIcNS_11char_traitsIcEENS_9allocatorIcEEEEP9InstanceFEEPvEENS_22__hash_node_destructorINS6_ISD_EEEEE3getB8ue170006Ev, symObjAddr: 0x12494, symBinAddr: 0x100013C80, symSize: 0x28 }
  - { offsetInCU: 0x34995, offset: 0x34995, size: 0x8, addend: 0x0, symName: __ZNSt3__110unique_ptrINS_11__hash_nodeINS_17__hash_value_typeINS_12basic_stringIcNS_11char_traitsIcEENS_9allocatorIcEEEEP9InstanceFEEPvEENS_22__hash_node_destructorINS6_ISD_EEEEE7releaseB8ue170006Ev, symObjAddr: 0x124BC, symBinAddr: 0x100013CA8, symSize: 0x44 }
  - { offsetInCU: 0x349CA, offset: 0x349CA, size: 0x8, addend: 0x0, symName: __ZNSt3__110unique_ptrINS_11__hash_nodeINS_17__hash_value_typeINS_12basic_stringIcNS_11char_traitsIcEENS_9allocatorIcEEEEP9InstanceFEEPvEENS_22__hash_node_destructorINS6_ISD_EEEEED1B8ue170006Ev, symObjAddr: 0x12500, symBinAddr: 0x100013CEC, symSize: 0x2C }
  - { offsetInCU: 0x349F4, offset: 0x349F4, size: 0x8, addend: 0x0, symName: __ZNSt3__115__hash_iteratorIPNS_11__hash_nodeINS_17__hash_value_typeINS_12basic_stringIcNS_11char_traitsIcEENS_9allocatorIcEEEEP9InstanceFEEPvEEEC1B8ue170006EPNS_16__hash_node_baseISE_EE, symObjAddr: 0x1252C, symBinAddr: 0x100013D18, symSize: 0x34 }
  - { offsetInCU: 0x34A32, offset: 0x34A32, size: 0x8, addend: 0x0, symName: __ZNSt3__14pairINS_15__hash_iteratorIPNS_11__hash_nodeINS_17__hash_value_typeINS_12basic_stringIcNS_11char_traitsIcEENS_9allocatorIcEEEEP9InstanceFEEPvEEEEbEC1B8ue170006ISG_RbLSD_0EEEOT_OT0_, symObjAddr: 0x12560, symBinAddr: 0x100013D4C, symSize: 0x3C }
  - { offsetInCU: 0x34A90, offset: 0x34A90, size: 0x8, addend: 0x0, symName: __ZNSt3__117__compressed_pairImNS_22__unordered_map_hasherINS_12basic_stringIcNS_11char_traitsIcEENS_9allocatorIcEEEENS_17__hash_value_typeIS7_P9InstanceFEENS_4hashIS7_EENS_8equal_toIS7_EELb1EEEE6secondB8ue170006Ev, symObjAddr: 0x1259C, symBinAddr: 0x100013D88, symSize: 0x24 }
  - { offsetInCU: 0x34AB6, offset: 0x34AB6, size: 0x8, addend: 0x0, symName: __ZNSt3__122__compressed_pair_elemINS_22__unordered_map_hasherINS_12basic_stringIcNS_11char_traitsIcEENS_9allocatorIcEEEENS_17__hash_value_typeIS7_P9InstanceFEENS_4hashIS7_EENS_8equal_toIS7_EELb1EEELi1ELb1EE5__getB8ue170006Ev, symObjAddr: 0x125C0, symBinAddr: 0x100013DAC, symSize: 0x14 }
  - { offsetInCU: 0x34ADC, offset: 0x34ADC, size: 0x8, addend: 0x0, symName: __ZNKSt3__110unique_ptrIA_PNS_16__hash_node_baseIPNS_11__hash_nodeINS_17__hash_value_typeINS_12basic_stringIcNS_11char_traitsIcEENS_9allocatorIcEEEEP9InstanceFEEPvEEEENS_25__bucket_list_deallocatorINS7_ISH_EEEEE11get_deleterB8ue170006Ev, symObjAddr: 0x125D4, symBinAddr: 0x100013DC0, symSize: 0x24 }
  - { offsetInCU: 0x34B02, offset: 0x34B02, size: 0x8, addend: 0x0, symName: __ZNKSt3__125__bucket_list_deallocatorINS_9allocatorIPNS_16__hash_node_baseIPNS_11__hash_nodeINS_17__hash_value_typeINS_12basic_stringIcNS_11char_traitsIcEENS1_IcEEEEP9InstanceFEEPvEEEEEEE4sizeB8ue170006Ev, symObjAddr: 0x125F8, symBinAddr: 0x100013DE4, symSize: 0x28 }
  - { offsetInCU: 0x34B28, offset: 0x34B28, size: 0x8, addend: 0x0, symName: __ZNKSt3__117__compressed_pairIPPNS_16__hash_node_baseIPNS_11__hash_nodeINS_17__hash_value_typeINS_12basic_stringIcNS_11char_traitsIcEENS_9allocatorIcEEEEP9InstanceFEEPvEEEENS_25__bucket_list_deallocatorINS7_ISH_EEEEE6secondB8ue170006Ev, symObjAddr: 0x12620, symBinAddr: 0x100013E0C, symSize: 0x28 }
  - { offsetInCU: 0x34B4E, offset: 0x34B4E, size: 0x8, addend: 0x0, symName: __ZNKSt3__122__compressed_pair_elemINS_25__bucket_list_deallocatorINS_9allocatorIPNS_16__hash_node_baseIPNS_11__hash_nodeINS_17__hash_value_typeINS_12basic_stringIcNS_11char_traitsIcEENS2_IcEEEEP9InstanceFEEPvEEEEEEEELi1ELb0EE5__getB8ue170006Ev, symObjAddr: 0x12648, symBinAddr: 0x100013E34, symSize: 0x14 }
  - { offsetInCU: 0x34B74, offset: 0x34B74, size: 0x8, addend: 0x0, symName: __ZNKSt3__117__compressed_pairImNS_9allocatorIPNS_16__hash_node_baseIPNS_11__hash_nodeINS_17__hash_value_typeINS_12basic_stringIcNS_11char_traitsIcEENS1_IcEEEEP9InstanceFEEPvEEEEEEE5firstB8ue170006Ev, symObjAddr: 0x1265C, symBinAddr: 0x100013E48, symSize: 0x24 }
  - { offsetInCU: 0x34B9A, offset: 0x34B9A, size: 0x8, addend: 0x0, symName: __ZNKSt3__117__compressed_pairIPPNS_16__hash_node_baseIPNS_11__hash_nodeINS_17__hash_value_typeINS_12basic_stringIcNS_11char_traitsIcEENS_9allocatorIcEEEEP9InstanceFEEPvEEEENS_25__bucket_list_deallocatorINS7_ISH_EEEEE5firstB8ue170006Ev, symObjAddr: 0x12680, symBinAddr: 0x100013E6C, symSize: 0x24 }
  - { offsetInCU: 0x34BC0, offset: 0x34BC0, size: 0x8, addend: 0x0, symName: __ZNKSt3__122__compressed_pair_elemIPPNS_16__hash_node_baseIPNS_11__hash_nodeINS_17__hash_value_typeINS_12basic_stringIcNS_11char_traitsIcEENS_9allocatorIcEEEEP9InstanceFEEPvEEEELi0ELb0EE5__getB8ue170006Ev, symObjAddr: 0x126A4, symBinAddr: 0x100013E90, symSize: 0x14 }
  - { offsetInCU: 0x34BE6, offset: 0x34BE6, size: 0x8, addend: 0x0, symName: __ZNSt3__117__compressed_pairIfNS_21__unordered_map_equalINS_12basic_stringIcNS_11char_traitsIcEENS_9allocatorIcEEEENS_17__hash_value_typeIS7_P9InstanceFEENS_8equal_toIS7_EENS_4hashIS7_EELb1EEEE6secondB8ue170006Ev, symObjAddr: 0x126B8, symBinAddr: 0x100013EA4, symSize: 0x24 }
  - { offsetInCU: 0x34C0C, offset: 0x34C0C, size: 0x8, addend: 0x0, symName: __ZNSt3__122__compressed_pair_elemINS_21__unordered_map_equalINS_12basic_stringIcNS_11char_traitsIcEENS_9allocatorIcEEEENS_17__hash_value_typeIS7_P9InstanceFEENS_8equal_toIS7_EENS_4hashIS7_EELb1EEELi1ELb1EE5__getB8ue170006Ev, symObjAddr: 0x126DC, symBinAddr: 0x100013EC8, symSize: 0x14 }
  - { offsetInCU: 0x34C32, offset: 0x34C32, size: 0x8, addend: 0x0, symName: __ZNKSt3__117__hash_value_typeINS_12basic_stringIcNS_11char_traitsIcEENS_9allocatorIcEEEEP9InstanceFE11__get_valueB8ue170006Ev, symObjAddr: 0x126F0, symBinAddr: 0x100013EDC, symSize: 0x24 }
  - { offsetInCU: 0x34C58, offset: 0x34C58, size: 0x8, addend: 0x0, symName: __ZNSt3__116allocator_traitsINS_9allocatorINS_11__hash_nodeINS_17__hash_value_typeINS_12basic_stringIcNS_11char_traitsIcEENS1_IcEEEEP9InstanceFEEPvEEEEE8allocateB8ue170006ERSE_m, symObjAddr: 0x1274C, symBinAddr: 0x100013F38, symSize: 0x2C }
  - { offsetInCU: 0x34C8B, offset: 0x34C8B, size: 0x8, addend: 0x0, symName: __ZNSt3__122__hash_node_destructorINS_9allocatorINS_11__hash_nodeINS_17__hash_value_typeINS_12basic_stringIcNS_11char_traitsIcEENS1_IcEEEEP9InstanceFEEPvEEEEEC1B8ue170006ERSE_b, symObjAddr: 0x12778, symBinAddr: 0x100013F64, symSize: 0x48 }
  - { offsetInCU: 0x34CD8, offset: 0x34CD8, size: 0x8, addend: 0x0, symName: __ZNSt3__110unique_ptrINS_11__hash_nodeINS_17__hash_value_typeINS_12basic_stringIcNS_11char_traitsIcEENS_9allocatorIcEEEEP9InstanceFEEPvEENS_22__hash_node_destructorINS6_ISD_EEEEEC1B8ue170006ILb1EvEEPSD_NS_16__dependent_typeINS_27__unique_ptr_deleter_sfinaeISG_EEXT_EE20__good_rval_ref_typeE, symObjAddr: 0x127C0, symBinAddr: 0x100013FAC, symSize: 0x3C }
  - { offsetInCU: 0x34D29, offset: 0x34D29, size: 0x8, addend: 0x0, symName: __ZNSt3__116allocator_traitsINS_9allocatorINS_11__hash_nodeINS_17__hash_value_typeINS_12basic_stringIcNS_11char_traitsIcEENS1_IcEEEEP9InstanceFEEPvEEEEE9constructB8ue170006INS_4pairIKS8_SA_EEJRKNS_21piecewise_construct_tENS_5tupleIJRSI_EEENSN_IJEEEEvEEvRSE_PT_DpOT0_, symObjAddr: 0x127FC, symBinAddr: 0x100013FE8, symSize: 0x44 }
  - { offsetInCU: 0x34DA8, offset: 0x34DA8, size: 0x8, addend: 0x0, symName: __ZNSt3__110unique_ptrINS_11__hash_nodeINS_17__hash_value_typeINS_12basic_stringIcNS_11char_traitsIcEENS_9allocatorIcEEEEP9InstanceFEEPvEENS_22__hash_node_destructorINS6_ISD_EEEEE11get_deleterB8ue170006Ev, symObjAddr: 0x12840, symBinAddr: 0x10001402C, symSize: 0x24 }
  - { offsetInCU: 0x34DCE, offset: 0x34DCE, size: 0x8, addend: 0x0, symName: __ZNSt3__19allocatorINS_11__hash_nodeINS_17__hash_value_typeINS_12basic_stringIcNS_11char_traitsIcEENS0_IcEEEEP9InstanceFEEPvEEE8allocateB8ue170006Em, symObjAddr: 0x12864, symBinAddr: 0x100014050, symSize: 0x5C }
  - { offsetInCU: 0x34E0C, offset: 0x34E0C, size: 0x8, addend: 0x0, symName: __ZNSt3__116allocator_traitsINS_9allocatorINS_11__hash_nodeINS_17__hash_value_typeINS_12basic_stringIcNS_11char_traitsIcEENS1_IcEEEEP9InstanceFEEPvEEEEE8max_sizeB8ue170006ISE_vEEmRKSE_, symObjAddr: 0x128C0, symBinAddr: 0x1000140AC, symSize: 0x24 }
  - { offsetInCU: 0x34E3A, offset: 0x34E3A, size: 0x8, addend: 0x0, symName: __ZNKSt3__19allocatorINS_11__hash_nodeINS_17__hash_value_typeINS_12basic_stringIcNS_11char_traitsIcEENS0_IcEEEEP9InstanceFEEPvEEE8max_sizeB8ue170006Ev, symObjAddr: 0x128E4, symBinAddr: 0x1000140D0, symSize: 0x18 }
  - { offsetInCU: 0x34E60, offset: 0x34E60, size: 0x8, addend: 0x0, symName: __ZNSt3__122__hash_node_destructorINS_9allocatorINS_11__hash_nodeINS_17__hash_value_typeINS_12basic_stringIcNS_11char_traitsIcEENS1_IcEEEEP9InstanceFEEPvEEEEEC2B8ue170006ERSE_b, symObjAddr: 0x128FC, symBinAddr: 0x1000140E8, symSize: 0x38 }
  - { offsetInCU: 0x34EA8, offset: 0x34EA8, size: 0x8, addend: 0x0, symName: __ZNSt3__110unique_ptrINS_11__hash_nodeINS_17__hash_value_typeINS_12basic_stringIcNS_11char_traitsIcEENS_9allocatorIcEEEEP9InstanceFEEPvEENS_22__hash_node_destructorINS6_ISD_EEEEEC2B8ue170006ILb1EvEEPSD_NS_16__dependent_typeINS_27__unique_ptr_deleter_sfinaeISG_EEXT_EE20__good_rval_ref_typeE, symObjAddr: 0x12934, symBinAddr: 0x100014120, symSize: 0x48 }
  - { offsetInCU: 0x34EF9, offset: 0x34EF9, size: 0x8, addend: 0x0, symName: __ZNSt3__117__compressed_pairIPNS_11__hash_nodeINS_17__hash_value_typeINS_12basic_stringIcNS_11char_traitsIcEENS_9allocatorIcEEEEP9InstanceFEEPvEENS_22__hash_node_destructorINS6_ISD_EEEEEC1B8ue170006IRSE_SH_EEOT_OT0_, symObjAddr: 0x1297C, symBinAddr: 0x100014168, symSize: 0x3C }
  - { offsetInCU: 0x34F51, offset: 0x34F51, size: 0x8, addend: 0x0, symName: __ZNSt3__117__compressed_pairIPNS_11__hash_nodeINS_17__hash_value_typeINS_12basic_stringIcNS_11char_traitsIcEENS_9allocatorIcEEEEP9InstanceFEEPvEENS_22__hash_node_destructorINS6_ISD_EEEEEC2B8ue170006IRSE_SH_EEOT_OT0_, symObjAddr: 0x129B8, symBinAddr: 0x1000141A4, symSize: 0x48 }
  - { offsetInCU: 0x34FA9, offset: 0x34FA9, size: 0x8, addend: 0x0, symName: __ZNSt3__122__compressed_pair_elemIPNS_11__hash_nodeINS_17__hash_value_typeINS_12basic_stringIcNS_11char_traitsIcEENS_9allocatorIcEEEEP9InstanceFEEPvEELi0ELb0EEC2B8ue170006IRSE_vEEOT_, symObjAddr: 0x12A00, symBinAddr: 0x1000141EC, symSize: 0x24 }
  - { offsetInCU: 0x34FEB, offset: 0x34FEB, size: 0x8, addend: 0x0, symName: __ZNSt3__122__compressed_pair_elemINS_22__hash_node_destructorINS_9allocatorINS_11__hash_nodeINS_17__hash_value_typeINS_12basic_stringIcNS_11char_traitsIcEENS2_IcEEEEP9InstanceFEEPvEEEEEELi1ELb0EEC2B8ue170006ISG_vEEOT_, symObjAddr: 0x12A24, symBinAddr: 0x100014210, symSize: 0x24 }
  - { offsetInCU: 0x3502D, offset: 0x3502D, size: 0x8, addend: 0x0, symName: __ZNSt3__19allocatorINS_11__hash_nodeINS_17__hash_value_typeINS_12basic_stringIcNS_11char_traitsIcEENS0_IcEEEEP9InstanceFEEPvEEE9constructB8ue170006INS_4pairIKS7_S9_EEJRKNS_21piecewise_construct_tENS_5tupleIJRSG_EEENSL_IJEEEEEEvPT_DpOT0_, symObjAddr: 0x12A48, symBinAddr: 0x100014234, symSize: 0x44 }
  - { offsetInCU: 0x350A9, offset: 0x350A9, size: 0x8, addend: 0x0, symName: __ZNSt3__14pairIKNS_12basic_stringIcNS_11char_traitsIcEENS_9allocatorIcEEEEP9InstanceFEC1B8ue170006IJRS7_EJEEENS_21piecewise_construct_tENS_5tupleIJDpT_EEENSE_IJDpT0_EEE, symObjAddr: 0x12A8C, symBinAddr: 0x100014278, symSize: 0x3C }
  - { offsetInCU: 0x35110, offset: 0x35110, size: 0x8, addend: 0x0, symName: __ZNSt3__14pairIKNS_12basic_stringIcNS_11char_traitsIcEENS_9allocatorIcEEEEP9InstanceFEC1B8ue170006IJRS7_EJEJLm0EEJEEENS_21piecewise_construct_tERNS_5tupleIJDpT_EEERNSE_IJDpT0_EEENS_15__tuple_indicesIJXspT1_EEEENSN_IJXspT2_EEEE, symObjAddr: 0x12AC8, symBinAddr: 0x1000142B4, symSize: 0x3C }
  - { offsetInCU: 0x351A0, offset: 0x351A0, size: 0x8, addend: 0x0, symName: __ZNSt3__14pairIKNS_12basic_stringIcNS_11char_traitsIcEENS_9allocatorIcEEEEP9InstanceFEC2B8ue170006IJRS7_EJEJLm0EEJEEENS_21piecewise_construct_tERNS_5tupleIJDpT_EEERNSE_IJDpT0_EEENS_15__tuple_indicesIJXspT1_EEEENSN_IJXspT2_EEEE, symObjAddr: 0x12B04, symBinAddr: 0x1000142F0, symSize: 0x48 }
  - { offsetInCU: 0x35230, offset: 0x35230, size: 0x8, addend: 0x0, symName: __ZNSt3__117__compressed_pairIPNS_11__hash_nodeINS_17__hash_value_typeINS_12basic_stringIcNS_11char_traitsIcEENS_9allocatorIcEEEEP9InstanceFEEPvEENS_22__hash_node_destructorINS6_ISD_EEEEE6secondB8ue170006Ev, symObjAddr: 0x12B4C, symBinAddr: 0x100014338, symSize: 0x28 }
  - { offsetInCU: 0x35256, offset: 0x35256, size: 0x8, addend: 0x0, symName: __ZNSt3__122__compressed_pair_elemINS_22__hash_node_destructorINS_9allocatorINS_11__hash_nodeINS_17__hash_value_typeINS_12basic_stringIcNS_11char_traitsIcEENS2_IcEEEEP9InstanceFEEPvEEEEEELi1ELb0EE5__getB8ue170006Ev, symObjAddr: 0x12B74, symBinAddr: 0x100014360, symSize: 0x14 }
  - { offsetInCU: 0x3527C, offset: 0x3527C, size: 0x8, addend: 0x0, symName: __ZNSt3__117__compressed_pairImNS_22__unordered_map_hasherINS_12basic_stringIcNS_11char_traitsIcEENS_9allocatorIcEEEENS_17__hash_value_typeIS7_P9InstanceFEENS_4hashIS7_EENS_8equal_toIS7_EELb1EEEE5firstB8ue170006Ev, symObjAddr: 0x12B88, symBinAddr: 0x100014374, symSize: 0x24 }
  - { offsetInCU: 0x352A2, offset: 0x352A2, size: 0x8, addend: 0x0, symName: __ZNSt3__117__compressed_pairIfNS_21__unordered_map_equalINS_12basic_stringIcNS_11char_traitsIcEENS_9allocatorIcEEEENS_17__hash_value_typeIS7_P9InstanceFEENS_8equal_toIS7_EENS_4hashIS7_EELb1EEEE5firstB8ue170006Ev, symObjAddr: 0x12BAC, symBinAddr: 0x100014398, symSize: 0x24 }
  - { offsetInCU: 0x352C8, offset: 0x352C8, size: 0x8, addend: 0x0, symName: __ZNSt3__112__hash_tableINS_17__hash_value_typeINS_12basic_stringIcNS_11char_traitsIcEENS_9allocatorIcEEEEP9InstanceFEENS_22__unordered_map_hasherIS7_SA_NS_4hashIS7_EENS_8equal_toIS7_EELb1EEENS_21__unordered_map_equalIS7_SA_SF_SD_Lb1EEENS5_ISA_EEE8__rehashILb1EEEvm, symObjAddr: 0x12BD0, symBinAddr: 0x1000143BC, symSize: 0x1A8 }
  - { offsetInCU: 0x35318, offset: 0x35318, size: 0x8, addend: 0x0, symName: __ZNSt3__112__hash_tableINS_17__hash_value_typeINS_12basic_stringIcNS_11char_traitsIcEENS_9allocatorIcEEEEP9InstanceFEENS_22__unordered_map_hasherIS7_SA_NS_4hashIS7_EENS_8equal_toIS7_EELb1EEENS_21__unordered_map_equalIS7_SA_SF_SD_Lb1EEENS5_ISA_EEE11__do_rehashILb1EEEvm, symObjAddr: 0x12D78, symBinAddr: 0x100014564, symSize: 0x288 }
  - { offsetInCU: 0x353FB, offset: 0x353FB, size: 0x8, addend: 0x0, symName: __ZNSt3__110unique_ptrIA_PNS_16__hash_node_baseIPNS_11__hash_nodeINS_17__hash_value_typeINS_12basic_stringIcNS_11char_traitsIcEENS_9allocatorIcEEEEP9InstanceFEEPvEEEENS_25__bucket_list_deallocatorINS7_ISH_EEEEE11get_deleterB8ue170006Ev, symObjAddr: 0x13000, symBinAddr: 0x1000147EC, symSize: 0x24 }
  - { offsetInCU: 0x35421, offset: 0x35421, size: 0x8, addend: 0x0, symName: __ZNSt3__110unique_ptrIA_PNS_16__hash_node_baseIPNS_11__hash_nodeINS_17__hash_value_typeINS_12basic_stringIcNS_11char_traitsIcEENS_9allocatorIcEEEEP9InstanceFEEPvEEEENS_25__bucket_list_deallocatorINS7_ISH_EEEEE5resetB8ue170006IPSH_EENS_9enable_ifIXsr28_CheckArrayPointerConversionIT_EE5valueEvE4typeESQ_, symObjAddr: 0x13024, symBinAddr: 0x100014810, symSize: 0x78 }
  - { offsetInCU: 0x3546E, offset: 0x3546E, size: 0x8, addend: 0x0, symName: __ZNSt3__116allocator_traitsINS_9allocatorIPNS_16__hash_node_baseIPNS_11__hash_nodeINS_17__hash_value_typeINS_12basic_stringIcNS_11char_traitsIcEENS1_IcEEEEP9InstanceFEEPvEEEEEEE8allocateB8ue170006ERSI_m, symObjAddr: 0x1309C, symBinAddr: 0x100014888, symSize: 0x2C }
  - { offsetInCU: 0x354A1, offset: 0x354A1, size: 0x8, addend: 0x0, symName: __ZNSt3__19allocatorIPNS_16__hash_node_baseIPNS_11__hash_nodeINS_17__hash_value_typeINS_12basic_stringIcNS_11char_traitsIcEENS0_IcEEEEP9InstanceFEEPvEEEEE8allocateB8ue170006Em, symObjAddr: 0x130C8, symBinAddr: 0x1000148B4, symSize: 0x58 }
  - { offsetInCU: 0x354DF, offset: 0x354DF, size: 0x8, addend: 0x0, symName: __ZNSt3__116allocator_traitsINS_9allocatorIPNS_16__hash_node_baseIPNS_11__hash_nodeINS_17__hash_value_typeINS_12basic_stringIcNS_11char_traitsIcEENS1_IcEEEEP9InstanceFEEPvEEEEEEE8max_sizeB8ue170006ISI_vEEmRKSI_, symObjAddr: 0x13120, symBinAddr: 0x10001490C, symSize: 0x24 }
  - { offsetInCU: 0x3550D, offset: 0x3550D, size: 0x8, addend: 0x0, symName: __ZNKSt3__19allocatorIPNS_16__hash_node_baseIPNS_11__hash_nodeINS_17__hash_value_typeINS_12basic_stringIcNS_11char_traitsIcEENS0_IcEEEEP9InstanceFEEPvEEEEE8max_sizeB8ue170006Ev, symObjAddr: 0x13144, symBinAddr: 0x100014930, symSize: 0x14 }
  - { offsetInCU: 0x35533, offset: 0x35533, size: 0x8, addend: 0x0, symName: __ZNKSt3__117__compressed_pairIPNS_11__hash_nodeINS_17__hash_value_typeINS_12basic_stringIcNS_11char_traitsIcEENS_9allocatorIcEEEEP9InstanceFEEPvEENS_22__hash_node_destructorINS6_ISD_EEEEE5firstB8ue170006Ev, symObjAddr: 0x13158, symBinAddr: 0x100014944, symSize: 0x24 }
  - { offsetInCU: 0x35559, offset: 0x35559, size: 0x8, addend: 0x0, symName: __ZNKSt3__122__compressed_pair_elemIPNS_11__hash_nodeINS_17__hash_value_typeINS_12basic_stringIcNS_11char_traitsIcEENS_9allocatorIcEEEEP9InstanceFEEPvEELi0ELb0EE5__getB8ue170006Ev, symObjAddr: 0x1317C, symBinAddr: 0x100014968, symSize: 0x14 }
  - { offsetInCU: 0x3557F, offset: 0x3557F, size: 0x8, addend: 0x0, symName: __ZNSt3__117__compressed_pairIPNS_11__hash_nodeINS_17__hash_value_typeINS_12basic_stringIcNS_11char_traitsIcEENS_9allocatorIcEEEEP9InstanceFEEPvEENS_22__hash_node_destructorINS6_ISD_EEEEE5firstB8ue170006Ev, symObjAddr: 0x13190, symBinAddr: 0x10001497C, symSize: 0x24 }
  - { offsetInCU: 0x355A5, offset: 0x355A5, size: 0x8, addend: 0x0, symName: __ZNSt3__122__compressed_pair_elemIPNS_11__hash_nodeINS_17__hash_value_typeINS_12basic_stringIcNS_11char_traitsIcEENS_9allocatorIcEEEEP9InstanceFEEPvEELi0ELb0EE5__getB8ue170006Ev, symObjAddr: 0x131B4, symBinAddr: 0x1000149A0, symSize: 0x14 }
  - { offsetInCU: 0x355CB, offset: 0x355CB, size: 0x8, addend: 0x0, symName: __ZNSt3__110unique_ptrINS_11__hash_nodeINS_17__hash_value_typeINS_12basic_stringIcNS_11char_traitsIcEENS_9allocatorIcEEEEP9InstanceFEEPvEENS_22__hash_node_destructorINS6_ISD_EEEEED2B8ue170006Ev, symObjAddr: 0x131C8, symBinAddr: 0x1000149B4, symSize: 0x30 }
  - { offsetInCU: 0x355F5, offset: 0x355F5, size: 0x8, addend: 0x0, symName: __ZNSt3__110unique_ptrINS_11__hash_nodeINS_17__hash_value_typeINS_12basic_stringIcNS_11char_traitsIcEENS_9allocatorIcEEEEP9InstanceFEEPvEENS_22__hash_node_destructorINS6_ISD_EEEEE5resetB8ue170006EPSD_, symObjAddr: 0x131F8, symBinAddr: 0x1000149E4, symSize: 0x78 }
  - { offsetInCU: 0x35639, offset: 0x35639, size: 0x8, addend: 0x0, symName: __ZNSt3__122__hash_node_destructorINS_9allocatorINS_11__hash_nodeINS_17__hash_value_typeINS_12basic_stringIcNS_11char_traitsIcEENS1_IcEEEEP9InstanceFEEPvEEEEEclB8ue170006EPSD_, symObjAddr: 0x13270, symBinAddr: 0x100014A5C, symSize: 0x94 }
  - { offsetInCU: 0x3566E, offset: 0x3566E, size: 0x8, addend: 0x0, symName: __ZNSt3__115__hash_iteratorIPNS_11__hash_nodeINS_17__hash_value_typeINS_12basic_stringIcNS_11char_traitsIcEENS_9allocatorIcEEEEP9InstanceFEEPvEEEC2B8ue170006EPNS_16__hash_node_baseISE_EE, symObjAddr: 0x13304, symBinAddr: 0x100014AF0, symSize: 0x20 }
  - { offsetInCU: 0x356A7, offset: 0x356A7, size: 0x8, addend: 0x0, symName: __ZNSt3__14pairINS_15__hash_iteratorIPNS_11__hash_nodeINS_17__hash_value_typeINS_12basic_stringIcNS_11char_traitsIcEENS_9allocatorIcEEEEP9InstanceFEEPvEEEEbEC2B8ue170006ISG_RbLSD_0EEEOT_OT0_, symObjAddr: 0x13324, symBinAddr: 0x100014B10, symSize: 0x38 }
  - { offsetInCU: 0x35705, offset: 0x35705, size: 0x8, addend: 0x0, symName: __ZNSt3__114pointer_traitsIPNS_17__hash_value_typeINS_12basic_stringIcNS_11char_traitsIcEENS_9allocatorIcEEEEP9InstanceFEEE10pointer_toB8ue170006ERSA_, symObjAddr: 0x1335C, symBinAddr: 0x100014B48, symSize: 0x14 }
  - { offsetInCU: 0x35728, offset: 0x35728, size: 0x8, addend: 0x0, symName: __ZNSt3__112__hash_tableINS_17__hash_value_typeINS_12basic_stringIcNS_11char_traitsIcEENS_9allocatorIcEEEEP9InstanceGEENS_22__unordered_map_hasherIS7_SA_NS_4hashIS7_EENS_8equal_toIS7_EELb1EEENS_21__unordered_map_equalIS7_SA_SF_SD_Lb1EEENS5_ISA_EEE25__emplace_unique_key_argsIS7_JRKNS_21piecewise_construct_tENS_5tupleIJRKS7_EEENSP_IJEEEEEENS_4pairINS_15__hash_iteratorIPNS_11__hash_nodeISA_PvEEEEbEERKT_DpOT0_, symObjAddr: 0x13370, symBinAddr: 0x100014B5C, symSize: 0x4CC }
  - { offsetInCU: 0x35832, offset: 0x35832, size: 0x8, addend: 0x0, symName: __ZNKSt3__115__hash_iteratorIPNS_11__hash_nodeINS_17__hash_value_typeINS_12basic_stringIcNS_11char_traitsIcEENS_9allocatorIcEEEEP9InstanceGEEPvEEEptB8ue170006Ev, symObjAddr: 0x1383C, symBinAddr: 0x100015028, symSize: 0x30 }
  - { offsetInCU: 0x35858, offset: 0x35858, size: 0x8, addend: 0x0, symName: __ZNSt3__112__hash_tableINS_17__hash_value_typeINS_12basic_stringIcNS_11char_traitsIcEENS_9allocatorIcEEEEP9InstanceGEENS_22__unordered_map_hasherIS7_SA_NS_4hashIS7_EENS_8equal_toIS7_EELb1EEENS_21__unordered_map_equalIS7_SA_SF_SD_Lb1EEENS5_ISA_EEE13hash_functionB8ue170006Ev, symObjAddr: 0x1386C, symBinAddr: 0x100015058, symSize: 0x28 }
  - { offsetInCU: 0x3587E, offset: 0x3587E, size: 0x8, addend: 0x0, symName: __ZNKSt3__122__unordered_map_hasherINS_12basic_stringIcNS_11char_traitsIcEENS_9allocatorIcEEEENS_17__hash_value_typeIS6_P9InstanceGEENS_4hashIS6_EENS_8equal_toIS6_EELb1EEclB8ue170006ERKS6_, symObjAddr: 0x13894, symBinAddr: 0x100015080, symSize: 0x2C }
  - { offsetInCU: 0x358B3, offset: 0x358B3, size: 0x8, addend: 0x0, symName: __ZNKSt3__112__hash_tableINS_17__hash_value_typeINS_12basic_stringIcNS_11char_traitsIcEENS_9allocatorIcEEEEP9InstanceGEENS_22__unordered_map_hasherIS7_SA_NS_4hashIS7_EENS_8equal_toIS7_EELb1EEENS_21__unordered_map_equalIS7_SA_SF_SD_Lb1EEENS5_ISA_EEE12bucket_countB8ue170006Ev, symObjAddr: 0x138C0, symBinAddr: 0x1000150AC, symSize: 0x28 }
  - { offsetInCU: 0x358D9, offset: 0x358D9, size: 0x8, addend: 0x0, symName: __ZNKSt3__110unique_ptrIA_PNS_16__hash_node_baseIPNS_11__hash_nodeINS_17__hash_value_typeINS_12basic_stringIcNS_11char_traitsIcEENS_9allocatorIcEEEEP9InstanceGEEPvEEEENS_25__bucket_list_deallocatorINS7_ISH_EEEEEixB8ue170006Em, symObjAddr: 0x138E8, symBinAddr: 0x1000150D4, symSize: 0x34 }
  - { offsetInCU: 0x3590E, offset: 0x3590E, size: 0x8, addend: 0x0, symName: __ZNKSt3__116__hash_node_baseIPNS_11__hash_nodeINS_17__hash_value_typeINS_12basic_stringIcNS_11char_traitsIcEENS_9allocatorIcEEEEP9InstanceGEEPvEEE6__hashB8ue170006Ev, symObjAddr: 0x1391C, symBinAddr: 0x100015108, symSize: 0x18 }
  - { offsetInCU: 0x35934, offset: 0x35934, size: 0x8, addend: 0x0, symName: __ZNSt3__112__hash_tableINS_17__hash_value_typeINS_12basic_stringIcNS_11char_traitsIcEENS_9allocatorIcEEEEP9InstanceGEENS_22__unordered_map_hasherIS7_SA_NS_4hashIS7_EENS_8equal_toIS7_EELb1EEENS_21__unordered_map_equalIS7_SA_SF_SD_Lb1EEENS5_ISA_EEE6key_eqB8ue170006Ev, symObjAddr: 0x13934, symBinAddr: 0x100015120, symSize: 0x28 }
  - { offsetInCU: 0x3595A, offset: 0x3595A, size: 0x8, addend: 0x0, symName: __ZNKSt3__121__unordered_map_equalINS_12basic_stringIcNS_11char_traitsIcEENS_9allocatorIcEEEENS_17__hash_value_typeIS6_P9InstanceGEENS_8equal_toIS6_EENS_4hashIS6_EELb1EEclB8ue170006ERKSA_RKS6_, symObjAddr: 0x1395C, symBinAddr: 0x100015148, symSize: 0x48 }
  - { offsetInCU: 0x3599E, offset: 0x3599E, size: 0x8, addend: 0x0, symName: __ZNSt3__112__hash_tableINS_17__hash_value_typeINS_12basic_stringIcNS_11char_traitsIcEENS_9allocatorIcEEEEP9InstanceGEENS_22__unordered_map_hasherIS7_SA_NS_4hashIS7_EENS_8equal_toIS7_EELb1EEENS_21__unordered_map_equalIS7_SA_SF_SD_Lb1EEENS5_ISA_EEE21__construct_node_hashIRKNS_21piecewise_construct_tEJNS_5tupleIJRKS7_EEENSP_IJEEEEEENS_10unique_ptrINS_11__hash_nodeISA_PvEENS_22__hash_node_destructorINS5_ISX_EEEEEEmOT_DpOT0_, symObjAddr: 0x139A4, symBinAddr: 0x100015190, symSize: 0x150 }
  - { offsetInCU: 0x35A3A, offset: 0x35A3A, size: 0x8, addend: 0x0, symName: __ZNSt3__112__hash_tableINS_17__hash_value_typeINS_12basic_stringIcNS_11char_traitsIcEENS_9allocatorIcEEEEP9InstanceGEENS_22__unordered_map_hasherIS7_SA_NS_4hashIS7_EENS_8equal_toIS7_EELb1EEENS_21__unordered_map_equalIS7_SA_SF_SD_Lb1EEENS5_ISA_EEE4sizeB8ue170006Ev, symObjAddr: 0x13AF4, symBinAddr: 0x1000152E0, symSize: 0x28 }
  - { offsetInCU: 0x35A60, offset: 0x35A60, size: 0x8, addend: 0x0, symName: __ZNSt3__112__hash_tableINS_17__hash_value_typeINS_12basic_stringIcNS_11char_traitsIcEENS_9allocatorIcEEEEP9InstanceGEENS_22__unordered_map_hasherIS7_SA_NS_4hashIS7_EENS_8equal_toIS7_EELb1EEENS_21__unordered_map_equalIS7_SA_SF_SD_Lb1EEENS5_ISA_EEE15max_load_factorB8ue170006Ev, symObjAddr: 0x13B1C, symBinAddr: 0x100015308, symSize: 0x28 }
  - { offsetInCU: 0x35A86, offset: 0x35A86, size: 0x8, addend: 0x0, symName: __ZNSt3__112__hash_tableINS_17__hash_value_typeINS_12basic_stringIcNS_11char_traitsIcEENS_9allocatorIcEEEEP9InstanceGEENS_22__unordered_map_hasherIS7_SA_NS_4hashIS7_EENS_8equal_toIS7_EELb1EEENS_21__unordered_map_equalIS7_SA_SF_SD_Lb1EEENS5_ISA_EEE15__rehash_uniqueB8ue170006Em, symObjAddr: 0x13B44, symBinAddr: 0x100015330, symSize: 0x2C }
  - { offsetInCU: 0x35ABB, offset: 0x35ABB, size: 0x8, addend: 0x0, symName: __ZNSt3__116__hash_node_baseIPNS_11__hash_nodeINS_17__hash_value_typeINS_12basic_stringIcNS_11char_traitsIcEENS_9allocatorIcEEEEP9InstanceGEEPvEEE5__ptrB8ue170006Ev, symObjAddr: 0x13B70, symBinAddr: 0x10001535C, symSize: 0x24 }
  - { offsetInCU: 0x35AE1, offset: 0x35AE1, size: 0x8, addend: 0x0, symName: __ZNKSt3__110unique_ptrINS_11__hash_nodeINS_17__hash_value_typeINS_12basic_stringIcNS_11char_traitsIcEENS_9allocatorIcEEEEP9InstanceGEEPvEENS_22__hash_node_destructorINS6_ISD_EEEEEptB8ue170006Ev, symObjAddr: 0x13B94, symBinAddr: 0x100015380, symSize: 0x28 }
  - { offsetInCU: 0x35B07, offset: 0x35B07, size: 0x8, addend: 0x0, symName: __ZNKSt3__110unique_ptrINS_11__hash_nodeINS_17__hash_value_typeINS_12basic_stringIcNS_11char_traitsIcEENS_9allocatorIcEEEEP9InstanceGEEPvEENS_22__hash_node_destructorINS6_ISD_EEEEE3getB8ue170006Ev, symObjAddr: 0x13BBC, symBinAddr: 0x1000153A8, symSize: 0x28 }
  - { offsetInCU: 0x35B2D, offset: 0x35B2D, size: 0x8, addend: 0x0, symName: __ZNSt3__110unique_ptrINS_11__hash_nodeINS_17__hash_value_typeINS_12basic_stringIcNS_11char_traitsIcEENS_9allocatorIcEEEEP9InstanceGEEPvEENS_22__hash_node_destructorINS6_ISD_EEEEE7releaseB8ue170006Ev, symObjAddr: 0x13BE4, symBinAddr: 0x1000153D0, symSize: 0x44 }
  - { offsetInCU: 0x35B62, offset: 0x35B62, size: 0x8, addend: 0x0, symName: __ZNSt3__110unique_ptrINS_11__hash_nodeINS_17__hash_value_typeINS_12basic_stringIcNS_11char_traitsIcEENS_9allocatorIcEEEEP9InstanceGEEPvEENS_22__hash_node_destructorINS6_ISD_EEEEED1B8ue170006Ev, symObjAddr: 0x13C28, symBinAddr: 0x100015414, symSize: 0x2C }
  - { offsetInCU: 0x35B8C, offset: 0x35B8C, size: 0x8, addend: 0x0, symName: __ZNSt3__115__hash_iteratorIPNS_11__hash_nodeINS_17__hash_value_typeINS_12basic_stringIcNS_11char_traitsIcEENS_9allocatorIcEEEEP9InstanceGEEPvEEEC1B8ue170006EPNS_16__hash_node_baseISE_EE, symObjAddr: 0x13C54, symBinAddr: 0x100015440, symSize: 0x34 }
  - { offsetInCU: 0x35BCA, offset: 0x35BCA, size: 0x8, addend: 0x0, symName: __ZNSt3__14pairINS_15__hash_iteratorIPNS_11__hash_nodeINS_17__hash_value_typeINS_12basic_stringIcNS_11char_traitsIcEENS_9allocatorIcEEEEP9InstanceGEEPvEEEEbEC1B8ue170006ISG_RbLSD_0EEEOT_OT0_, symObjAddr: 0x13C88, symBinAddr: 0x100015474, symSize: 0x3C }
  - { offsetInCU: 0x35C28, offset: 0x35C28, size: 0x8, addend: 0x0, symName: __ZNSt3__117__compressed_pairImNS_22__unordered_map_hasherINS_12basic_stringIcNS_11char_traitsIcEENS_9allocatorIcEEEENS_17__hash_value_typeIS7_P9InstanceGEENS_4hashIS7_EENS_8equal_toIS7_EELb1EEEE6secondB8ue170006Ev, symObjAddr: 0x13CC4, symBinAddr: 0x1000154B0, symSize: 0x24 }
  - { offsetInCU: 0x35C4E, offset: 0x35C4E, size: 0x8, addend: 0x0, symName: __ZNSt3__122__compressed_pair_elemINS_22__unordered_map_hasherINS_12basic_stringIcNS_11char_traitsIcEENS_9allocatorIcEEEENS_17__hash_value_typeIS7_P9InstanceGEENS_4hashIS7_EENS_8equal_toIS7_EELb1EEELi1ELb1EE5__getB8ue170006Ev, symObjAddr: 0x13CE8, symBinAddr: 0x1000154D4, symSize: 0x14 }
  - { offsetInCU: 0x35C74, offset: 0x35C74, size: 0x8, addend: 0x0, symName: __ZNKSt3__110unique_ptrIA_PNS_16__hash_node_baseIPNS_11__hash_nodeINS_17__hash_value_typeINS_12basic_stringIcNS_11char_traitsIcEENS_9allocatorIcEEEEP9InstanceGEEPvEEEENS_25__bucket_list_deallocatorINS7_ISH_EEEEE11get_deleterB8ue170006Ev, symObjAddr: 0x13CFC, symBinAddr: 0x1000154E8, symSize: 0x24 }
  - { offsetInCU: 0x35C9A, offset: 0x35C9A, size: 0x8, addend: 0x0, symName: __ZNKSt3__125__bucket_list_deallocatorINS_9allocatorIPNS_16__hash_node_baseIPNS_11__hash_nodeINS_17__hash_value_typeINS_12basic_stringIcNS_11char_traitsIcEENS1_IcEEEEP9InstanceGEEPvEEEEEEE4sizeB8ue170006Ev, symObjAddr: 0x13D20, symBinAddr: 0x10001550C, symSize: 0x28 }
  - { offsetInCU: 0x35CC0, offset: 0x35CC0, size: 0x8, addend: 0x0, symName: __ZNKSt3__117__compressed_pairIPPNS_16__hash_node_baseIPNS_11__hash_nodeINS_17__hash_value_typeINS_12basic_stringIcNS_11char_traitsIcEENS_9allocatorIcEEEEP9InstanceGEEPvEEEENS_25__bucket_list_deallocatorINS7_ISH_EEEEE6secondB8ue170006Ev, symObjAddr: 0x13D48, symBinAddr: 0x100015534, symSize: 0x28 }
  - { offsetInCU: 0x35CE6, offset: 0x35CE6, size: 0x8, addend: 0x0, symName: __ZNKSt3__122__compressed_pair_elemINS_25__bucket_list_deallocatorINS_9allocatorIPNS_16__hash_node_baseIPNS_11__hash_nodeINS_17__hash_value_typeINS_12basic_stringIcNS_11char_traitsIcEENS2_IcEEEEP9InstanceGEEPvEEEEEEEELi1ELb0EE5__getB8ue170006Ev, symObjAddr: 0x13D70, symBinAddr: 0x10001555C, symSize: 0x14 }
  - { offsetInCU: 0x35D0C, offset: 0x35D0C, size: 0x8, addend: 0x0, symName: __ZNKSt3__117__compressed_pairImNS_9allocatorIPNS_16__hash_node_baseIPNS_11__hash_nodeINS_17__hash_value_typeINS_12basic_stringIcNS_11char_traitsIcEENS1_IcEEEEP9InstanceGEEPvEEEEEEE5firstB8ue170006Ev, symObjAddr: 0x13D84, symBinAddr: 0x100015570, symSize: 0x24 }
  - { offsetInCU: 0x35D32, offset: 0x35D32, size: 0x8, addend: 0x0, symName: __ZNKSt3__117__compressed_pairIPPNS_16__hash_node_baseIPNS_11__hash_nodeINS_17__hash_value_typeINS_12basic_stringIcNS_11char_traitsIcEENS_9allocatorIcEEEEP9InstanceGEEPvEEEENS_25__bucket_list_deallocatorINS7_ISH_EEEEE5firstB8ue170006Ev, symObjAddr: 0x13DA8, symBinAddr: 0x100015594, symSize: 0x24 }
  - { offsetInCU: 0x35D58, offset: 0x35D58, size: 0x8, addend: 0x0, symName: __ZNKSt3__122__compressed_pair_elemIPPNS_16__hash_node_baseIPNS_11__hash_nodeINS_17__hash_value_typeINS_12basic_stringIcNS_11char_traitsIcEENS_9allocatorIcEEEEP9InstanceGEEPvEEEELi0ELb0EE5__getB8ue170006Ev, symObjAddr: 0x13DCC, symBinAddr: 0x1000155B8, symSize: 0x14 }
  - { offsetInCU: 0x35D7E, offset: 0x35D7E, size: 0x8, addend: 0x0, symName: __ZNSt3__117__compressed_pairIfNS_21__unordered_map_equalINS_12basic_stringIcNS_11char_traitsIcEENS_9allocatorIcEEEENS_17__hash_value_typeIS7_P9InstanceGEENS_8equal_toIS7_EENS_4hashIS7_EELb1EEEE6secondB8ue170006Ev, symObjAddr: 0x13DE0, symBinAddr: 0x1000155CC, symSize: 0x24 }
  - { offsetInCU: 0x35DA4, offset: 0x35DA4, size: 0x8, addend: 0x0, symName: __ZNSt3__122__compressed_pair_elemINS_21__unordered_map_equalINS_12basic_stringIcNS_11char_traitsIcEENS_9allocatorIcEEEENS_17__hash_value_typeIS7_P9InstanceGEENS_8equal_toIS7_EENS_4hashIS7_EELb1EEELi1ELb1EE5__getB8ue170006Ev, symObjAddr: 0x13E04, symBinAddr: 0x1000155F0, symSize: 0x14 }
  - { offsetInCU: 0x35DCA, offset: 0x35DCA, size: 0x8, addend: 0x0, symName: __ZNKSt3__117__hash_value_typeINS_12basic_stringIcNS_11char_traitsIcEENS_9allocatorIcEEEEP9InstanceGE11__get_valueB8ue170006Ev, symObjAddr: 0x13E18, symBinAddr: 0x100015604, symSize: 0x24 }
  - { offsetInCU: 0x35DF0, offset: 0x35DF0, size: 0x8, addend: 0x0, symName: __ZNSt3__116allocator_traitsINS_9allocatorINS_11__hash_nodeINS_17__hash_value_typeINS_12basic_stringIcNS_11char_traitsIcEENS1_IcEEEEP9InstanceGEEPvEEEEE8allocateB8ue170006ERSE_m, symObjAddr: 0x13E74, symBinAddr: 0x100015660, symSize: 0x2C }
  - { offsetInCU: 0x35E23, offset: 0x35E23, size: 0x8, addend: 0x0, symName: __ZNSt3__122__hash_node_destructorINS_9allocatorINS_11__hash_nodeINS_17__hash_value_typeINS_12basic_stringIcNS_11char_traitsIcEENS1_IcEEEEP9InstanceGEEPvEEEEEC1B8ue170006ERSE_b, symObjAddr: 0x13EA0, symBinAddr: 0x10001568C, symSize: 0x48 }
  - { offsetInCU: 0x35E70, offset: 0x35E70, size: 0x8, addend: 0x0, symName: __ZNSt3__110unique_ptrINS_11__hash_nodeINS_17__hash_value_typeINS_12basic_stringIcNS_11char_traitsIcEENS_9allocatorIcEEEEP9InstanceGEEPvEENS_22__hash_node_destructorINS6_ISD_EEEEEC1B8ue170006ILb1EvEEPSD_NS_16__dependent_typeINS_27__unique_ptr_deleter_sfinaeISG_EEXT_EE20__good_rval_ref_typeE, symObjAddr: 0x13EE8, symBinAddr: 0x1000156D4, symSize: 0x3C }
  - { offsetInCU: 0x35EC1, offset: 0x35EC1, size: 0x8, addend: 0x0, symName: __ZNSt3__116allocator_traitsINS_9allocatorINS_11__hash_nodeINS_17__hash_value_typeINS_12basic_stringIcNS_11char_traitsIcEENS1_IcEEEEP9InstanceGEEPvEEEEE9constructB8ue170006INS_4pairIKS8_SA_EEJRKNS_21piecewise_construct_tENS_5tupleIJRSI_EEENSN_IJEEEEvEEvRSE_PT_DpOT0_, symObjAddr: 0x13F24, symBinAddr: 0x100015710, symSize: 0x44 }
  - { offsetInCU: 0x35F40, offset: 0x35F40, size: 0x8, addend: 0x0, symName: __ZNSt3__110unique_ptrINS_11__hash_nodeINS_17__hash_value_typeINS_12basic_stringIcNS_11char_traitsIcEENS_9allocatorIcEEEEP9InstanceGEEPvEENS_22__hash_node_destructorINS6_ISD_EEEEE11get_deleterB8ue170006Ev, symObjAddr: 0x13F68, symBinAddr: 0x100015754, symSize: 0x24 }
  - { offsetInCU: 0x35F66, offset: 0x35F66, size: 0x8, addend: 0x0, symName: __ZNSt3__19allocatorINS_11__hash_nodeINS_17__hash_value_typeINS_12basic_stringIcNS_11char_traitsIcEENS0_IcEEEEP9InstanceGEEPvEEE8allocateB8ue170006Em, symObjAddr: 0x13F8C, symBinAddr: 0x100015778, symSize: 0x5C }
  - { offsetInCU: 0x35FA4, offset: 0x35FA4, size: 0x8, addend: 0x0, symName: __ZNSt3__116allocator_traitsINS_9allocatorINS_11__hash_nodeINS_17__hash_value_typeINS_12basic_stringIcNS_11char_traitsIcEENS1_IcEEEEP9InstanceGEEPvEEEEE8max_sizeB8ue170006ISE_vEEmRKSE_, symObjAddr: 0x13FE8, symBinAddr: 0x1000157D4, symSize: 0x24 }
  - { offsetInCU: 0x35FD2, offset: 0x35FD2, size: 0x8, addend: 0x0, symName: __ZNKSt3__19allocatorINS_11__hash_nodeINS_17__hash_value_typeINS_12basic_stringIcNS_11char_traitsIcEENS0_IcEEEEP9InstanceGEEPvEEE8max_sizeB8ue170006Ev, symObjAddr: 0x1400C, symBinAddr: 0x1000157F8, symSize: 0x18 }
  - { offsetInCU: 0x35FF8, offset: 0x35FF8, size: 0x8, addend: 0x0, symName: __ZNSt3__122__hash_node_destructorINS_9allocatorINS_11__hash_nodeINS_17__hash_value_typeINS_12basic_stringIcNS_11char_traitsIcEENS1_IcEEEEP9InstanceGEEPvEEEEEC2B8ue170006ERSE_b, symObjAddr: 0x14024, symBinAddr: 0x100015810, symSize: 0x38 }
  - { offsetInCU: 0x36040, offset: 0x36040, size: 0x8, addend: 0x0, symName: __ZNSt3__110unique_ptrINS_11__hash_nodeINS_17__hash_value_typeINS_12basic_stringIcNS_11char_traitsIcEENS_9allocatorIcEEEEP9InstanceGEEPvEENS_22__hash_node_destructorINS6_ISD_EEEEEC2B8ue170006ILb1EvEEPSD_NS_16__dependent_typeINS_27__unique_ptr_deleter_sfinaeISG_EEXT_EE20__good_rval_ref_typeE, symObjAddr: 0x1405C, symBinAddr: 0x100015848, symSize: 0x48 }
  - { offsetInCU: 0x36091, offset: 0x36091, size: 0x8, addend: 0x0, symName: __ZNSt3__117__compressed_pairIPNS_11__hash_nodeINS_17__hash_value_typeINS_12basic_stringIcNS_11char_traitsIcEENS_9allocatorIcEEEEP9InstanceGEEPvEENS_22__hash_node_destructorINS6_ISD_EEEEEC1B8ue170006IRSE_SH_EEOT_OT0_, symObjAddr: 0x140A4, symBinAddr: 0x100015890, symSize: 0x3C }
  - { offsetInCU: 0x360E9, offset: 0x360E9, size: 0x8, addend: 0x0, symName: __ZNSt3__117__compressed_pairIPNS_11__hash_nodeINS_17__hash_value_typeINS_12basic_stringIcNS_11char_traitsIcEENS_9allocatorIcEEEEP9InstanceGEEPvEENS_22__hash_node_destructorINS6_ISD_EEEEEC2B8ue170006IRSE_SH_EEOT_OT0_, symObjAddr: 0x140E0, symBinAddr: 0x1000158CC, symSize: 0x48 }
  - { offsetInCU: 0x36141, offset: 0x36141, size: 0x8, addend: 0x0, symName: __ZNSt3__122__compressed_pair_elemIPNS_11__hash_nodeINS_17__hash_value_typeINS_12basic_stringIcNS_11char_traitsIcEENS_9allocatorIcEEEEP9InstanceGEEPvEELi0ELb0EEC2B8ue170006IRSE_vEEOT_, symObjAddr: 0x14128, symBinAddr: 0x100015914, symSize: 0x24 }
  - { offsetInCU: 0x36183, offset: 0x36183, size: 0x8, addend: 0x0, symName: __ZNSt3__122__compressed_pair_elemINS_22__hash_node_destructorINS_9allocatorINS_11__hash_nodeINS_17__hash_value_typeINS_12basic_stringIcNS_11char_traitsIcEENS2_IcEEEEP9InstanceGEEPvEEEEEELi1ELb0EEC2B8ue170006ISG_vEEOT_, symObjAddr: 0x1414C, symBinAddr: 0x100015938, symSize: 0x24 }
  - { offsetInCU: 0x361C5, offset: 0x361C5, size: 0x8, addend: 0x0, symName: __ZNSt3__19allocatorINS_11__hash_nodeINS_17__hash_value_typeINS_12basic_stringIcNS_11char_traitsIcEENS0_IcEEEEP9InstanceGEEPvEEE9constructB8ue170006INS_4pairIKS7_S9_EEJRKNS_21piecewise_construct_tENS_5tupleIJRSG_EEENSL_IJEEEEEEvPT_DpOT0_, symObjAddr: 0x14170, symBinAddr: 0x10001595C, symSize: 0x44 }
  - { offsetInCU: 0x36241, offset: 0x36241, size: 0x8, addend: 0x0, symName: __ZNSt3__14pairIKNS_12basic_stringIcNS_11char_traitsIcEENS_9allocatorIcEEEEP9InstanceGEC1B8ue170006IJRS7_EJEEENS_21piecewise_construct_tENS_5tupleIJDpT_EEENSE_IJDpT0_EEE, symObjAddr: 0x141B4, symBinAddr: 0x1000159A0, symSize: 0x3C }
  - { offsetInCU: 0x362A8, offset: 0x362A8, size: 0x8, addend: 0x0, symName: __ZNSt3__14pairIKNS_12basic_stringIcNS_11char_traitsIcEENS_9allocatorIcEEEEP9InstanceGEC1B8ue170006IJRS7_EJEJLm0EEJEEENS_21piecewise_construct_tERNS_5tupleIJDpT_EEERNSE_IJDpT0_EEENS_15__tuple_indicesIJXspT1_EEEENSN_IJXspT2_EEEE, symObjAddr: 0x141F0, symBinAddr: 0x1000159DC, symSize: 0x3C }
  - { offsetInCU: 0x36338, offset: 0x36338, size: 0x8, addend: 0x0, symName: __ZNSt3__14pairIKNS_12basic_stringIcNS_11char_traitsIcEENS_9allocatorIcEEEEP9InstanceGEC2B8ue170006IJRS7_EJEJLm0EEJEEENS_21piecewise_construct_tERNS_5tupleIJDpT_EEERNSE_IJDpT0_EEENS_15__tuple_indicesIJXspT1_EEEENSN_IJXspT2_EEEE, symObjAddr: 0x1422C, symBinAddr: 0x100015A18, symSize: 0x48 }
  - { offsetInCU: 0x363C8, offset: 0x363C8, size: 0x8, addend: 0x0, symName: __ZNSt3__117__compressed_pairIPNS_11__hash_nodeINS_17__hash_value_typeINS_12basic_stringIcNS_11char_traitsIcEENS_9allocatorIcEEEEP9InstanceGEEPvEENS_22__hash_node_destructorINS6_ISD_EEEEE6secondB8ue170006Ev, symObjAddr: 0x14274, symBinAddr: 0x100015A60, symSize: 0x28 }
  - { offsetInCU: 0x363EE, offset: 0x363EE, size: 0x8, addend: 0x0, symName: __ZNSt3__122__compressed_pair_elemINS_22__hash_node_destructorINS_9allocatorINS_11__hash_nodeINS_17__hash_value_typeINS_12basic_stringIcNS_11char_traitsIcEENS2_IcEEEEP9InstanceGEEPvEEEEEELi1ELb0EE5__getB8ue170006Ev, symObjAddr: 0x1429C, symBinAddr: 0x100015A88, symSize: 0x14 }
  - { offsetInCU: 0x36414, offset: 0x36414, size: 0x8, addend: 0x0, symName: __ZNSt3__117__compressed_pairImNS_22__unordered_map_hasherINS_12basic_stringIcNS_11char_traitsIcEENS_9allocatorIcEEEENS_17__hash_value_typeIS7_P9InstanceGEENS_4hashIS7_EENS_8equal_toIS7_EELb1EEEE5firstB8ue170006Ev, symObjAddr: 0x142B0, symBinAddr: 0x100015A9C, symSize: 0x24 }
  - { offsetInCU: 0x3643A, offset: 0x3643A, size: 0x8, addend: 0x0, symName: __ZNSt3__117__compressed_pairIfNS_21__unordered_map_equalINS_12basic_stringIcNS_11char_traitsIcEENS_9allocatorIcEEEENS_17__hash_value_typeIS7_P9InstanceGEENS_8equal_toIS7_EENS_4hashIS7_EELb1EEEE5firstB8ue170006Ev, symObjAddr: 0x142D4, symBinAddr: 0x100015AC0, symSize: 0x24 }
  - { offsetInCU: 0x36460, offset: 0x36460, size: 0x8, addend: 0x0, symName: __ZNSt3__112__hash_tableINS_17__hash_value_typeINS_12basic_stringIcNS_11char_traitsIcEENS_9allocatorIcEEEEP9InstanceGEENS_22__unordered_map_hasherIS7_SA_NS_4hashIS7_EENS_8equal_toIS7_EELb1EEENS_21__unordered_map_equalIS7_SA_SF_SD_Lb1EEENS5_ISA_EEE8__rehashILb1EEEvm, symObjAddr: 0x142F8, symBinAddr: 0x100015AE4, symSize: 0x1A8 }
  - { offsetInCU: 0x364B0, offset: 0x364B0, size: 0x8, addend: 0x0, symName: __ZNSt3__112__hash_tableINS_17__hash_value_typeINS_12basic_stringIcNS_11char_traitsIcEENS_9allocatorIcEEEEP9InstanceGEENS_22__unordered_map_hasherIS7_SA_NS_4hashIS7_EENS_8equal_toIS7_EELb1EEENS_21__unordered_map_equalIS7_SA_SF_SD_Lb1EEENS5_ISA_EEE11__do_rehashILb1EEEvm, symObjAddr: 0x144A0, symBinAddr: 0x100015C8C, symSize: 0x288 }
  - { offsetInCU: 0x36593, offset: 0x36593, size: 0x8, addend: 0x0, symName: __ZNSt3__110unique_ptrIA_PNS_16__hash_node_baseIPNS_11__hash_nodeINS_17__hash_value_typeINS_12basic_stringIcNS_11char_traitsIcEENS_9allocatorIcEEEEP9InstanceGEEPvEEEENS_25__bucket_list_deallocatorINS7_ISH_EEEEE11get_deleterB8ue170006Ev, symObjAddr: 0x14728, symBinAddr: 0x100015F14, symSize: 0x24 }
  - { offsetInCU: 0x365B9, offset: 0x365B9, size: 0x8, addend: 0x0, symName: __ZNSt3__110unique_ptrIA_PNS_16__hash_node_baseIPNS_11__hash_nodeINS_17__hash_value_typeINS_12basic_stringIcNS_11char_traitsIcEENS_9allocatorIcEEEEP9InstanceGEEPvEEEENS_25__bucket_list_deallocatorINS7_ISH_EEEEE5resetB8ue170006IPSH_EENS_9enable_ifIXsr28_CheckArrayPointerConversionIT_EE5valueEvE4typeESQ_, symObjAddr: 0x1474C, symBinAddr: 0x100015F38, symSize: 0x78 }
  - { offsetInCU: 0x36606, offset: 0x36606, size: 0x8, addend: 0x0, symName: __ZNSt3__116allocator_traitsINS_9allocatorIPNS_16__hash_node_baseIPNS_11__hash_nodeINS_17__hash_value_typeINS_12basic_stringIcNS_11char_traitsIcEENS1_IcEEEEP9InstanceGEEPvEEEEEEE8allocateB8ue170006ERSI_m, symObjAddr: 0x147C4, symBinAddr: 0x100015FB0, symSize: 0x2C }
  - { offsetInCU: 0x36639, offset: 0x36639, size: 0x8, addend: 0x0, symName: __ZNSt3__19allocatorIPNS_16__hash_node_baseIPNS_11__hash_nodeINS_17__hash_value_typeINS_12basic_stringIcNS_11char_traitsIcEENS0_IcEEEEP9InstanceGEEPvEEEEE8allocateB8ue170006Em, symObjAddr: 0x147F0, symBinAddr: 0x100015FDC, symSize: 0x58 }
  - { offsetInCU: 0x36677, offset: 0x36677, size: 0x8, addend: 0x0, symName: __ZNSt3__116allocator_traitsINS_9allocatorIPNS_16__hash_node_baseIPNS_11__hash_nodeINS_17__hash_value_typeINS_12basic_stringIcNS_11char_traitsIcEENS1_IcEEEEP9InstanceGEEPvEEEEEEE8max_sizeB8ue170006ISI_vEEmRKSI_, symObjAddr: 0x14848, symBinAddr: 0x100016034, symSize: 0x24 }
  - { offsetInCU: 0x366A5, offset: 0x366A5, size: 0x8, addend: 0x0, symName: __ZNKSt3__19allocatorIPNS_16__hash_node_baseIPNS_11__hash_nodeINS_17__hash_value_typeINS_12basic_stringIcNS_11char_traitsIcEENS0_IcEEEEP9InstanceGEEPvEEEEE8max_sizeB8ue170006Ev, symObjAddr: 0x1486C, symBinAddr: 0x100016058, symSize: 0x14 }
  - { offsetInCU: 0x366CB, offset: 0x366CB, size: 0x8, addend: 0x0, symName: __ZNKSt3__117__compressed_pairIPNS_11__hash_nodeINS_17__hash_value_typeINS_12basic_stringIcNS_11char_traitsIcEENS_9allocatorIcEEEEP9InstanceGEEPvEENS_22__hash_node_destructorINS6_ISD_EEEEE5firstB8ue170006Ev, symObjAddr: 0x14880, symBinAddr: 0x10001606C, symSize: 0x24 }
  - { offsetInCU: 0x366F1, offset: 0x366F1, size: 0x8, addend: 0x0, symName: __ZNKSt3__122__compressed_pair_elemIPNS_11__hash_nodeINS_17__hash_value_typeINS_12basic_stringIcNS_11char_traitsIcEENS_9allocatorIcEEEEP9InstanceGEEPvEELi0ELb0EE5__getB8ue170006Ev, symObjAddr: 0x148A4, symBinAddr: 0x100016090, symSize: 0x14 }
  - { offsetInCU: 0x36717, offset: 0x36717, size: 0x8, addend: 0x0, symName: __ZNSt3__117__compressed_pairIPNS_11__hash_nodeINS_17__hash_value_typeINS_12basic_stringIcNS_11char_traitsIcEENS_9allocatorIcEEEEP9InstanceGEEPvEENS_22__hash_node_destructorINS6_ISD_EEEEE5firstB8ue170006Ev, symObjAddr: 0x148B8, symBinAddr: 0x1000160A4, symSize: 0x24 }
  - { offsetInCU: 0x3673D, offset: 0x3673D, size: 0x8, addend: 0x0, symName: __ZNSt3__122__compressed_pair_elemIPNS_11__hash_nodeINS_17__hash_value_typeINS_12basic_stringIcNS_11char_traitsIcEENS_9allocatorIcEEEEP9InstanceGEEPvEELi0ELb0EE5__getB8ue170006Ev, symObjAddr: 0x148DC, symBinAddr: 0x1000160C8, symSize: 0x14 }
  - { offsetInCU: 0x36763, offset: 0x36763, size: 0x8, addend: 0x0, symName: __ZNSt3__110unique_ptrINS_11__hash_nodeINS_17__hash_value_typeINS_12basic_stringIcNS_11char_traitsIcEENS_9allocatorIcEEEEP9InstanceGEEPvEENS_22__hash_node_destructorINS6_ISD_EEEEED2B8ue170006Ev, symObjAddr: 0x148F0, symBinAddr: 0x1000160DC, symSize: 0x30 }
  - { offsetInCU: 0x3678D, offset: 0x3678D, size: 0x8, addend: 0x0, symName: __ZNSt3__110unique_ptrINS_11__hash_nodeINS_17__hash_value_typeINS_12basic_stringIcNS_11char_traitsIcEENS_9allocatorIcEEEEP9InstanceGEEPvEENS_22__hash_node_destructorINS6_ISD_EEEEE5resetB8ue170006EPSD_, symObjAddr: 0x14920, symBinAddr: 0x10001610C, symSize: 0x78 }
  - { offsetInCU: 0x367D1, offset: 0x367D1, size: 0x8, addend: 0x0, symName: __ZNSt3__122__hash_node_destructorINS_9allocatorINS_11__hash_nodeINS_17__hash_value_typeINS_12basic_stringIcNS_11char_traitsIcEENS1_IcEEEEP9InstanceGEEPvEEEEEclB8ue170006EPSD_, symObjAddr: 0x14998, symBinAddr: 0x100016184, symSize: 0x94 }
  - { offsetInCU: 0x36806, offset: 0x36806, size: 0x8, addend: 0x0, symName: __ZNSt3__115__hash_iteratorIPNS_11__hash_nodeINS_17__hash_value_typeINS_12basic_stringIcNS_11char_traitsIcEENS_9allocatorIcEEEEP9InstanceGEEPvEEEC2B8ue170006EPNS_16__hash_node_baseISE_EE, symObjAddr: 0x14A2C, symBinAddr: 0x100016218, symSize: 0x20 }
  - { offsetInCU: 0x3683F, offset: 0x3683F, size: 0x8, addend: 0x0, symName: __ZNSt3__14pairINS_15__hash_iteratorIPNS_11__hash_nodeINS_17__hash_value_typeINS_12basic_stringIcNS_11char_traitsIcEENS_9allocatorIcEEEEP9InstanceGEEPvEEEEbEC2B8ue170006ISG_RbLSD_0EEEOT_OT0_, symObjAddr: 0x14A4C, symBinAddr: 0x100016238, symSize: 0x38 }
  - { offsetInCU: 0x3689D, offset: 0x3689D, size: 0x8, addend: 0x0, symName: __ZNSt3__114pointer_traitsIPNS_17__hash_value_typeINS_12basic_stringIcNS_11char_traitsIcEENS_9allocatorIcEEEEP9InstanceGEEE10pointer_toB8ue170006ERSA_, symObjAddr: 0x14A84, symBinAddr: 0x100016270, symSize: 0x14 }
  - { offsetInCU: 0x368C0, offset: 0x368C0, size: 0x8, addend: 0x0, symName: __ZNSt3__114basic_iostreamIcNS_11char_traitsIcEEEC2B8ue170006EPNS_15basic_streambufIcS2_EE, symObjAddr: 0x14A98, symBinAddr: 0x100016284, symSize: 0xAC }
  - { offsetInCU: 0x36906, offset: 0x36906, size: 0x8, addend: 0x0, symName: __ZNSt3__113basic_ostreamIcNS_11char_traitsIcEEEC2B8ue170006Ev, symObjAddr: 0x14B44, symBinAddr: 0x100016330, symSize: 0x34 }
  - { offsetInCU: 0x3693D, offset: 0x3693D, size: 0x8, addend: 0x0, symName: __ZNSt3__111char_traitsIcE2eqEcc, symObjAddr: 0x14B78, symBinAddr: 0x100016364, symSize: 0x28 }
  - { offsetInCU: 0x3696E, offset: 0x3696E, size: 0x8, addend: 0x0, symName: __ZNSt3__112__hash_tableINS_17__hash_value_typeINS_12basic_stringIcNS_11char_traitsIcEENS_9allocatorIcEEEEP9InstanceFEENS_22__unordered_map_hasherIS7_SA_NS_4hashIS7_EENS_8equal_toIS7_EELb1EEENS_21__unordered_map_equalIS7_SA_SF_SD_Lb1EEENS5_ISA_EEE4findIS7_EENS_15__hash_iteratorIPNS_11__hash_nodeISA_PvEEEERKT_, symObjAddr: 0x14BA0, symBinAddr: 0x10001638C, symSize: 0x1B0 }
  - { offsetInCU: 0x369F8, offset: 0x369F8, size: 0x8, addend: 0x0, symName: __ZNSt3__119__hash_map_iteratorINS_15__hash_iteratorIPNS_11__hash_nodeINS_17__hash_value_typeINS_12basic_stringIcNS_11char_traitsIcEENS_9allocatorIcEEEEP9InstanceFEEPvEEEEEC1B8ue170006ESG_, symObjAddr: 0x14D50, symBinAddr: 0x10001653C, symSize: 0x34 }
  - { offsetInCU: 0x36A31, offset: 0x36A31, size: 0x8, addend: 0x0, symName: __ZNSt3__112__hash_tableINS_17__hash_value_typeINS_12basic_stringIcNS_11char_traitsIcEENS_9allocatorIcEEEEP9InstanceFEENS_22__unordered_map_hasherIS7_SA_NS_4hashIS7_EENS_8equal_toIS7_EELb1EEENS_21__unordered_map_equalIS7_SA_SF_SD_Lb1EEENS5_ISA_EEE3endEv, symObjAddr: 0x14D84, symBinAddr: 0x100016570, symSize: 0x2C }
  - { offsetInCU: 0x36A59, offset: 0x36A59, size: 0x8, addend: 0x0, symName: __ZNSt3__119__hash_map_iteratorINS_15__hash_iteratorIPNS_11__hash_nodeINS_17__hash_value_typeINS_12basic_stringIcNS_11char_traitsIcEENS_9allocatorIcEEEEP9InstanceFEEPvEEEEEC2B8ue170006ESG_, symObjAddr: 0x14DB0, symBinAddr: 0x10001659C, symSize: 0x20 }
  - { offsetInCU: 0x36A92, offset: 0x36A92, size: 0x8, addend: 0x0, symName: __ZNSt3__112__hash_tableINS_17__hash_value_typeINS_12basic_stringIcNS_11char_traitsIcEENS_9allocatorIcEEEEP3PinEENS_22__unordered_map_hasherIS7_SA_NS_4hashIS7_EENS_8equal_toIS7_EELb1EEENS_21__unordered_map_equalIS7_SA_SF_SD_Lb1EEENS5_ISA_EEE4findIS7_EENS_15__hash_iteratorIPNS_11__hash_nodeISA_PvEEEERKT_, symObjAddr: 0x14E34, symBinAddr: 0x100016620, symSize: 0x1B0 }
  - { offsetInCU: 0x36B1C, offset: 0x36B1C, size: 0x8, addend: 0x0, symName: __ZNSt3__112__hash_tableINS_17__hash_value_typeINS_12basic_stringIcNS_11char_traitsIcEENS_9allocatorIcEEEEP3NetEENS_22__unordered_map_hasherIS7_SA_NS_4hashIS7_EENS_8equal_toIS7_EELb1EEENS_21__unordered_map_equalIS7_SA_SF_SD_Lb1EEENS5_ISA_EEE25__emplace_unique_key_argsIS7_JRKNS_21piecewise_construct_tENS_5tupleIJRKS7_EEENSP_IJEEEEEENS_4pairINS_15__hash_iteratorIPNS_11__hash_nodeISA_PvEEEEbEERKT_DpOT0_, symObjAddr: 0x14FE4, symBinAddr: 0x1000167D0, symSize: 0x4CC }
  - { offsetInCU: 0x36C26, offset: 0x36C26, size: 0x8, addend: 0x0, symName: __ZNKSt3__115__hash_iteratorIPNS_11__hash_nodeINS_17__hash_value_typeINS_12basic_stringIcNS_11char_traitsIcEENS_9allocatorIcEEEEP3NetEEPvEEEptB8ue170006Ev, symObjAddr: 0x154B0, symBinAddr: 0x100016C9C, symSize: 0x30 }
  - { offsetInCU: 0x36C4C, offset: 0x36C4C, size: 0x8, addend: 0x0, symName: __ZNSt3__112__hash_tableINS_17__hash_value_typeINS_12basic_stringIcNS_11char_traitsIcEENS_9allocatorIcEEEEP3NetEENS_22__unordered_map_hasherIS7_SA_NS_4hashIS7_EENS_8equal_toIS7_EELb1EEENS_21__unordered_map_equalIS7_SA_SF_SD_Lb1EEENS5_ISA_EEE13hash_functionB8ue170006Ev, symObjAddr: 0x154E0, symBinAddr: 0x100016CCC, symSize: 0x28 }
  - { offsetInCU: 0x36C72, offset: 0x36C72, size: 0x8, addend: 0x0, symName: __ZNKSt3__122__unordered_map_hasherINS_12basic_stringIcNS_11char_traitsIcEENS_9allocatorIcEEEENS_17__hash_value_typeIS6_P3NetEENS_4hashIS6_EENS_8equal_toIS6_EELb1EEclB8ue170006ERKS6_, symObjAddr: 0x15508, symBinAddr: 0x100016CF4, symSize: 0x2C }
  - { offsetInCU: 0x36CA7, offset: 0x36CA7, size: 0x8, addend: 0x0, symName: __ZNKSt3__112__hash_tableINS_17__hash_value_typeINS_12basic_stringIcNS_11char_traitsIcEENS_9allocatorIcEEEEP3NetEENS_22__unordered_map_hasherIS7_SA_NS_4hashIS7_EENS_8equal_toIS7_EELb1EEENS_21__unordered_map_equalIS7_SA_SF_SD_Lb1EEENS5_ISA_EEE12bucket_countB8ue170006Ev, symObjAddr: 0x15534, symBinAddr: 0x100016D20, symSize: 0x28 }
  - { offsetInCU: 0x36CCD, offset: 0x36CCD, size: 0x8, addend: 0x0, symName: __ZNKSt3__110unique_ptrIA_PNS_16__hash_node_baseIPNS_11__hash_nodeINS_17__hash_value_typeINS_12basic_stringIcNS_11char_traitsIcEENS_9allocatorIcEEEEP3NetEEPvEEEENS_25__bucket_list_deallocatorINS7_ISH_EEEEEixB8ue170006Em, symObjAddr: 0x1555C, symBinAddr: 0x100016D48, symSize: 0x34 }
  - { offsetInCU: 0x36D02, offset: 0x36D02, size: 0x8, addend: 0x0, symName: __ZNKSt3__116__hash_node_baseIPNS_11__hash_nodeINS_17__hash_value_typeINS_12basic_stringIcNS_11char_traitsIcEENS_9allocatorIcEEEEP3NetEEPvEEE6__hashB8ue170006Ev, symObjAddr: 0x15590, symBinAddr: 0x100016D7C, symSize: 0x18 }
  - { offsetInCU: 0x36D28, offset: 0x36D28, size: 0x8, addend: 0x0, symName: __ZNSt3__112__hash_tableINS_17__hash_value_typeINS_12basic_stringIcNS_11char_traitsIcEENS_9allocatorIcEEEEP3NetEENS_22__unordered_map_hasherIS7_SA_NS_4hashIS7_EENS_8equal_toIS7_EELb1EEENS_21__unordered_map_equalIS7_SA_SF_SD_Lb1EEENS5_ISA_EEE6key_eqB8ue170006Ev, symObjAddr: 0x155A8, symBinAddr: 0x100016D94, symSize: 0x28 }
  - { offsetInCU: 0x36D4E, offset: 0x36D4E, size: 0x8, addend: 0x0, symName: __ZNKSt3__121__unordered_map_equalINS_12basic_stringIcNS_11char_traitsIcEENS_9allocatorIcEEEENS_17__hash_value_typeIS6_P3NetEENS_8equal_toIS6_EENS_4hashIS6_EELb1EEclB8ue170006ERKSA_RKS6_, symObjAddr: 0x155D0, symBinAddr: 0x100016DBC, symSize: 0x48 }
  - { offsetInCU: 0x36D92, offset: 0x36D92, size: 0x8, addend: 0x0, symName: __ZNSt3__112__hash_tableINS_17__hash_value_typeINS_12basic_stringIcNS_11char_traitsIcEENS_9allocatorIcEEEEP3NetEENS_22__unordered_map_hasherIS7_SA_NS_4hashIS7_EENS_8equal_toIS7_EELb1EEENS_21__unordered_map_equalIS7_SA_SF_SD_Lb1EEENS5_ISA_EEE21__construct_node_hashIRKNS_21piecewise_construct_tEJNS_5tupleIJRKS7_EEENSP_IJEEEEEENS_10unique_ptrINS_11__hash_nodeISA_PvEENS_22__hash_node_destructorINS5_ISX_EEEEEEmOT_DpOT0_, symObjAddr: 0x15618, symBinAddr: 0x100016E04, symSize: 0x150 }
  - { offsetInCU: 0x36E2E, offset: 0x36E2E, size: 0x8, addend: 0x0, symName: __ZNSt3__112__hash_tableINS_17__hash_value_typeINS_12basic_stringIcNS_11char_traitsIcEENS_9allocatorIcEEEEP3NetEENS_22__unordered_map_hasherIS7_SA_NS_4hashIS7_EENS_8equal_toIS7_EELb1EEENS_21__unordered_map_equalIS7_SA_SF_SD_Lb1EEENS5_ISA_EEE4sizeB8ue170006Ev, symObjAddr: 0x15768, symBinAddr: 0x100016F54, symSize: 0x28 }
  - { offsetInCU: 0x36E54, offset: 0x36E54, size: 0x8, addend: 0x0, symName: __ZNSt3__112__hash_tableINS_17__hash_value_typeINS_12basic_stringIcNS_11char_traitsIcEENS_9allocatorIcEEEEP3NetEENS_22__unordered_map_hasherIS7_SA_NS_4hashIS7_EENS_8equal_toIS7_EELb1EEENS_21__unordered_map_equalIS7_SA_SF_SD_Lb1EEENS5_ISA_EEE15max_load_factorB8ue170006Ev, symObjAddr: 0x15790, symBinAddr: 0x100016F7C, symSize: 0x28 }
  - { offsetInCU: 0x36E7A, offset: 0x36E7A, size: 0x8, addend: 0x0, symName: __ZNSt3__112__hash_tableINS_17__hash_value_typeINS_12basic_stringIcNS_11char_traitsIcEENS_9allocatorIcEEEEP3NetEENS_22__unordered_map_hasherIS7_SA_NS_4hashIS7_EENS_8equal_toIS7_EELb1EEENS_21__unordered_map_equalIS7_SA_SF_SD_Lb1EEENS5_ISA_EEE15__rehash_uniqueB8ue170006Em, symObjAddr: 0x157B8, symBinAddr: 0x100016FA4, symSize: 0x2C }
  - { offsetInCU: 0x36EAF, offset: 0x36EAF, size: 0x8, addend: 0x0, symName: __ZNSt3__116__hash_node_baseIPNS_11__hash_nodeINS_17__hash_value_typeINS_12basic_stringIcNS_11char_traitsIcEENS_9allocatorIcEEEEP3NetEEPvEEE5__ptrB8ue170006Ev, symObjAddr: 0x157E4, symBinAddr: 0x100016FD0, symSize: 0x24 }
  - { offsetInCU: 0x36ED5, offset: 0x36ED5, size: 0x8, addend: 0x0, symName: __ZNKSt3__110unique_ptrINS_11__hash_nodeINS_17__hash_value_typeINS_12basic_stringIcNS_11char_traitsIcEENS_9allocatorIcEEEEP3NetEEPvEENS_22__hash_node_destructorINS6_ISD_EEEEEptB8ue170006Ev, symObjAddr: 0x15808, symBinAddr: 0x100016FF4, symSize: 0x28 }
  - { offsetInCU: 0x36EFB, offset: 0x36EFB, size: 0x8, addend: 0x0, symName: __ZNKSt3__110unique_ptrINS_11__hash_nodeINS_17__hash_value_typeINS_12basic_stringIcNS_11char_traitsIcEENS_9allocatorIcEEEEP3NetEEPvEENS_22__hash_node_destructorINS6_ISD_EEEEE3getB8ue170006Ev, symObjAddr: 0x15830, symBinAddr: 0x10001701C, symSize: 0x28 }
  - { offsetInCU: 0x36F21, offset: 0x36F21, size: 0x8, addend: 0x0, symName: __ZNSt3__110unique_ptrINS_11__hash_nodeINS_17__hash_value_typeINS_12basic_stringIcNS_11char_traitsIcEENS_9allocatorIcEEEEP3NetEEPvEENS_22__hash_node_destructorINS6_ISD_EEEEE7releaseB8ue170006Ev, symObjAddr: 0x15858, symBinAddr: 0x100017044, symSize: 0x44 }
  - { offsetInCU: 0x36F56, offset: 0x36F56, size: 0x8, addend: 0x0, symName: __ZNSt3__110unique_ptrINS_11__hash_nodeINS_17__hash_value_typeINS_12basic_stringIcNS_11char_traitsIcEENS_9allocatorIcEEEEP3NetEEPvEENS_22__hash_node_destructorINS6_ISD_EEEEED1B8ue170006Ev, symObjAddr: 0x1589C, symBinAddr: 0x100017088, symSize: 0x2C }
  - { offsetInCU: 0x36F80, offset: 0x36F80, size: 0x8, addend: 0x0, symName: __ZNSt3__115__hash_iteratorIPNS_11__hash_nodeINS_17__hash_value_typeINS_12basic_stringIcNS_11char_traitsIcEENS_9allocatorIcEEEEP3NetEEPvEEEC1B8ue170006EPNS_16__hash_node_baseISE_EE, symObjAddr: 0x158C8, symBinAddr: 0x1000170B4, symSize: 0x34 }
  - { offsetInCU: 0x36FBE, offset: 0x36FBE, size: 0x8, addend: 0x0, symName: __ZNSt3__14pairINS_15__hash_iteratorIPNS_11__hash_nodeINS_17__hash_value_typeINS_12basic_stringIcNS_11char_traitsIcEENS_9allocatorIcEEEEP3NetEEPvEEEEbEC1B8ue170006ISG_RbLSD_0EEEOT_OT0_, symObjAddr: 0x158FC, symBinAddr: 0x1000170E8, symSize: 0x3C }
  - { offsetInCU: 0x3701C, offset: 0x3701C, size: 0x8, addend: 0x0, symName: __ZNSt3__117__compressed_pairImNS_22__unordered_map_hasherINS_12basic_stringIcNS_11char_traitsIcEENS_9allocatorIcEEEENS_17__hash_value_typeIS7_P3NetEENS_4hashIS7_EENS_8equal_toIS7_EELb1EEEE6secondB8ue170006Ev, symObjAddr: 0x15938, symBinAddr: 0x100017124, symSize: 0x24 }
  - { offsetInCU: 0x37042, offset: 0x37042, size: 0x8, addend: 0x0, symName: __ZNSt3__122__compressed_pair_elemINS_22__unordered_map_hasherINS_12basic_stringIcNS_11char_traitsIcEENS_9allocatorIcEEEENS_17__hash_value_typeIS7_P3NetEENS_4hashIS7_EENS_8equal_toIS7_EELb1EEELi1ELb1EE5__getB8ue170006Ev, symObjAddr: 0x1595C, symBinAddr: 0x100017148, symSize: 0x14 }
  - { offsetInCU: 0x37068, offset: 0x37068, size: 0x8, addend: 0x0, symName: __ZNKSt3__110unique_ptrIA_PNS_16__hash_node_baseIPNS_11__hash_nodeINS_17__hash_value_typeINS_12basic_stringIcNS_11char_traitsIcEENS_9allocatorIcEEEEP3NetEEPvEEEENS_25__bucket_list_deallocatorINS7_ISH_EEEEE11get_deleterB8ue170006Ev, symObjAddr: 0x15970, symBinAddr: 0x10001715C, symSize: 0x24 }
  - { offsetInCU: 0x3708E, offset: 0x3708E, size: 0x8, addend: 0x0, symName: __ZNKSt3__125__bucket_list_deallocatorINS_9allocatorIPNS_16__hash_node_baseIPNS_11__hash_nodeINS_17__hash_value_typeINS_12basic_stringIcNS_11char_traitsIcEENS1_IcEEEEP3NetEEPvEEEEEEE4sizeB8ue170006Ev, symObjAddr: 0x15994, symBinAddr: 0x100017180, symSize: 0x28 }
  - { offsetInCU: 0x370B4, offset: 0x370B4, size: 0x8, addend: 0x0, symName: __ZNKSt3__117__compressed_pairIPPNS_16__hash_node_baseIPNS_11__hash_nodeINS_17__hash_value_typeINS_12basic_stringIcNS_11char_traitsIcEENS_9allocatorIcEEEEP3NetEEPvEEEENS_25__bucket_list_deallocatorINS7_ISH_EEEEE6secondB8ue170006Ev, symObjAddr: 0x159BC, symBinAddr: 0x1000171A8, symSize: 0x28 }
  - { offsetInCU: 0x370DA, offset: 0x370DA, size: 0x8, addend: 0x0, symName: __ZNKSt3__122__compressed_pair_elemINS_25__bucket_list_deallocatorINS_9allocatorIPNS_16__hash_node_baseIPNS_11__hash_nodeINS_17__hash_value_typeINS_12basic_stringIcNS_11char_traitsIcEENS2_IcEEEEP3NetEEPvEEEEEEEELi1ELb0EE5__getB8ue170006Ev, symObjAddr: 0x159E4, symBinAddr: 0x1000171D0, symSize: 0x14 }
  - { offsetInCU: 0x37100, offset: 0x37100, size: 0x8, addend: 0x0, symName: __ZNKSt3__117__compressed_pairImNS_9allocatorIPNS_16__hash_node_baseIPNS_11__hash_nodeINS_17__hash_value_typeINS_12basic_stringIcNS_11char_traitsIcEENS1_IcEEEEP3NetEEPvEEEEEEE5firstB8ue170006Ev, symObjAddr: 0x159F8, symBinAddr: 0x1000171E4, symSize: 0x24 }
  - { offsetInCU: 0x37126, offset: 0x37126, size: 0x8, addend: 0x0, symName: __ZNKSt3__117__compressed_pairIPPNS_16__hash_node_baseIPNS_11__hash_nodeINS_17__hash_value_typeINS_12basic_stringIcNS_11char_traitsIcEENS_9allocatorIcEEEEP3NetEEPvEEEENS_25__bucket_list_deallocatorINS7_ISH_EEEEE5firstB8ue170006Ev, symObjAddr: 0x15A1C, symBinAddr: 0x100017208, symSize: 0x24 }
  - { offsetInCU: 0x3714C, offset: 0x3714C, size: 0x8, addend: 0x0, symName: __ZNKSt3__122__compressed_pair_elemIPPNS_16__hash_node_baseIPNS_11__hash_nodeINS_17__hash_value_typeINS_12basic_stringIcNS_11char_traitsIcEENS_9allocatorIcEEEEP3NetEEPvEEEELi0ELb0EE5__getB8ue170006Ev, symObjAddr: 0x15A40, symBinAddr: 0x10001722C, symSize: 0x14 }
  - { offsetInCU: 0x37172, offset: 0x37172, size: 0x8, addend: 0x0, symName: __ZNSt3__117__compressed_pairIfNS_21__unordered_map_equalINS_12basic_stringIcNS_11char_traitsIcEENS_9allocatorIcEEEENS_17__hash_value_typeIS7_P3NetEENS_8equal_toIS7_EENS_4hashIS7_EELb1EEEE6secondB8ue170006Ev, symObjAddr: 0x15A54, symBinAddr: 0x100017240, symSize: 0x24 }
  - { offsetInCU: 0x37198, offset: 0x37198, size: 0x8, addend: 0x0, symName: __ZNSt3__122__compressed_pair_elemINS_21__unordered_map_equalINS_12basic_stringIcNS_11char_traitsIcEENS_9allocatorIcEEEENS_17__hash_value_typeIS7_P3NetEENS_8equal_toIS7_EENS_4hashIS7_EELb1EEELi1ELb1EE5__getB8ue170006Ev, symObjAddr: 0x15A78, symBinAddr: 0x100017264, symSize: 0x14 }
  - { offsetInCU: 0x371BE, offset: 0x371BE, size: 0x8, addend: 0x0, symName: __ZNKSt3__117__hash_value_typeINS_12basic_stringIcNS_11char_traitsIcEENS_9allocatorIcEEEEP3NetE11__get_valueB8ue170006Ev, symObjAddr: 0x15A8C, symBinAddr: 0x100017278, symSize: 0x24 }
  - { offsetInCU: 0x371E4, offset: 0x371E4, size: 0x8, addend: 0x0, symName: __ZNSt3__116allocator_traitsINS_9allocatorINS_11__hash_nodeINS_17__hash_value_typeINS_12basic_stringIcNS_11char_traitsIcEENS1_IcEEEEP3NetEEPvEEEEE8allocateB8ue170006ERSE_m, symObjAddr: 0x15AE8, symBinAddr: 0x1000172D4, symSize: 0x2C }
  - { offsetInCU: 0x37217, offset: 0x37217, size: 0x8, addend: 0x0, symName: __ZNSt3__122__hash_node_destructorINS_9allocatorINS_11__hash_nodeINS_17__hash_value_typeINS_12basic_stringIcNS_11char_traitsIcEENS1_IcEEEEP3NetEEPvEEEEEC1B8ue170006ERSE_b, symObjAddr: 0x15B14, symBinAddr: 0x100017300, symSize: 0x48 }
  - { offsetInCU: 0x37264, offset: 0x37264, size: 0x8, addend: 0x0, symName: __ZNSt3__110unique_ptrINS_11__hash_nodeINS_17__hash_value_typeINS_12basic_stringIcNS_11char_traitsIcEENS_9allocatorIcEEEEP3NetEEPvEENS_22__hash_node_destructorINS6_ISD_EEEEEC1B8ue170006ILb1EvEEPSD_NS_16__dependent_typeINS_27__unique_ptr_deleter_sfinaeISG_EEXT_EE20__good_rval_ref_typeE, symObjAddr: 0x15B5C, symBinAddr: 0x100017348, symSize: 0x3C }
  - { offsetInCU: 0x372B5, offset: 0x372B5, size: 0x8, addend: 0x0, symName: __ZNSt3__116allocator_traitsINS_9allocatorINS_11__hash_nodeINS_17__hash_value_typeINS_12basic_stringIcNS_11char_traitsIcEENS1_IcEEEEP3NetEEPvEEEEE9constructB8ue170006INS_4pairIKS8_SA_EEJRKNS_21piecewise_construct_tENS_5tupleIJRSI_EEENSN_IJEEEEvEEvRSE_PT_DpOT0_, symObjAddr: 0x15B98, symBinAddr: 0x100017384, symSize: 0x44 }
  - { offsetInCU: 0x37334, offset: 0x37334, size: 0x8, addend: 0x0, symName: __ZNSt3__110unique_ptrINS_11__hash_nodeINS_17__hash_value_typeINS_12basic_stringIcNS_11char_traitsIcEENS_9allocatorIcEEEEP3NetEEPvEENS_22__hash_node_destructorINS6_ISD_EEEEE11get_deleterB8ue170006Ev, symObjAddr: 0x15BDC, symBinAddr: 0x1000173C8, symSize: 0x24 }
  - { offsetInCU: 0x3735A, offset: 0x3735A, size: 0x8, addend: 0x0, symName: __ZNSt3__19allocatorINS_11__hash_nodeINS_17__hash_value_typeINS_12basic_stringIcNS_11char_traitsIcEENS0_IcEEEEP3NetEEPvEEE8allocateB8ue170006Em, symObjAddr: 0x15C00, symBinAddr: 0x1000173EC, symSize: 0x5C }
  - { offsetInCU: 0x37398, offset: 0x37398, size: 0x8, addend: 0x0, symName: __ZNSt3__116allocator_traitsINS_9allocatorINS_11__hash_nodeINS_17__hash_value_typeINS_12basic_stringIcNS_11char_traitsIcEENS1_IcEEEEP3NetEEPvEEEEE8max_sizeB8ue170006ISE_vEEmRKSE_, symObjAddr: 0x15C5C, symBinAddr: 0x100017448, symSize: 0x24 }
  - { offsetInCU: 0x373C6, offset: 0x373C6, size: 0x8, addend: 0x0, symName: __ZNKSt3__19allocatorINS_11__hash_nodeINS_17__hash_value_typeINS_12basic_stringIcNS_11char_traitsIcEENS0_IcEEEEP3NetEEPvEEE8max_sizeB8ue170006Ev, symObjAddr: 0x15C80, symBinAddr: 0x10001746C, symSize: 0x18 }
  - { offsetInCU: 0x373EC, offset: 0x373EC, size: 0x8, addend: 0x0, symName: __ZNSt3__122__hash_node_destructorINS_9allocatorINS_11__hash_nodeINS_17__hash_value_typeINS_12basic_stringIcNS_11char_traitsIcEENS1_IcEEEEP3NetEEPvEEEEEC2B8ue170006ERSE_b, symObjAddr: 0x15C98, symBinAddr: 0x100017484, symSize: 0x38 }
  - { offsetInCU: 0x37434, offset: 0x37434, size: 0x8, addend: 0x0, symName: __ZNSt3__110unique_ptrINS_11__hash_nodeINS_17__hash_value_typeINS_12basic_stringIcNS_11char_traitsIcEENS_9allocatorIcEEEEP3NetEEPvEENS_22__hash_node_destructorINS6_ISD_EEEEEC2B8ue170006ILb1EvEEPSD_NS_16__dependent_typeINS_27__unique_ptr_deleter_sfinaeISG_EEXT_EE20__good_rval_ref_typeE, symObjAddr: 0x15CD0, symBinAddr: 0x1000174BC, symSize: 0x48 }
  - { offsetInCU: 0x37485, offset: 0x37485, size: 0x8, addend: 0x0, symName: __ZNSt3__117__compressed_pairIPNS_11__hash_nodeINS_17__hash_value_typeINS_12basic_stringIcNS_11char_traitsIcEENS_9allocatorIcEEEEP3NetEEPvEENS_22__hash_node_destructorINS6_ISD_EEEEEC1B8ue170006IRSE_SH_EEOT_OT0_, symObjAddr: 0x15D18, symBinAddr: 0x100017504, symSize: 0x3C }
  - { offsetInCU: 0x374DD, offset: 0x374DD, size: 0x8, addend: 0x0, symName: __ZNSt3__117__compressed_pairIPNS_11__hash_nodeINS_17__hash_value_typeINS_12basic_stringIcNS_11char_traitsIcEENS_9allocatorIcEEEEP3NetEEPvEENS_22__hash_node_destructorINS6_ISD_EEEEEC2B8ue170006IRSE_SH_EEOT_OT0_, symObjAddr: 0x15D54, symBinAddr: 0x100017540, symSize: 0x48 }
  - { offsetInCU: 0x37535, offset: 0x37535, size: 0x8, addend: 0x0, symName: __ZNSt3__122__compressed_pair_elemIPNS_11__hash_nodeINS_17__hash_value_typeINS_12basic_stringIcNS_11char_traitsIcEENS_9allocatorIcEEEEP3NetEEPvEELi0ELb0EEC2B8ue170006IRSE_vEEOT_, symObjAddr: 0x15D9C, symBinAddr: 0x100017588, symSize: 0x24 }
  - { offsetInCU: 0x37577, offset: 0x37577, size: 0x8, addend: 0x0, symName: __ZNSt3__122__compressed_pair_elemINS_22__hash_node_destructorINS_9allocatorINS_11__hash_nodeINS_17__hash_value_typeINS_12basic_stringIcNS_11char_traitsIcEENS2_IcEEEEP3NetEEPvEEEEEELi1ELb0EEC2B8ue170006ISG_vEEOT_, symObjAddr: 0x15DC0, symBinAddr: 0x1000175AC, symSize: 0x24 }
  - { offsetInCU: 0x375B9, offset: 0x375B9, size: 0x8, addend: 0x0, symName: __ZNSt3__19allocatorINS_11__hash_nodeINS_17__hash_value_typeINS_12basic_stringIcNS_11char_traitsIcEENS0_IcEEEEP3NetEEPvEEE9constructB8ue170006INS_4pairIKS7_S9_EEJRKNS_21piecewise_construct_tENS_5tupleIJRSG_EEENSL_IJEEEEEEvPT_DpOT0_, symObjAddr: 0x15DE4, symBinAddr: 0x1000175D0, symSize: 0x44 }
  - { offsetInCU: 0x37635, offset: 0x37635, size: 0x8, addend: 0x0, symName: __ZNSt3__14pairIKNS_12basic_stringIcNS_11char_traitsIcEENS_9allocatorIcEEEEP3NetEC1B8ue170006IJRS7_EJEEENS_21piecewise_construct_tENS_5tupleIJDpT_EEENSE_IJDpT0_EEE, symObjAddr: 0x15E28, symBinAddr: 0x100017614, symSize: 0x3C }
  - { offsetInCU: 0x3769C, offset: 0x3769C, size: 0x8, addend: 0x0, symName: __ZNSt3__14pairIKNS_12basic_stringIcNS_11char_traitsIcEENS_9allocatorIcEEEEP3NetEC1B8ue170006IJRS7_EJEJLm0EEJEEENS_21piecewise_construct_tERNS_5tupleIJDpT_EEERNSE_IJDpT0_EEENS_15__tuple_indicesIJXspT1_EEEENSN_IJXspT2_EEEE, symObjAddr: 0x15E64, symBinAddr: 0x100017650, symSize: 0x3C }
  - { offsetInCU: 0x3772C, offset: 0x3772C, size: 0x8, addend: 0x0, symName: __ZNSt3__14pairIKNS_12basic_stringIcNS_11char_traitsIcEENS_9allocatorIcEEEEP3NetEC2B8ue170006IJRS7_EJEJLm0EEJEEENS_21piecewise_construct_tERNS_5tupleIJDpT_EEERNSE_IJDpT0_EEENS_15__tuple_indicesIJXspT1_EEEENSN_IJXspT2_EEEE, symObjAddr: 0x15EA0, symBinAddr: 0x10001768C, symSize: 0x48 }
  - { offsetInCU: 0x377BC, offset: 0x377BC, size: 0x8, addend: 0x0, symName: __ZNSt3__117__compressed_pairIPNS_11__hash_nodeINS_17__hash_value_typeINS_12basic_stringIcNS_11char_traitsIcEENS_9allocatorIcEEEEP3NetEEPvEENS_22__hash_node_destructorINS6_ISD_EEEEE6secondB8ue170006Ev, symObjAddr: 0x15EE8, symBinAddr: 0x1000176D4, symSize: 0x28 }
  - { offsetInCU: 0x377E2, offset: 0x377E2, size: 0x8, addend: 0x0, symName: __ZNSt3__122__compressed_pair_elemINS_22__hash_node_destructorINS_9allocatorINS_11__hash_nodeINS_17__hash_value_typeINS_12basic_stringIcNS_11char_traitsIcEENS2_IcEEEEP3NetEEPvEEEEEELi1ELb0EE5__getB8ue170006Ev, symObjAddr: 0x15F10, symBinAddr: 0x1000176FC, symSize: 0x14 }
  - { offsetInCU: 0x37808, offset: 0x37808, size: 0x8, addend: 0x0, symName: __ZNSt3__117__compressed_pairImNS_22__unordered_map_hasherINS_12basic_stringIcNS_11char_traitsIcEENS_9allocatorIcEEEENS_17__hash_value_typeIS7_P3NetEENS_4hashIS7_EENS_8equal_toIS7_EELb1EEEE5firstB8ue170006Ev, symObjAddr: 0x15F24, symBinAddr: 0x100017710, symSize: 0x24 }
  - { offsetInCU: 0x3782E, offset: 0x3782E, size: 0x8, addend: 0x0, symName: __ZNSt3__117__compressed_pairIfNS_21__unordered_map_equalINS_12basic_stringIcNS_11char_traitsIcEENS_9allocatorIcEEEENS_17__hash_value_typeIS7_P3NetEENS_8equal_toIS7_EENS_4hashIS7_EELb1EEEE5firstB8ue170006Ev, symObjAddr: 0x15F48, symBinAddr: 0x100017734, symSize: 0x24 }
  - { offsetInCU: 0x37854, offset: 0x37854, size: 0x8, addend: 0x0, symName: __ZNSt3__112__hash_tableINS_17__hash_value_typeINS_12basic_stringIcNS_11char_traitsIcEENS_9allocatorIcEEEEP3NetEENS_22__unordered_map_hasherIS7_SA_NS_4hashIS7_EENS_8equal_toIS7_EELb1EEENS_21__unordered_map_equalIS7_SA_SF_SD_Lb1EEENS5_ISA_EEE8__rehashILb1EEEvm, symObjAddr: 0x15F6C, symBinAddr: 0x100017758, symSize: 0x1A8 }
  - { offsetInCU: 0x378A4, offset: 0x378A4, size: 0x8, addend: 0x0, symName: __ZNSt3__112__hash_tableINS_17__hash_value_typeINS_12basic_stringIcNS_11char_traitsIcEENS_9allocatorIcEEEEP3NetEENS_22__unordered_map_hasherIS7_SA_NS_4hashIS7_EENS_8equal_toIS7_EELb1EEENS_21__unordered_map_equalIS7_SA_SF_SD_Lb1EEENS5_ISA_EEE11__do_rehashILb1EEEvm, symObjAddr: 0x16114, symBinAddr: 0x100017900, symSize: 0x288 }
  - { offsetInCU: 0x37987, offset: 0x37987, size: 0x8, addend: 0x0, symName: __ZNSt3__110unique_ptrIA_PNS_16__hash_node_baseIPNS_11__hash_nodeINS_17__hash_value_typeINS_12basic_stringIcNS_11char_traitsIcEENS_9allocatorIcEEEEP3NetEEPvEEEENS_25__bucket_list_deallocatorINS7_ISH_EEEEE11get_deleterB8ue170006Ev, symObjAddr: 0x1639C, symBinAddr: 0x100017B88, symSize: 0x24 }
  - { offsetInCU: 0x379AD, offset: 0x379AD, size: 0x8, addend: 0x0, symName: __ZNSt3__110unique_ptrIA_PNS_16__hash_node_baseIPNS_11__hash_nodeINS_17__hash_value_typeINS_12basic_stringIcNS_11char_traitsIcEENS_9allocatorIcEEEEP3NetEEPvEEEENS_25__bucket_list_deallocatorINS7_ISH_EEEEE5resetB8ue170006IPSH_EENS_9enable_ifIXsr28_CheckArrayPointerConversionIT_EE5valueEvE4typeESQ_, symObjAddr: 0x163C0, symBinAddr: 0x100017BAC, symSize: 0x78 }
  - { offsetInCU: 0x379FA, offset: 0x379FA, size: 0x8, addend: 0x0, symName: __ZNSt3__116allocator_traitsINS_9allocatorIPNS_16__hash_node_baseIPNS_11__hash_nodeINS_17__hash_value_typeINS_12basic_stringIcNS_11char_traitsIcEENS1_IcEEEEP3NetEEPvEEEEEEE8allocateB8ue170006ERSI_m, symObjAddr: 0x16438, symBinAddr: 0x100017C24, symSize: 0x2C }
  - { offsetInCU: 0x37A2D, offset: 0x37A2D, size: 0x8, addend: 0x0, symName: __ZNSt3__19allocatorIPNS_16__hash_node_baseIPNS_11__hash_nodeINS_17__hash_value_typeINS_12basic_stringIcNS_11char_traitsIcEENS0_IcEEEEP3NetEEPvEEEEE8allocateB8ue170006Em, symObjAddr: 0x16464, symBinAddr: 0x100017C50, symSize: 0x58 }
  - { offsetInCU: 0x37A6B, offset: 0x37A6B, size: 0x8, addend: 0x0, symName: __ZNSt3__116allocator_traitsINS_9allocatorIPNS_16__hash_node_baseIPNS_11__hash_nodeINS_17__hash_value_typeINS_12basic_stringIcNS_11char_traitsIcEENS1_IcEEEEP3NetEEPvEEEEEEE8max_sizeB8ue170006ISI_vEEmRKSI_, symObjAddr: 0x164BC, symBinAddr: 0x100017CA8, symSize: 0x24 }
  - { offsetInCU: 0x37A99, offset: 0x37A99, size: 0x8, addend: 0x0, symName: __ZNKSt3__19allocatorIPNS_16__hash_node_baseIPNS_11__hash_nodeINS_17__hash_value_typeINS_12basic_stringIcNS_11char_traitsIcEENS0_IcEEEEP3NetEEPvEEEEE8max_sizeB8ue170006Ev, symObjAddr: 0x164E0, symBinAddr: 0x100017CCC, symSize: 0x14 }
  - { offsetInCU: 0x37ABF, offset: 0x37ABF, size: 0x8, addend: 0x0, symName: __ZNKSt3__117__compressed_pairIPNS_11__hash_nodeINS_17__hash_value_typeINS_12basic_stringIcNS_11char_traitsIcEENS_9allocatorIcEEEEP3NetEEPvEENS_22__hash_node_destructorINS6_ISD_EEEEE5firstB8ue170006Ev, symObjAddr: 0x164F4, symBinAddr: 0x100017CE0, symSize: 0x24 }
  - { offsetInCU: 0x37AE5, offset: 0x37AE5, size: 0x8, addend: 0x0, symName: __ZNKSt3__122__compressed_pair_elemIPNS_11__hash_nodeINS_17__hash_value_typeINS_12basic_stringIcNS_11char_traitsIcEENS_9allocatorIcEEEEP3NetEEPvEELi0ELb0EE5__getB8ue170006Ev, symObjAddr: 0x16518, symBinAddr: 0x100017D04, symSize: 0x14 }
  - { offsetInCU: 0x37B0B, offset: 0x37B0B, size: 0x8, addend: 0x0, symName: __ZNSt3__117__compressed_pairIPNS_11__hash_nodeINS_17__hash_value_typeINS_12basic_stringIcNS_11char_traitsIcEENS_9allocatorIcEEEEP3NetEEPvEENS_22__hash_node_destructorINS6_ISD_EEEEE5firstB8ue170006Ev, symObjAddr: 0x1652C, symBinAddr: 0x100017D18, symSize: 0x24 }
  - { offsetInCU: 0x37B31, offset: 0x37B31, size: 0x8, addend: 0x0, symName: __ZNSt3__122__compressed_pair_elemIPNS_11__hash_nodeINS_17__hash_value_typeINS_12basic_stringIcNS_11char_traitsIcEENS_9allocatorIcEEEEP3NetEEPvEELi0ELb0EE5__getB8ue170006Ev, symObjAddr: 0x16550, symBinAddr: 0x100017D3C, symSize: 0x14 }
  - { offsetInCU: 0x37B57, offset: 0x37B57, size: 0x8, addend: 0x0, symName: __ZNSt3__110unique_ptrINS_11__hash_nodeINS_17__hash_value_typeINS_12basic_stringIcNS_11char_traitsIcEENS_9allocatorIcEEEEP3NetEEPvEENS_22__hash_node_destructorINS6_ISD_EEEEED2B8ue170006Ev, symObjAddr: 0x16564, symBinAddr: 0x100017D50, symSize: 0x30 }
  - { offsetInCU: 0x37B81, offset: 0x37B81, size: 0x8, addend: 0x0, symName: __ZNSt3__110unique_ptrINS_11__hash_nodeINS_17__hash_value_typeINS_12basic_stringIcNS_11char_traitsIcEENS_9allocatorIcEEEEP3NetEEPvEENS_22__hash_node_destructorINS6_ISD_EEEEE5resetB8ue170006EPSD_, symObjAddr: 0x16594, symBinAddr: 0x100017D80, symSize: 0x78 }
  - { offsetInCU: 0x37BC5, offset: 0x37BC5, size: 0x8, addend: 0x0, symName: __ZNSt3__122__hash_node_destructorINS_9allocatorINS_11__hash_nodeINS_17__hash_value_typeINS_12basic_stringIcNS_11char_traitsIcEENS1_IcEEEEP3NetEEPvEEEEEclB8ue170006EPSD_, symObjAddr: 0x1660C, symBinAddr: 0x100017DF8, symSize: 0x94 }
  - { offsetInCU: 0x37BFA, offset: 0x37BFA, size: 0x8, addend: 0x0, symName: __ZNSt3__115__hash_iteratorIPNS_11__hash_nodeINS_17__hash_value_typeINS_12basic_stringIcNS_11char_traitsIcEENS_9allocatorIcEEEEP3NetEEPvEEEC2B8ue170006EPNS_16__hash_node_baseISE_EE, symObjAddr: 0x166A0, symBinAddr: 0x100017E8C, symSize: 0x20 }
  - { offsetInCU: 0x37C33, offset: 0x37C33, size: 0x8, addend: 0x0, symName: __ZNSt3__14pairINS_15__hash_iteratorIPNS_11__hash_nodeINS_17__hash_value_typeINS_12basic_stringIcNS_11char_traitsIcEENS_9allocatorIcEEEEP3NetEEPvEEEEbEC2B8ue170006ISG_RbLSD_0EEEOT_OT0_, symObjAddr: 0x166C0, symBinAddr: 0x100017EAC, symSize: 0x38 }
  - { offsetInCU: 0x37C91, offset: 0x37C91, size: 0x8, addend: 0x0, symName: __ZNSt3__114pointer_traitsIPNS_17__hash_value_typeINS_12basic_stringIcNS_11char_traitsIcEENS_9allocatorIcEEEEP3NetEEE10pointer_toB8ue170006ERSA_, symObjAddr: 0x166F8, symBinAddr: 0x100017EE4, symSize: 0x14 }
  - { offsetInCU: 0x37CB4, offset: 0x37CB4, size: 0x8, addend: 0x0, symName: __ZNSt3__112basic_stringIcNS_11char_traitsIcEENS_9allocatorIcEEEC2B8ue170006ILi0EEEPKc, symObjAddr: 0x1670C, symBinAddr: 0x100017EF8, symSize: 0x58 }
  - { offsetInCU: 0x37CF3, offset: 0x37CF3, size: 0x8, addend: 0x0, symName: __ZNSt3__112__hash_tableINS_17__hash_value_typeINS_12basic_stringIcNS_11char_traitsIcEENS_9allocatorIcEEEEP3PinEENS_22__unordered_map_hasherIS7_SA_NS_4hashIS7_EENS_8equal_toIS7_EELb1EEENS_21__unordered_map_equalIS7_SA_SF_SD_Lb1EEENS5_ISA_EEE25__emplace_unique_key_argsIS7_JRKNS_21piecewise_construct_tENS_5tupleIJOS7_EEENSP_IJEEEEEENS_4pairINS_15__hash_iteratorIPNS_11__hash_nodeISA_PvEEEEbEERKT_DpOT0_, symObjAddr: 0x16764, symBinAddr: 0x100017F50, symSize: 0x4B0 }
  - { offsetInCU: 0x37DFD, offset: 0x37DFD, size: 0x8, addend: 0x0, symName: __ZNSt3__112__hash_tableINS_17__hash_value_typeINS_12basic_stringIcNS_11char_traitsIcEENS_9allocatorIcEEEEP3PinEENS_22__unordered_map_hasherIS7_SA_NS_4hashIS7_EENS_8equal_toIS7_EELb1EEENS_21__unordered_map_equalIS7_SA_SF_SD_Lb1EEENS5_ISA_EEE21__construct_node_hashIRKNS_21piecewise_construct_tEJNS_5tupleIJOS7_EEENSP_IJEEEEEENS_10unique_ptrINS_11__hash_nodeISA_PvEENS_22__hash_node_destructorINS5_ISW_EEEEEEmOT_DpOT0_, symObjAddr: 0x16C40, symBinAddr: 0x10001842C, symSize: 0x150 }
  - { offsetInCU: 0x37E99, offset: 0x37E99, size: 0x8, addend: 0x0, symName: __ZNSt3__116allocator_traitsINS_9allocatorINS_11__hash_nodeINS_17__hash_value_typeINS_12basic_stringIcNS_11char_traitsIcEENS1_IcEEEEP3PinEEPvEEEEE9constructB8ue170006INS_4pairIKS8_SA_EEJRKNS_21piecewise_construct_tENS_5tupleIJOS8_EEENSN_IJEEEEvEEvRSE_PT_DpOT0_, symObjAddr: 0x16D90, symBinAddr: 0x10001857C, symSize: 0x44 }
  - { offsetInCU: 0x37F18, offset: 0x37F18, size: 0x8, addend: 0x0, symName: __ZNSt3__19allocatorINS_11__hash_nodeINS_17__hash_value_typeINS_12basic_stringIcNS_11char_traitsIcEENS0_IcEEEEP3PinEEPvEEE9constructB8ue170006INS_4pairIKS7_S9_EEJRKNS_21piecewise_construct_tENS_5tupleIJOS7_EEENSL_IJEEEEEEvPT_DpOT0_, symObjAddr: 0x16DD4, symBinAddr: 0x1000185C0, symSize: 0x44 }
  - { offsetInCU: 0x37F94, offset: 0x37F94, size: 0x8, addend: 0x0, symName: __ZNSt3__14pairIKNS_12basic_stringIcNS_11char_traitsIcEENS_9allocatorIcEEEEP3PinEC1B8ue170006IJOS6_EJEEENS_21piecewise_construct_tENS_5tupleIJDpT_EEENSE_IJDpT0_EEE, symObjAddr: 0x16E18, symBinAddr: 0x100018604, symSize: 0x44 }
  - { offsetInCU: 0x37FFB, offset: 0x37FFB, size: 0x8, addend: 0x0, symName: __ZNSt3__14pairIKNS_12basic_stringIcNS_11char_traitsIcEENS_9allocatorIcEEEEP3PinEC1B8ue170006IJOS6_EJEJLm0EEJEEENS_21piecewise_construct_tERNS_5tupleIJDpT_EEERNSE_IJDpT0_EEENS_15__tuple_indicesIJXspT1_EEEENSN_IJXspT2_EEEE, symObjAddr: 0x16E5C, symBinAddr: 0x100018648, symSize: 0x3C }
  - { offsetInCU: 0x3808B, offset: 0x3808B, size: 0x8, addend: 0x0, symName: __ZNSt3__14pairIKNS_12basic_stringIcNS_11char_traitsIcEENS_9allocatorIcEEEEP3PinEC2B8ue170006IJOS6_EJEJLm0EEJEEENS_21piecewise_construct_tERNS_5tupleIJDpT_EEERNSE_IJDpT0_EEENS_15__tuple_indicesIJXspT1_EEEENSN_IJXspT2_EEEE, symObjAddr: 0x16E98, symBinAddr: 0x100018684, symSize: 0x48 }
  - { offsetInCU: 0x3811B, offset: 0x3811B, size: 0x8, addend: 0x0, symName: __ZNSt3__112basic_stringIcNS_11char_traitsIcEENS_9allocatorIcEEEC1B8ue170006EOS5_, symObjAddr: 0x16F04, symBinAddr: 0x1000186F0, symSize: 0x34 }
  - { offsetInCU: 0x38154, offset: 0x38154, size: 0x8, addend: 0x0, symName: __ZNSt3__112__tuple_leafILm0EONS_12basic_stringIcNS_11char_traitsIcEENS_9allocatorIcEEEELb0EE3getB8ue170006Ev, symObjAddr: 0x16F38, symBinAddr: 0x100018724, symSize: 0x18 }
  - { offsetInCU: 0x3817A, offset: 0x3817A, size: 0x8, addend: 0x0, symName: __ZNSt3__112basic_stringIcNS_11char_traitsIcEENS_9allocatorIcEEEC2B8ue170006EOS5_, symObjAddr: 0x16F50, symBinAddr: 0x10001873C, symSize: 0x48 }
  - { offsetInCU: 0x381B3, offset: 0x381B3, size: 0x8, addend: 0x0, symName: __ZNSt3__15tupleIJONS_12basic_stringIcNS_11char_traitsIcEENS_9allocatorIcEEEEEEC1B8ue170006IJS6_ELi0EEEDpOT_, symObjAddr: 0x16F98, symBinAddr: 0x100018784, symSize: 0x34 }
  - { offsetInCU: 0x381FD, offset: 0x381FD, size: 0x8, addend: 0x0, symName: __ZNSt3__15tupleIJONS_12basic_stringIcNS_11char_traitsIcEENS_9allocatorIcEEEEEEC2B8ue170006IJS6_ELi0EEEDpOT_, symObjAddr: 0x16FCC, symBinAddr: 0x1000187B8, symSize: 0x34 }
  - { offsetInCU: 0x38247, offset: 0x38247, size: 0x8, addend: 0x0, symName: __ZNSt3__112__tuple_implINS_15__tuple_indicesIJLm0EEEEJONS_12basic_stringIcNS_11char_traitsIcEENS_9allocatorIcEEEEEEC1B8ue170006IJLm0EEJS9_EJEJEJS8_EEENS1_IJXspT_EEEENS_13__tuple_typesIJDpT0_EEENS1_IJXspT1_EEEENSD_IJDpT2_EEEDpOT3_, symObjAddr: 0x17000, symBinAddr: 0x1000187EC, symSize: 0x34 }
  - { offsetInCU: 0x382DC, offset: 0x382DC, size: 0x8, addend: 0x0, symName: __ZNSt3__112__tuple_implINS_15__tuple_indicesIJLm0EEEEJONS_12basic_stringIcNS_11char_traitsIcEENS_9allocatorIcEEEEEEC2B8ue170006IJLm0EEJS9_EJEJEJS8_EEENS1_IJXspT_EEEENS_13__tuple_typesIJDpT0_EEENS1_IJXspT1_EEEENSD_IJDpT2_EEEDpOT3_, symObjAddr: 0x17034, symBinAddr: 0x100018820, symSize: 0x34 }
  - { offsetInCU: 0x38371, offset: 0x38371, size: 0x8, addend: 0x0, symName: __ZNSt3__112__tuple_leafILm0EONS_12basic_stringIcNS_11char_traitsIcEENS_9allocatorIcEEEELb0EEC2B8ue170006IS6_vEEOT_, symObjAddr: 0x17068, symBinAddr: 0x100018854, symSize: 0x20 }
  - { offsetInCU: 0x383B4, offset: 0x383B4, size: 0x8, addend: 0x0, symName: __ZNSt3__112__hash_tableINS_17__hash_value_typeINS_12basic_stringIcNS_11char_traitsIcEENS_9allocatorIcEEEE8FlipFlopEENS_22__unordered_map_hasherIS7_S9_NS_4hashIS7_EENS_8equal_toIS7_EELb1EEENS_21__unordered_map_equalIS7_S9_SE_SC_Lb1EEENS5_IS9_EEE25__emplace_unique_key_argsIS7_JRKNS_21piecewise_construct_tENS_5tupleIJOS7_EEENSO_IJEEEEEENS_4pairINS_15__hash_iteratorIPNS_11__hash_nodeIS9_PvEEEEbEERKT_DpOT0_, symObjAddr: 0x17088, symBinAddr: 0x100018874, symSize: 0x4B0 }
  - { offsetInCU: 0x384BE, offset: 0x384BE, size: 0x8, addend: 0x0, symName: __ZNSt3__112__hash_tableINS_17__hash_value_typeINS_12basic_stringIcNS_11char_traitsIcEENS_9allocatorIcEEEE8FlipFlopEENS_22__unordered_map_hasherIS7_S9_NS_4hashIS7_EENS_8equal_toIS7_EELb1EEENS_21__unordered_map_equalIS7_S9_SE_SC_Lb1EEENS5_IS9_EEE21__construct_node_hashIRKNS_21piecewise_construct_tEJNS_5tupleIJOS7_EEENSO_IJEEEEEENS_10unique_ptrINS_11__hash_nodeIS9_PvEENS_22__hash_node_destructorINS5_ISV_EEEEEEmOT_DpOT0_, symObjAddr: 0x17538, symBinAddr: 0x100018D24, symSize: 0x150 }
  - { offsetInCU: 0x3855A, offset: 0x3855A, size: 0x8, addend: 0x0, symName: __ZNSt3__116allocator_traitsINS_9allocatorINS_11__hash_nodeINS_17__hash_value_typeINS_12basic_stringIcNS_11char_traitsIcEENS1_IcEEEE8FlipFlopEEPvEEEEE9constructB8ue170006INS_4pairIKS8_S9_EEJRKNS_21piecewise_construct_tENS_5tupleIJOS8_EEENSM_IJEEEEvEEvRSD_PT_DpOT0_, symObjAddr: 0x17688, symBinAddr: 0x100018E74, symSize: 0x44 }
  - { offsetInCU: 0x385D9, offset: 0x385D9, size: 0x8, addend: 0x0, symName: __ZNSt3__19allocatorINS_11__hash_nodeINS_17__hash_value_typeINS_12basic_stringIcNS_11char_traitsIcEENS0_IcEEEE8FlipFlopEEPvEEE9constructB8ue170006INS_4pairIKS7_S8_EEJRKNS_21piecewise_construct_tENS_5tupleIJOS7_EEENSK_IJEEEEEEvPT_DpOT0_, symObjAddr: 0x176CC, symBinAddr: 0x100018EB8, symSize: 0x44 }
  - { offsetInCU: 0x38655, offset: 0x38655, size: 0x8, addend: 0x0, symName: __ZNSt3__14pairIKNS_12basic_stringIcNS_11char_traitsIcEENS_9allocatorIcEEEE8FlipFlopEC1B8ue170006IJOS6_EJEEENS_21piecewise_construct_tENS_5tupleIJDpT_EEENSD_IJDpT0_EEE, symObjAddr: 0x17710, symBinAddr: 0x100018EFC, symSize: 0x3C }
  - { offsetInCU: 0x386BC, offset: 0x386BC, size: 0x8, addend: 0x0, symName: __ZNSt3__14pairIKNS_12basic_stringIcNS_11char_traitsIcEENS_9allocatorIcEEEE8FlipFlopEC1B8ue170006IJOS6_EJEJLm0EEJEEENS_21piecewise_construct_tERNS_5tupleIJDpT_EEERNSD_IJDpT0_EEENS_15__tuple_indicesIJXspT1_EEEENSM_IJXspT2_EEEE, symObjAddr: 0x1774C, symBinAddr: 0x100018F38, symSize: 0x3C }
  - { offsetInCU: 0x3874C, offset: 0x3874C, size: 0x8, addend: 0x0, symName: __ZNSt3__14pairIKNS_12basic_stringIcNS_11char_traitsIcEENS_9allocatorIcEEEE8FlipFlopEC2B8ue170006IJOS6_EJEJLm0EEJEEENS_21piecewise_construct_tERNS_5tupleIJDpT_EEERNSD_IJDpT0_EEENS_15__tuple_indicesIJXspT1_EEEENSM_IJXspT2_EEEE, symObjAddr: 0x17788, symBinAddr: 0x100018F74, symSize: 0x78 }
  - { offsetInCU: 0x387DC, offset: 0x387DC, size: 0x8, addend: 0x0, symName: __ZNSt3__112__hash_tableINS_17__hash_value_typeINS_12basic_stringIcNS_11char_traitsIcEENS_9allocatorIcEEEEP9InstanceFEENS_22__unordered_map_hasherIS7_SA_NS_4hashIS7_EENS_8equal_toIS7_EELb1EEENS_21__unordered_map_equalIS7_SA_SF_SD_Lb1EEENS5_ISA_EEE25__emplace_unique_key_argsIS7_JRKNS_21piecewise_construct_tENS_5tupleIJOS7_EEENSP_IJEEEEEENS_4pairINS_15__hash_iteratorIPNS_11__hash_nodeISA_PvEEEEbEERKT_DpOT0_, symObjAddr: 0x17800, symBinAddr: 0x100018FEC, symSize: 0x4B0 }
  - { offsetInCU: 0x388E6, offset: 0x388E6, size: 0x8, addend: 0x0, symName: __ZNSt3__112__hash_tableINS_17__hash_value_typeINS_12basic_stringIcNS_11char_traitsIcEENS_9allocatorIcEEEEP9InstanceFEENS_22__unordered_map_hasherIS7_SA_NS_4hashIS7_EENS_8equal_toIS7_EELb1EEENS_21__unordered_map_equalIS7_SA_SF_SD_Lb1EEENS5_ISA_EEE21__construct_node_hashIRKNS_21piecewise_construct_tEJNS_5tupleIJOS7_EEENSP_IJEEEEEENS_10unique_ptrINS_11__hash_nodeISA_PvEENS_22__hash_node_destructorINS5_ISW_EEEEEEmOT_DpOT0_, symObjAddr: 0x17CB0, symBinAddr: 0x10001949C, symSize: 0x150 }
  - { offsetInCU: 0x38982, offset: 0x38982, size: 0x8, addend: 0x0, symName: __ZNSt3__116allocator_traitsINS_9allocatorINS_11__hash_nodeINS_17__hash_value_typeINS_12basic_stringIcNS_11char_traitsIcEENS1_IcEEEEP9InstanceFEEPvEEEEE9constructB8ue170006INS_4pairIKS8_SA_EEJRKNS_21piecewise_construct_tENS_5tupleIJOS8_EEENSN_IJEEEEvEEvRSE_PT_DpOT0_, symObjAddr: 0x17E00, symBinAddr: 0x1000195EC, symSize: 0x44 }
  - { offsetInCU: 0x38A01, offset: 0x38A01, size: 0x8, addend: 0x0, symName: __ZNSt3__19allocatorINS_11__hash_nodeINS_17__hash_value_typeINS_12basic_stringIcNS_11char_traitsIcEENS0_IcEEEEP9InstanceFEEPvEEE9constructB8ue170006INS_4pairIKS7_S9_EEJRKNS_21piecewise_construct_tENS_5tupleIJOS7_EEENSL_IJEEEEEEvPT_DpOT0_, symObjAddr: 0x17E44, symBinAddr: 0x100019630, symSize: 0x44 }
  - { offsetInCU: 0x38A7D, offset: 0x38A7D, size: 0x8, addend: 0x0, symName: __ZNSt3__14pairIKNS_12basic_stringIcNS_11char_traitsIcEENS_9allocatorIcEEEEP9InstanceFEC1B8ue170006IJOS6_EJEEENS_21piecewise_construct_tENS_5tupleIJDpT_EEENSE_IJDpT0_EEE, symObjAddr: 0x17E88, symBinAddr: 0x100019674, symSize: 0x44 }
  - { offsetInCU: 0x38AE4, offset: 0x38AE4, size: 0x8, addend: 0x0, symName: __ZNSt3__14pairIKNS_12basic_stringIcNS_11char_traitsIcEENS_9allocatorIcEEEEP9InstanceFEC1B8ue170006IJOS6_EJEJLm0EEJEEENS_21piecewise_construct_tERNS_5tupleIJDpT_EEERNSE_IJDpT0_EEENS_15__tuple_indicesIJXspT1_EEEENSN_IJXspT2_EEEE, symObjAddr: 0x17ECC, symBinAddr: 0x1000196B8, symSize: 0x3C }
  - { offsetInCU: 0x38B74, offset: 0x38B74, size: 0x8, addend: 0x0, symName: __ZNSt3__14pairIKNS_12basic_stringIcNS_11char_traitsIcEENS_9allocatorIcEEEEP9InstanceFEC2B8ue170006IJOS6_EJEJLm0EEJEEENS_21piecewise_construct_tERNS_5tupleIJDpT_EEERNSE_IJDpT0_EEENS_15__tuple_indicesIJXspT1_EEEENSN_IJXspT2_EEEE, symObjAddr: 0x17F08, symBinAddr: 0x1000196F4, symSize: 0x48 }
  - { offsetInCU: 0x38C04, offset: 0x38C04, size: 0x8, addend: 0x0, symName: __ZNSt3__112__hash_tableINS_17__hash_value_typeINS_12basic_stringIcNS_11char_traitsIcEENS_9allocatorIcEEEEP3NetEENS_22__unordered_map_hasherIS7_SA_NS_4hashIS7_EENS_8equal_toIS7_EELb1EEENS_21__unordered_map_equalIS7_SA_SF_SD_Lb1EEENS5_ISA_EEE25__emplace_unique_key_argsIS7_JRKNS_21piecewise_construct_tENS_5tupleIJOS7_EEENSP_IJEEEEEENS_4pairINS_15__hash_iteratorIPNS_11__hash_nodeISA_PvEEEEbEERKT_DpOT0_, symObjAddr: 0x17F50, symBinAddr: 0x10001973C, symSize: 0x4B0 }
  - { offsetInCU: 0x38D0E, offset: 0x38D0E, size: 0x8, addend: 0x0, symName: __ZNSt3__112__hash_tableINS_17__hash_value_typeINS_12basic_stringIcNS_11char_traitsIcEENS_9allocatorIcEEEEP3NetEENS_22__unordered_map_hasherIS7_SA_NS_4hashIS7_EENS_8equal_toIS7_EELb1EEENS_21__unordered_map_equalIS7_SA_SF_SD_Lb1EEENS5_ISA_EEE21__construct_node_hashIRKNS_21piecewise_construct_tEJNS_5tupleIJOS7_EEENSP_IJEEEEEENS_10unique_ptrINS_11__hash_nodeISA_PvEENS_22__hash_node_destructorINS5_ISW_EEEEEEmOT_DpOT0_, symObjAddr: 0x18400, symBinAddr: 0x100019BEC, symSize: 0x150 }
  - { offsetInCU: 0x38DAA, offset: 0x38DAA, size: 0x8, addend: 0x0, symName: __ZNSt3__116allocator_traitsINS_9allocatorINS_11__hash_nodeINS_17__hash_value_typeINS_12basic_stringIcNS_11char_traitsIcEENS1_IcEEEEP3NetEEPvEEEEE9constructB8ue170006INS_4pairIKS8_SA_EEJRKNS_21piecewise_construct_tENS_5tupleIJOS8_EEENSN_IJEEEEvEEvRSE_PT_DpOT0_, symObjAddr: 0x18550, symBinAddr: 0x100019D3C, symSize: 0x44 }
  - { offsetInCU: 0x38E29, offset: 0x38E29, size: 0x8, addend: 0x0, symName: __ZNSt3__19allocatorINS_11__hash_nodeINS_17__hash_value_typeINS_12basic_stringIcNS_11char_traitsIcEENS0_IcEEEEP3NetEEPvEEE9constructB8ue170006INS_4pairIKS7_S9_EEJRKNS_21piecewise_construct_tENS_5tupleIJOS7_EEENSL_IJEEEEEEvPT_DpOT0_, symObjAddr: 0x18594, symBinAddr: 0x100019D80, symSize: 0x44 }
  - { offsetInCU: 0x38EA5, offset: 0x38EA5, size: 0x8, addend: 0x0, symName: __ZNSt3__14pairIKNS_12basic_stringIcNS_11char_traitsIcEENS_9allocatorIcEEEEP3NetEC1B8ue170006IJOS6_EJEEENS_21piecewise_construct_tENS_5tupleIJDpT_EEENSE_IJDpT0_EEE, symObjAddr: 0x185D8, symBinAddr: 0x100019DC4, symSize: 0x44 }
  - { offsetInCU: 0x38F0C, offset: 0x38F0C, size: 0x8, addend: 0x0, symName: __ZNSt3__14pairIKNS_12basic_stringIcNS_11char_traitsIcEENS_9allocatorIcEEEEP3NetEC1B8ue170006IJOS6_EJEJLm0EEJEEENS_21piecewise_construct_tERNS_5tupleIJDpT_EEERNSE_IJDpT0_EEENS_15__tuple_indicesIJXspT1_EEEENSN_IJXspT2_EEEE, symObjAddr: 0x1861C, symBinAddr: 0x100019E08, symSize: 0x3C }
  - { offsetInCU: 0x38F9C, offset: 0x38F9C, size: 0x8, addend: 0x0, symName: __ZNSt3__14pairIKNS_12basic_stringIcNS_11char_traitsIcEENS_9allocatorIcEEEEP3NetEC2B8ue170006IJOS6_EJEJLm0EEJEEENS_21piecewise_construct_tERNS_5tupleIJDpT_EEERNSE_IJDpT0_EEENS_15__tuple_indicesIJXspT1_EEEENSN_IJXspT2_EEEE, symObjAddr: 0x18658, symBinAddr: 0x100019E44, symSize: 0x48 }
...
